 PhysXCommon_64

 Timestamp is 6368da4f (Mon Nov  7 19:13:35 2022)

 Preferred load address is 0000000180000000

 Start         Length     Name                   Class
 0001:00000000 000029e0H .text$di                CODE
 0001:000029e0 0011e410H .text$mn                CODE
 0001:00120df0 00000040H .text$mn$00             CODE
 0001:00120e30 00001006H .text$x                 CODE
 0002:00000000 000001c8H .idata$5                DATA
 0002:000001c8 00000038H .00cfg                  DATA
 0002:00000200 00000008H .CRT$XCA                DATA
 0002:00000208 00001428H .CRT$XCU                DATA
 0002:00001630 00000008H .CRT$XCZ                DATA
 0002:00001638 00000008H .CRT$XIA                DATA
 0002:00001640 00000008H .CRT$XIZ                DATA
 0002:00001648 00000008H .CRT$XPA                DATA
 0002:00001650 00000008H .CRT$XPZ                DATA
 0002:00001658 00000008H .CRT$XTA                DATA
 0002:00001660 00000010H .CRT$XTZ                DATA
 0002:00001668 00000000H .gehcont$y              DATA
 0002:00001668 00000000H .gfids$y                DATA
 0002:00001670 00004910H .rdata                  DATA
 0002:00005f80 00000000H .rdata$CastGuardVftablesA DATA
 0002:00005f80 00000000H .rdata$CastGuardVftablesC DATA
 0002:00005f80 000032b4H .rdata$r                DATA
 0002:00009234 00000160H .rdata$voltmd           DATA
 0002:00009394 000003ecH .rdata$zzzdbg           DATA
 0002:00009780 00000008H .rtc$IAA                DATA
 0002:00009788 00000008H .rtc$IZZ                DATA
 0002:00009790 00000008H .rtc$TAA                DATA
 0002:00009798 00000008H .rtc$TZZ                DATA
 0002:000097a0 0000c8b0H .xdata                  DATA
 0002:00016050 00000020H .didat$2                DATA
 0002:00016070 00000020H .didat$3                DATA
 0002:00016090 00000088H .didat$4                DATA
 0002:00016118 00000318H .didat$6                DATA
 0002:00016430 00000090H .didat$7                DATA
 0002:000164c0 0000a0dcH .edata                  DATA
 0002:0002059c 0000008cH .idata$2                DATA
 0002:00020628 00000018H .idata$3                DATA
 0002:00020640 000001c8H .idata$4                DATA
 0002:00020808 0000047eH .idata$6                DATA
 0003:00000000 00000a70H .data                   DATA
 0003:00000a70 00000580H .data$r                 DATA
 0003:00000ff0 00001888H .data$rs                DATA
 0003:00002878 00000088H .didat$5                DATA
 0003:00002900 00002f10H .bss                    DATA
 0004:00000000 00005634H .pdata                  DATA
 0005:00000000 00002208H _RDATA                  DATA
 0006:00000000 000000a0H .rsrc$01                DATA
 0006:000000a0 000004b0H .rsrc$02                DATA

  Address         Publics by Value              Rva+Base               Lib:Object

 0000:00000000       __guard_fids_table         0000000000000000     <absolute>
 0000:00000000       __x64_code_ranges_to_entry_points 0000000000000000     <absolute>
 0000:00000000       __hybrid_auxiliary_iat_copy 0000000000000000     <absolute>
 0000:00000000       __guard_check_icall_a64n_fptr 0000000000000000     <absolute>
 0000:00000000       __guard_fids_count         0000000000000000     <absolute>
 0000:00000000       ___safe_se_handler_table   0000000000000000     <absolute>
 0000:00000000       __arm64x_extra_rfe_table   0000000000000000     <absolute>
 0000:00000000       __x64_code_ranges_to_entry_points_count 0000000000000000     <absolute>
 0000:00000000       __arm64x_redirection_metadata_count 0000000000000000     <absolute>
 0000:00000000       __hybrid_auxiliary_iat     0000000000000000     <absolute>
 0000:00000000       __hybrid_code_map          0000000000000000     <absolute>
 0000:00000000       __enclave_config           0000000000000000     <absolute>
 0000:00000000       __AbsoluteZero             0000000000000000     <absolute>
 0000:00000000       __arm64x_extra_rfe_table_size 0000000000000000     <absolute>
 0000:00000000       ___safe_se_handler_count   0000000000000000     <absolute>
 0000:00000000       __guard_longjmp_table      0000000000000000     <absolute>
 0000:00000000       __arm64x_redirection_metadata 0000000000000000     <absolute>
 0000:00000000       __guard_eh_cont_table      0000000000000000     <absolute>
 0000:00000000       __guard_iat_table          0000000000000000     <absolute>
 0000:00000000       __dynamic_value_reloc_table 0000000000000000     <absolute>
 0000:00000000       __arm64x_native_entrypoint 0000000000000000     <absolute>
 0000:00000000       __guard_eh_cont_count      0000000000000000     <absolute>
 0000:00000000       __hybrid_code_map_count    0000000000000000     <absolute>
 0000:00000000       __guard_iat_count          0000000000000000     <absolute>
 0000:00000000       __guard_longjmp_count      0000000000000000     <absolute>
 0000:00000100       __guard_flags              0000000000000100     <absolute>
 0000:00000000       __ImageBase                0000000180000000     <linker-defined>
 0001:000029e0       ??$?_VV?$ReflectionAllocator@VAABBTreeNode@Gu@physx@@@shdfnd@physx@@@UserAllocated@shdfnd@physx@@SAXPEAXV?$ReflectionAllocator@VAABBTreeNode@Gu@physx@@@12@PEBDH@Z 00000001800039e0 f i GuBV4Build.obj
 0001:000029e0       ??$?_VV?$ReflectionAllocator@VIndTri32@Gu@physx@@@shdfnd@physx@@@UserAllocated@shdfnd@physx@@SAXPEAXV?$ReflectionAllocator@VIndTri32@Gu@physx@@@12@PEBDH@Z 00000001800039e0 f i GuBV4.obj
 0001:000029e0       ??$?3V?$ReflectionAllocator@VBV4TriangleData@Gu@physx@@@shdfnd@physx@@@UserAllocated@shdfnd@physx@@SAXPEAXV?$ReflectionAllocator@VBV4TriangleData@Gu@physx@@@12@PEBDH@Z 00000001800039e0 f i GuMeshFactory.obj
 0001:000029e0       ??$?3V?$ReflectionAllocator@VBV32Tree@Gu@physx@@@shdfnd@physx@@@UserAllocated@shdfnd@physx@@SAXPEAXV?$ReflectionAllocator@VBV32Tree@Gu@physx@@@12@PEBDH@Z 00000001800039e0 f i GuMeshFactory.obj
 0001:000029e0       ??$?3V?$ReflectionAllocator@VCollection@Cm@physx@@@shdfnd@physx@@@UserAllocated@shdfnd@physx@@SAXPEAXV?$ReflectionAllocator@VCollection@Cm@physx@@@12@PEBDH@Z 00000001800039e0 f i CmCollection.obj
 0001:000029e0       ??$?3V?$ReflectionAllocator@USlab@BV4BuildParams@@@shdfnd@physx@@@UserAllocated@shdfnd@physx@@SAXPEAXV?$ReflectionAllocator@USlab@BV4BuildParams@@@12@PEBDH@Z 00000001800039e0 f i GuBV4Build.obj
 0001:000029e0       ??$?_VV?$ReflectionAllocator@VAABBTreeBuildNode@Gu@physx@@@shdfnd@physx@@@UserAllocated@shdfnd@physx@@SAXPEAXV?$ReflectionAllocator@VAABBTreeBuildNode@Gu@physx@@@12@PEBDH@Z 00000001800039e0 f i GuAABBTreeBuild.obj
 0001:000029e0       ??$?3V?$ReflectionAllocator@VBigConvexData@physx@@@shdfnd@physx@@@UserAllocated@shdfnd@physx@@SAXPEAXV?$ReflectionAllocator@VBigConvexData@physx@@@12@PEBDH@Z 00000001800039e0 f i GuConvexMesh.obj
 0001:000029e0       ??$?3V?$ReflectionAllocator@VConvexMesh@Gu@physx@@@shdfnd@physx@@@UserAllocated@shdfnd@physx@@SAXPEAXV?$ReflectionAllocator@VConvexMesh@Gu@physx@@@12@PEBDH@Z 00000001800039e0 f i GuMeshFactory.obj
 0001:000029e0       ??$?3V?$ReflectionAllocator@VRTreeTriangleMesh@Gu@physx@@@shdfnd@physx@@@UserAllocated@shdfnd@physx@@SAXPEAXV?$ReflectionAllocator@VRTreeTriangleMesh@Gu@physx@@@12@PEBDH@Z 00000001800039e0 f i GuMeshFactory.obj
 0001:000029e0       ??$?3V?$ReflectionAllocator@VBVHStructure@Gu@physx@@@shdfnd@physx@@@UserAllocated@shdfnd@physx@@SAXPEAXV?$ReflectionAllocator@VBVHStructure@Gu@physx@@@12@PEBDH@Z 00000001800039e0 f i GuMeshFactory.obj
 0001:000029e0       ??$?_VV?$ReflectionAllocator@VIndTri16@Gu@physx@@@shdfnd@physx@@@UserAllocated@shdfnd@physx@@SAXPEAXV?$ReflectionAllocator@VIndTri16@Gu@physx@@@12@PEBDH@Z 00000001800039e0 f i GuBV4.obj
 0001:000029e0       ??$?3V?$ReflectionAllocator@VBV4TriangleMesh@Gu@physx@@@shdfnd@physx@@@UserAllocated@shdfnd@physx@@SAXPEAXV?$ReflectionAllocator@VBV4TriangleMesh@Gu@physx@@@12@PEBDH@Z 00000001800039e0 f i GuMeshFactory.obj
 0001:000029e0       ??$?3V?$ReflectionAllocator@VHeightField@Gu@physx@@@shdfnd@physx@@@UserAllocated@shdfnd@physx@@SAXPEAXV?$ReflectionAllocator@VHeightField@Gu@physx@@@12@PEBDH@Z 00000001800039e0 f i GuMeshFactory.obj
 0001:00002a10       ??1?$CoalescedHashSet@PEAVHeightField@Gu@physx@@U?$Hash@PEAVHeightField@Gu@physx@@@shdfnd@3@VNonTrackingAllocator@53@@shdfnd@physx@@QEAA@XZ 0000000180003a10 f i GuMeshFactory.obj
 0001:00002a10       ??1?$CoalescedHashSet@PEAVTriangleMesh@Gu@physx@@U?$Hash@PEAVTriangleMesh@Gu@physx@@@shdfnd@3@VNonTrackingAllocator@53@@shdfnd@physx@@QEAA@XZ 0000000180003a10 f i GuMeshFactory.obj
 0001:00002a10       ??1?$CollectionHashMap@_KPEAVPxBase@physx@@U?$Hash@_K@shdfnd@2@VNonTrackingAllocator@42@@Cm@physx@@QEAA@XZ 0000000180003a10 f i CmCollection.obj
 0001:00002a10       ??1?$CoalescedHashSet@PEAVConvexMesh@Gu@physx@@U?$Hash@PEAVConvexMesh@Gu@physx@@@shdfnd@3@VNonTrackingAllocator@53@@shdfnd@physx@@QEAA@XZ 0000000180003a10 f i GuMeshFactory.obj
 0001:00002a40       ??1PxCollection@physx@@MEAA@XZ 0000000180003a40 f i CmCollection.obj
 0001:00002a50       ??_ECollection@Cm@physx@@UEAAPEAXI@Z 0000000180003a50 f i CmCollection.obj
 0001:00002a50       ??_GCollection@Cm@physx@@UEAAPEAXI@Z 0000000180003a50 f i CmCollection.obj
 0001:00002b00       ??_EPxCollection@physx@@MEAAPEAXI@Z 0000000180003b00 f i CmCollection.obj
 0001:00002b00       ??_GPxCollection@physx@@MEAAPEAXI@Z 0000000180003b00 f i CmCollection.obj
 0001:00002b30       ?PxCreateCollection@@YAPEAVPxCollection@physx@@XZ 0000000180003b30 f   CmCollection.obj
 0001:00002c40       ?add@Collection@Cm@physx@@UEAAXAEAVPxBase@3@_K@Z 0000000180003c40 f   CmCollection.obj
 0001:00002d30       ?add@Collection@Cm@physx@@UEAAXAEAVPxCollection@3@@Z 0000000180003d30 f   CmCollection.obj
 0001:00002ed0       ?addId@Collection@Cm@physx@@UEAAXAEAVPxBase@3@_K@Z 0000000180003ed0 f   CmCollection.obj
 0001:00003000       ?contains@Collection@Cm@physx@@UEBA_NAEAVPxBase@3@@Z 0000000180004000 f   CmCollection.obj
 0001:000030b0       ?create@?$HashBase@V?$Pair@QEAVPxBase@physx@@_K@shdfnd@physx@@PEAVPxBase@3@U?$Hash@PEAVPxBase@physx@@@23@UGetKey@?$HashMapBase@PEAVPxBase@physx@@_KU?$Hash@PEAVPxBase@physx@@@shdfnd@2@VNonTrackingAllocator@42@@internal@23@VNonTrackingAllocator@23@$00@internal@shdfnd@physx@@QEAAPEAV?$Pair@QEAVPxBase@physx@@_K@34@AEBQEAVPxBase@4@AEA_N@Z 00000001800040b0 f i CmCollection.obj
 0001:000030b0       ?create@?$HashBase@V?$Pair@$$CB_KPEAVPxBase@physx@@@shdfnd@physx@@_KU?$Hash@_K@23@UGetKey@?$HashMapBase@_KPEAVPxBase@physx@@U?$Hash@_K@shdfnd@2@VNonTrackingAllocator@42@@internal@23@VNonTrackingAllocator@23@$00@internal@shdfnd@physx@@QEAAPEAV?$Pair@$$CB_KPEAVPxBase@physx@@@34@AEB_KAEA_N@Z 00000001800040b0 f i CmCollection.obj
 0001:00003240       ?erase@?$HashBase@V?$Pair@$$CB_KPEAVPxBase@physx@@@shdfnd@physx@@_KU?$Hash@_K@23@UGetKey@?$HashMapBase@_KPEAVPxBase@physx@@U?$Hash@_K@shdfnd@2@VNonTrackingAllocator@42@@internal@23@VNonTrackingAllocator@23@$00@internal@shdfnd@physx@@QEAA_NAEB_K@Z 0000000180004240 f i CmCollection.obj
 0001:00003240       ?erase@?$HashBase@V?$Pair@QEAVPxBase@physx@@_K@shdfnd@physx@@PEAVPxBase@3@U?$Hash@PEAVPxBase@physx@@@23@UGetKey@?$HashMapBase@PEAVPxBase@physx@@_KU?$Hash@PEAVPxBase@physx@@@shdfnd@2@VNonTrackingAllocator@42@@internal@23@VNonTrackingAllocator@23@$00@internal@shdfnd@physx@@QEAA_NAEBQEAVPxBase@4@@Z 0000000180004240 f i CmCollection.obj
 0001:000033f0       ?find@?$HashMapBase@_KPEAVPxBase@physx@@U?$Hash@_K@shdfnd@2@VNonTrackingAllocator@42@@internal@shdfnd@physx@@QEBAPEBV?$Pair@$$CB_KPEAVPxBase@physx@@@34@AEB_K@Z 00000001800043f0 f i CmCollection.obj
 0001:00003490       ?find@Collection@Cm@physx@@UEBAPEAVPxBase@3@_K@Z 0000000180004490 f   CmCollection.obj
 0001:000034c0       ?getId@Collection@Cm@physx@@UEBA_KAEBVPxBase@3@@Z 00000001800044c0 f   CmCollection.obj
 0001:00003570       ?getIds@Collection@Cm@physx@@UEBAIPEA_KII@Z 0000000180004570 f   CmCollection.obj
 0001:00003640       ?getNbIds@Collection@Cm@physx@@UEBAIXZ 0000000180004640 f   CmCollection.obj
 0001:00003640       ?getNbColumns@HeightField@Gu@physx@@UEBAIXZ 0000000180004640 f   GuBounds.obj
 0001:00003650       ?getNbObjects@Collection@Cm@physx@@UEBAIXZ 0000000180004650 f   CmCollection.obj
 0001:00003660       ?getObject@Collection@Cm@physx@@UEBAAEAVPxBase@3@I@Z 0000000180004660 f   CmCollection.obj
 0001:00003670       ?getObjects@Collection@Cm@physx@@UEBAIPEAPEAVPxBase@3@II@Z 0000000180004670 f   CmCollection.obj
 0001:000036b0       ?release@Collection@Cm@physx@@UEAAXXZ 00000001800046b0 f i CmCollection.obj
 0001:000036d0       ?remove@Collection@Cm@physx@@UEAAXAEAVPxBase@3@@Z 00000001800046d0 f   CmCollection.obj
 0001:000037c0       ?remove@Collection@Cm@physx@@UEAAXAEAVPxCollection@3@@Z 00000001800047c0 f   CmCollection.obj
 0001:000038d0       ?removeId@Collection@Cm@physx@@UEAAX_K@Z 00000001800048d0 f   CmCollection.obj
 0001:00003950       ?reserveInternal@?$HashBase@V?$Pair@QEAVPxBase@physx@@_K@shdfnd@physx@@PEAVPxBase@3@U?$Hash@PEAVPxBase@physx@@@23@UGetKey@?$HashMapBase@PEAVPxBase@physx@@_KU?$Hash@PEAVPxBase@physx@@@shdfnd@2@VNonTrackingAllocator@42@@internal@23@VNonTrackingAllocator@23@$00@internal@shdfnd@physx@@AEAAXI@Z 0000000180004950 f i CmCollection.obj
 0001:00003950       ?reserveInternal@?$HashBase@V?$Pair@$$CB_KPEAVPxBase@physx@@@shdfnd@physx@@_KU?$Hash@_K@23@UGetKey@?$HashMapBase@_KPEAVPxBase@physx@@U?$Hash@_K@shdfnd@2@VNonTrackingAllocator@42@@internal@23@VNonTrackingAllocator@23@$00@internal@shdfnd@physx@@AEAAXI@Z 0000000180004950 f i CmCollection.obj
 0001:00003b30       ??0PtrTable@Cm@physx@@QEAA@W4PxEMPTY@2@@Z 0000000180004b30 f i CmPtrTable.obj
 0001:00003b50       ??0PtrTable@Cm@physx@@QEAA@XZ 0000000180004b50 f   CmPtrTable.obj
 0001:00003b60       ?requiresObjects@HeightField@Gu@physx@@UEAAXAEAVPxProcessPxBaseCallback@3@@Z 0000000180004b60 f   GuHeightField.obj
 0001:00003b60       ??1BVData@@QEAA@XZ         0000000180004b60 f   GuBV4Build.obj
 0001:00003b60       ??1MaterialIndicesStruct@physx@@QEAA@XZ 0000000180004b60 f   GuGeometryUnion.obj
 0001:00003b60       ?profile@Callback@RTree@Gu@physx@@UEAAXXZ 0000000180004b60 f   GuMidphaseRTree.obj
 0001:00003b60       ??1Capsule@Gu@physx@@QEAA@XZ 0000000180004b60 f   GuSweepCapsuleCapsule.obj
 0001:00003b60       ??1AABBTreeBuildNode@Gu@physx@@QEAA@XZ 0000000180004b60 f   GuAABBTreeBuild.obj
 0001:00003b60       ??1Box@Gu@physx@@QEAA@XZ   0000000180004b60 f   GuBounds.obj
 0001:00003b60       ??1MTDTriangle@@QEAA@XZ    0000000180004b60 f   GuSweepMTD.obj
 0001:00003b60       ??1Segment@Gu@physx@@QEAA@XZ 0000000180004b60 f   GuContactCapsuleCapsule.obj
 0001:00003b60       ??3UserAllocated@shdfnd@physx@@SAXPEAX0@Z 0000000180004b60 f   GuTriangleMeshBV4.obj
 0001:00003b60       ??1PxTriangle@physx@@QEAA@XZ 0000000180004b60 f   GuSweepCapsuleBox.obj
 0001:00003b60       ??1HeightFieldData@Gu@physx@@QEAA@XZ 0000000180004b60 f   GuBounds.obj
 0001:00003b60       ??1PtrTable@Cm@physx@@QEAA@XZ 0000000180004b60 f   CmPtrTable.obj
 0001:00003b60       ??1IndTri32@Gu@physx@@QEAA@XZ 0000000180004b60 f   GuBV4.obj
 0001:00003b60       ??1IndTri16@Gu@physx@@QEAA@XZ 0000000180004b60 f   GuBV4.obj
 0001:00003b60       ?requiresObjects@TriangleMesh@Gu@physx@@UEAAXAEAVPxProcessPxBaseCallback@3@@Z 0000000180004b60 f   GuTriangleMesh.obj
 0001:00003b60       ?requiresObjects@ConvexMesh@Gu@physx@@UEAAXAEAVPxProcessPxBaseCallback@3@@Z 0000000180004b60 f   GuConvexMesh.obj
 0001:00003b70       ??4PtrTable@Cm@physx@@QEAAAEAU012@AEBU012@@Z 0000000180004b70 f i CmPtrTable.obj
 0001:00003b70       ??4CmModuleUpdateLoader@Cm@physx@@QEAAAEAV012@AEBV012@@Z 0000000180004b70 f i CmWindowsModuleUpdateLoader.obj
 0001:00003b70       ??4MaterialIndicesStruct@physx@@QEAAAEAU01@AEBU01@@Z 0000000180004b70 f i GuGeometryUnion.obj
 0001:00003b80       ?add@PtrTable@Cm@physx@@QEAAXPEAXAEAVPtrTableStorageManager@23@@Z 0000000180004b80 f   CmPtrTable.obj
 0001:00003c40       ?clear@PtrTable@Cm@physx@@QEAAXAEAVPtrTableStorageManager@23@@Z 0000000180004c40 f   CmPtrTable.obj
 0001:00003cc0       ?exportExtraData@PtrTable@Cm@physx@@QEAAXAEAVPxSerializationContext@3@@Z 0000000180004cc0 f   CmPtrTable.obj
 0001:00003d10       ?find@PtrTable@Cm@physx@@QEBAIPEBX@Z 0000000180004d10 f   CmPtrTable.obj
 0001:00003d40       ?getBinaryMetaData@PtrTable@Cm@physx@@SAXAEAVPxOutputStream@3@@Z 0000000180004d40 f   CmPtrTable.obj
 0001:00003ef0       ?getCount@PtrTable@Cm@physx@@QEBAIXZ 0000000180004ef0 f i CmPtrTable.obj
 0001:00003f00       ?getPtrs@PtrTable@Cm@physx@@QEAAPEAPEAXXZ 0000000180004f00 f i CmPtrTable.obj
 0001:00003f00       ?getPtrs@PtrTable@Cm@physx@@QEBAPEBQEAXXZ 0000000180004f00 f i CmPtrTable.obj
 0001:00003f10       ?importExtraData@PtrTable@Cm@physx@@QEAAXAEAVPxDeserializationContext@3@@Z 0000000180004f10 f   CmPtrTable.obj
 0001:00003f40       ?realloc@PtrTable@Cm@physx@@AEAAXIIAEAVPtrTableStorageManager@23@@Z 0000000180004f40 f   CmPtrTable.obj
 0001:00003fd0       ?replaceWithLast@PtrTable@Cm@physx@@QEAAXIAEAVPtrTableStorageManager@23@@Z 0000000180004fd0 f   CmPtrTable.obj
 0001:000040d0       ??0RadixSort@Cm@physx@@QEAA@XZ 00000001800050d0 f   CmRadixSort.obj
 0001:00004100       ??1RadixSort@Cm@physx@@UEAA@XZ 0000000180005100 f   CmRadixSort.obj
 0001:00004110       ??_ERadixSort@Cm@physx@@UEAAPEAXI@Z 0000000180005110 f i CmRadixSort.obj
 0001:000041a0       ?GetNbHits@RadixSort@Cm@physx@@QEBAIXZ 00000001800051a0 f i CmRadixSort.obj
 0001:000041b0       ?GetNbTotalCalls@RadixSort@Cm@physx@@QEBAIXZ 00000001800051b0 f i CmRadixSort.obj
 0001:000041c0       ?GetRanks@RadixSort@Cm@physx@@QEBAPEBIXZ 00000001800051c0 f i CmRadixSort.obj
 0001:000041c0       ?getHeightField@HeightFieldUtil@Gu@physx@@QEBAAEBVHeightField@23@XZ 00000001800051c0 f i GuCCTSweepTests.obj
 0001:000041d0       ?getHeightFieldGeometry@HeightFieldUtil@Gu@physx@@QEBAAEBVPxHeightFieldGeometry@3@XZ 00000001800051d0 f i GuCCTSweepTests.obj
 0001:000041d0       ?getPos@AABBTreeBuildNode@Gu@physx@@QEBAPEBV123@XZ 00000001800051d0 f i GuAABBTreeBuild.obj
 0001:000041d0       ?GetValencies@BigConvexData@physx@@QEBAPEBUValency@Gu@2@XZ 00000001800051d0 f i GuMetaData.obj
 0001:000041d0       ?GetRecyclable@RadixSort@Cm@physx@@QEBAPEAIXZ 00000001800051d0 f i CmRadixSort.obj
 0001:000041e0       ?SetBuffers@RadixSort@Cm@physx@@QEAA_NPEAI00PEAPEAI@Z 00000001800051e0 f   CmRadixSort.obj
 0001:00004220       ?Sort@RadixSort@Cm@physx@@QEAAAEAV123@PEBIIW4RadixHint@23@@Z 0000000180005220 f   CmRadixSort.obj
 0001:000048e0       ?Sort@RadixSort@Cm@physx@@QEAAAEAV123@PEBMI@Z 00000001800058e0 f   CmRadixSort.obj
 0001:00005080       ?invalidateRanks@RadixSort@Cm@physx@@QEAAXXZ 0000000180006080 f i CmRadixSort.obj
 0001:00005090       ??0RadixSortBuffered@Cm@physx@@QEAA@XZ 0000000180006090 f   CmRadixSortBuffered.obj
 0001:000050c0       ??1RadixSortBuffered@Cm@physx@@UEAA@XZ 00000001800060c0 f   CmRadixSortBuffered.obj
 0001:000050f0       ??_ERadixSortBuffered@Cm@physx@@UEAAPEAXI@Z 00000001800060f0 f i CmRadixSortBuffered.obj
 0001:00005190       ?CheckResize@RadixSortBuffered@Cm@physx@@AEAAXI@Z 0000000180006190 f i CmRadixSortBuffered.obj
 0001:000051d0       ?Resize@RadixSortBuffered@Cm@physx@@AEAA_NI@Z 00000001800061d0 f   CmRadixSortBuffered.obj
 0001:000052c0       ?Sort@RadixSortBuffered@Cm@physx@@QEAAAEAV123@PEBIIW4RadixHint@23@@Z 00000001800062c0 f   CmRadixSortBuffered.obj
 0001:00005360       ?Sort@RadixSortBuffered@Cm@physx@@QEAAAEAV123@PEBMI@Z 0000000180006360 f   CmRadixSortBuffered.obj
 0001:00005400       ?reset@RadixSortBuffered@Cm@physx@@QEAAXXZ 0000000180006400 f   CmRadixSortBuffered.obj
 0001:00005480       ??0DebugText@Cm@physx@@QEAA@AEBU012@@Z 0000000180006480 f i CmRenderOutput.obj
 0001:00005480       ??0DebugText@Cm@physx@@QEAA@$$QEAU012@@Z 0000000180006480 f i CmRenderOutput.obj
 0001:00005560       ??0DebugText@Cm@physx@@QEAA@AEBVPxVec3@2@MPEBDZZ 0000000180006560 f   CmRenderOutput.obj
 0001:000055c0       ??0RenderOutput@Cm@physx@@QEAA@AEAVRenderBuffer@12@@Z 00000001800065c0 f i CmRenderOutput.obj
 0001:00005610       ??0RenderOutput@Cm@physx@@QEAA@AEBV012@@Z 0000000180006610 f i CmRenderOutput.obj
 0001:000056b0       ??4DebugText@Cm@physx@@QEAAAEAU012@$$QEAU012@@Z 00000001800066b0 f i CmRenderOutput.obj
 0001:000056b0       ??4DebugText@Cm@physx@@QEAAAEAU012@AEBU012@@Z 00000001800066b0 f i CmRenderOutput.obj
 0001:000057e0       ??6Cm@physx@@YAAEAVRenderOutput@01@AEAV201@AEBUDebugArc@01@@Z 00000001800067e0 f   CmRenderOutput.obj
 0001:000058e0       ??6Cm@physx@@YAAEAVRenderOutput@01@AEAV201@AEBUDebugArrow@01@@Z 00000001800068e0 f   CmRenderOutput.obj
 0001:00005ce0       ??6Cm@physx@@YAAEAVRenderOutput@01@AEAV201@AEBUDebugBasis@01@@Z 0000000180006ce0 f   CmRenderOutput.obj
 0001:00005de0       ??6Cm@physx@@YAAEAVRenderOutput@01@AEAV201@AEBUDebugBox@01@@Z 0000000180006de0 f   CmRenderOutput.obj
 0001:000062e0       ??6Cm@physx@@YAAEAVRenderOutput@01@AEAV201@AEBUDebugCircle@01@@Z 00000001800072e0 f   CmRenderOutput.obj
 0001:000063c0       ??6RenderOutput@Cm@physx@@QEAAAEAV012@AEBUDebugText@12@@Z 00000001800073c0 f   CmRenderOutput.obj
 0001:000065c0       ??6RenderOutput@Cm@physx@@QEAAAEAV012@AEBVPxMat44@2@@Z 00000001800075c0 f   CmRenderOutput.obj
 0001:00006630       ??6RenderOutput@Cm@physx@@QEAAAEAV012@AEBVPxTransform@2@@Z 0000000180007630 f   CmRenderOutput.obj
 0001:000067b0       ??6RenderOutput@Cm@physx@@QEAAAEAV012@I@Z 00000001800077b0 f   CmRenderOutput.obj
 0001:000067c0       ??6RenderOutput@Cm@physx@@QEAAAEAV012@VPxVec3@2@@Z 00000001800077c0 f   CmRenderOutput.obj
 0001:00006d10       ??6RenderOutput@Cm@physx@@QEAAAEAV012@W4Primitive@012@@Z 0000000180007d10 f   CmRenderOutput.obj
 0001:00006d20       ?allocate@?$Array@DV?$ReflectionAllocator@D@shdfnd@physx@@@shdfnd@physx@@IEAAPEADI@Z 0000000180007d20 f i CmRenderOutput.obj
 0001:00006db0       ?allocate@?$Array@UPxDebugLine@physx@@V?$ReflectionAllocator@UPxDebugLine@physx@@@shdfnd@2@@shdfnd@physx@@IEAAPEAUPxDebugLine@3@I@Z 0000000180007db0 f i CmRenderOutput.obj
 0001:00006e50       ?allocate@?$Array@UPxDebugPoint@physx@@V?$ReflectionAllocator@UPxDebugPoint@physx@@@shdfnd@2@@shdfnd@physx@@IEAAPEAUPxDebugPoint@3@I@Z 0000000180007e50 f i CmRenderOutput.obj
 0001:00006ef0       ?allocate@?$Array@UPxDebugText@physx@@V?$ReflectionAllocator@UPxDebugText@physx@@@shdfnd@2@@shdfnd@physx@@IEAAPEAUPxDebugText@3@I@Z 0000000180007ef0 f i CmRenderOutput.obj
 0001:00006f90       ?allocate@?$Array@UPxDebugTriangle@physx@@V?$ReflectionAllocator@UPxDebugTriangle@physx@@@shdfnd@2@@shdfnd@physx@@IEAAPEAUPxDebugTriangle@3@I@Z 0000000180007f90 f i CmRenderOutput.obj
 0001:00007030       ?copy@?$Array@UPxDebugLine@physx@@V?$ReflectionAllocator@UPxDebugLine@physx@@@shdfnd@2@@shdfnd@physx@@KAXPEAUPxDebugLine@3@0PEBU43@@Z 0000000180008030 f i CmRenderOutput.obj
 0001:000071e0       ?copy@?$Array@UPxDebugPoint@physx@@V?$ReflectionAllocator@UPxDebugPoint@physx@@@shdfnd@2@@shdfnd@physx@@KAXPEAUPxDebugPoint@3@0PEBU43@@Z 00000001800081e0 f i CmRenderOutput.obj
 0001:000072e0       ?copy@?$Array@UPxDebugText@physx@@V?$ReflectionAllocator@UPxDebugText@physx@@@shdfnd@2@@shdfnd@physx@@KAXPEAUPxDebugText@3@0PEBU43@@Z 00000001800082e0 f i CmRenderOutput.obj
 0001:00007450       ?copy@?$Array@UPxDebugTriangle@physx@@V?$ReflectionAllocator@UPxDebugTriangle@physx@@@shdfnd@2@@shdfnd@physx@@KAXPEAUPxDebugTriangle@3@0PEBU43@@Z 0000000180008450 f i CmRenderOutput.obj
 0001:00007650       ?growAndPushBack@?$Array@DV?$ReflectionAllocator@D@shdfnd@physx@@@shdfnd@physx@@IEAAAEADAEBD@Z 0000000180008650 f i CmRenderOutput.obj
 0001:00007710       ?growAndPushBack@?$Array@UPxDebugLine@physx@@V?$ReflectionAllocator@UPxDebugLine@physx@@@shdfnd@2@@shdfnd@physx@@IEAAAEAUPxDebugLine@3@AEBU43@@Z 0000000180008710 f i CmRenderOutput.obj
 0001:000077f0       ?growAndPushBack@?$Array@UPxDebugPoint@physx@@V?$ReflectionAllocator@UPxDebugPoint@physx@@@shdfnd@2@@shdfnd@physx@@IEAAAEAUPxDebugPoint@3@AEBU43@@Z 00000001800087f0 f i CmRenderOutput.obj
 0001:000078b0       ?growAndPushBack@?$Array@UPxDebugText@physx@@V?$ReflectionAllocator@UPxDebugText@physx@@@shdfnd@2@@shdfnd@physx@@IEAAAEAUPxDebugText@3@AEBU43@@Z 00000001800088b0 f i CmRenderOutput.obj
 0001:00007980       ?growAndPushBack@?$Array@UPxDebugTriangle@physx@@V?$ReflectionAllocator@UPxDebugTriangle@physx@@@shdfnd@2@@shdfnd@physx@@IEAAAEAUPxDebugTriangle@3@AEBU43@@Z 0000000180008980 f i CmRenderOutput.obj
 0001:00007a80       ?outputCapsule@RenderOutput@Cm@physx@@QEAAAEAV123@MMAEBVPxMat44@3@@Z 0000000180008a80 f   CmRenderOutput.obj
 0001:00008540       ?outputSegment@RenderOutput@Cm@physx@@QEAAXAEBVPxVec3@3@0@Z 0000000180009540 f i CmRenderOutput.obj
 0001:00008600       ?recreate@?$Array@DV?$ReflectionAllocator@D@shdfnd@physx@@@shdfnd@physx@@IEAAXI@Z 0000000180009600 f i CmRenderOutput.obj
 0001:000086a0       ?recreate@?$Array@UPxDebugLine@physx@@V?$ReflectionAllocator@UPxDebugLine@physx@@@shdfnd@2@@shdfnd@physx@@IEAAXI@Z 00000001800096a0 f i CmRenderOutput.obj
 0001:00008730       ?reserveSegments@RenderOutput@Cm@physx@@QEAAPEAUPxDebugLine@3@I@Z 0000000180009730 f i CmRenderOutput.obj
 0001:00008790       ??DPxQuat@physx@@QEBA?AV01@AEBV01@@Z 0000000180009790 f i CmVisualization.obj
 0001:000088d0       ?visualizeAngularLimit@Cm@physx@@YAXAEAVRenderOutput@12@MAEBVPxTransform@2@MM_N@Z 00000001800098d0 f   CmVisualization.obj
 0001:00008a90       ?visualizeDoubleCone@Cm@physx@@YAXAEAVRenderOutput@12@MAEBVPxTransform@2@M_N@Z 0000000180009a90 f   CmVisualization.obj
 0001:00008cf0       ?visualizeJointFrames@Cm@physx@@YAXAEAVRenderOutput@12@MAEBVPxTransform@2@1@Z 0000000180009cf0 f   CmVisualization.obj
 0001:00008db0       ?visualizeLimitCone@Cm@physx@@YAXAEAVRenderOutput@12@MAEBVPxTransform@2@MM_N@Z 0000000180009db0 f   CmVisualization.obj
 0001:00009040       ?visualizeLinearLimit@Cm@physx@@YAXAEAVRenderOutput@12@MAEBVPxTransform@2@1M_N@Z 000000018000a040 f   CmVisualization.obj
 0001:000092c0       ??0CmModuleUpdateLoader@Cm@physx@@QEAA@PEBD@Z 000000018000a2c0 f   CmWindowsModuleUpdateLoader.obj
 0001:00009300       ??1CmModuleUpdateLoader@Cm@physx@@QEAA@XZ 000000018000a300 f   CmWindowsModuleUpdateLoader.obj
 0001:00009330       ?LoadModule@CmModuleUpdateLoader@Cm@physx@@QEAAPEAUHINSTANCE__@@PEBD0@Z 000000018000a330 f   CmWindowsModuleUpdateLoader.obj
 0001:00009350       ?commonDelayHook@@YAP6A_JXZIPEAUDelayLoadInfo@@@Z 000000018000a350 f   CmWindowsDelayLoadHook.obj
 0001:00009430       PxSetPhysXCommonDelayLoadHook 000000018000a430 f   CmWindowsDelayLoadHook.obj
 0001:00009440       ??4Box@Gu@physx@@QEAAAEBV012@AEBV012@@Z 000000018000a440 f i GuBounds.obj
 0001:00009440       ??0Box@Gu@physx@@QEAA@AEBV012@@Z 000000018000a440 f i GuBounds.obj
 0001:000094a0       ??0Box@Gu@physx@@QEAA@AEBVPxVec3@2@0AEBVPxMat33@2@@Z 000000018000a4a0 f i GuBounds.obj
 0001:00009510       ??0BigConvexData@physx@@QEAA@W4PxEMPTY@1@@Z 000000018000a510 f i GuMetaData.obj
 0001:00009510       ?getGeometry@GeometryUnion@Gu@physx@@QEBAAEBVPxGeometry@3@XZ 000000018000a510 f i GuGeometryUnion.obj
 0001:00009510       ??0Capsule@Gu@physx@@QEAA@XZ 000000018000a510 f i GuSweepCapsuleCapsule.obj
 0001:00009510       ??0IndTri16@Gu@physx@@QEAA@XZ 000000018000a510 f i GuBV4.obj
 0001:00009510       ??0PxTriangle@physx@@QEAA@XZ 000000018000a510 f i GuSweepCapsuleBox.obj
 0001:00009510       ??0AABBTreeBuildNode@Gu@physx@@QEAA@XZ 000000018000a510 f i GuAABBTreeBuild.obj
 0001:00009510       ??0GeometryUnion@Gu@physx@@QEAA@W4PxEMPTY@2@@Z 000000018000a510 f i GuGeometryUnion.obj
 0001:00009510       ??0Box@Gu@physx@@QEAA@XZ   000000018000a510 f i GuBounds.obj
 0001:00009510       ??0Segment@Gu@physx@@QEAA@XZ 000000018000a510 f i GuContactCapsuleCapsule.obj
 0001:00009510       ?getPaddedBounds@HeightFieldData@Gu@physx@@QEBAAEBVCenterExtentsPadded@23@XZ 000000018000a510 f i GuBounds.obj
 0001:00009510       ??0IndTri32@Gu@physx@@QEAA@XZ 000000018000a510 f i GuBV4.obj
 0001:00009510       ?getAABB@AABBTreeBuildNode@Gu@physx@@QEBAAEBVPxBounds3@3@XZ 000000018000a510 f i GuAABBTreeBuild.obj
 0001:00009510       ??0MaterialIndicesStruct@physx@@QEAA@W4PxEMPTY@1@@Z 000000018000a510 f i GuGeometryUnion.obj
 0001:00009510       ??0MTDTriangle@@QEAA@XZ    000000018000a510 f i GuSweepMTD.obj
 0001:00009510       ??0HeightFieldData@Gu@physx@@QEAA@W4PxEMPTY@2@@Z 000000018000a510 f i GuBounds.obj
 0001:00009520       ??4HeightFieldData@Gu@physx@@QEAAAEAU012@$$QEAU012@@Z 000000018000a520 f i GuBounds.obj
 0001:00009520       ??0HeightFieldData@Gu@physx@@QEAA@AEBU012@@Z 000000018000a520 f i GuBounds.obj
 0001:00009520       ??4HeightFieldData@Gu@physx@@QEAAAEAU012@AEBU012@@Z 000000018000a520 f i GuBounds.obj
 0001:00009520       ??0HeightFieldData@Gu@physx@@QEAA@$$QEAU012@@Z 000000018000a520 f i GuBounds.obj
 0001:00009580       ??0HeightFieldData@Gu@physx@@QEAA@XZ 000000018000a580 f i GuBounds.obj
 0001:00009590       ??0PxQuat@physx@@QEAA@AEBVPxMat33@1@@Z 000000018000a590 f i GuBounds.obj
 0001:00009790       ??0ShapeData@Gu@physx@@QEAA@AEBVPxGeometry@2@AEBVPxTransform@2@M@Z 000000018000a790 f   GuBounds.obj
 0001:00009d00       ??1PxHeightField@physx@@MEAA@XZ 000000018000ad00 f i GuBounds.obj
 0001:00009d00       ??1PxConvexMesh@physx@@MEAA@XZ 000000018000ad00 f i GuBounds.obj
 0001:00009d10       ??_GPxTriangleMesh@physx@@MEAAPEAXI@Z 000000018000ad10 f i GuTriangleMesh.obj
 0001:00009d10       ??_EPxBase@physx@@MEAAPEAXI@Z 000000018000ad10 f i GuBounds.obj
 0001:00009d10       ??_EPxTriangleMesh@physx@@MEAAPEAXI@Z 000000018000ad10 f i GuTriangleMesh.obj
 0001:00009d10       ??_EPxBVHStructure@physx@@MEAAPEAXI@Z 000000018000ad10 f i GuBVHStructure.obj
 0001:00009d10       ??_GPxBase@physx@@MEAAPEAXI@Z 000000018000ad10 f i GuBounds.obj
 0001:00009d10       ??_GPxBVHStructure@physx@@MEAAPEAXI@Z 000000018000ad10 f i GuBVHStructure.obj
 0001:00009d40       ?computeAABBExtent@Box@Gu@physx@@QEBA?AVPxVec3@3@XZ 000000018000ad40 f i GuBounds.obj
 0001:00009e00       ?computeBounds@Gu@physx@@YAXAEAVPxBounds3@2@AEBVPxGeometry@2@AEBVPxTransform@2@MPEIBVCenterExtentsPadded@12@M@Z 000000018000ae00 f   GuBounds.obj
 0001:0000a6e0       ?computeBoundsWithCCDThreshold@Gu@physx@@YAMAEAVVec3p@12@0AEBVPxGeometry@2@AEBVPxTransform@2@PEIBVCenterExtentsPadded@12@@Z 000000018000b6e0 f   GuBounds.obj
 0001:0000a8b0       ?computeBoxPoints@Box@Gu@physx@@QEBAXPEIAVPxVec3@3@@Z 000000018000b8b0 f i GuBounds.obj
 0001:0000b870       ?getConcreteTypeName@PxConvexMesh@physx@@UEBAPEBDXZ 000000018000c870 f i GuBounds.obj
 0001:0000b880       ?getConcreteTypeName@PxHeightField@physx@@UEBAPEBDXZ 000000018000c880 f i GuBounds.obj
 0001:0000b890       ?getConvexEdgeThreshold@HeightField@Gu@physx@@UEBAMXZ 000000018000c890 f i GuBounds.obj
 0001:0000b8a0       ?getFlags@HeightField@Gu@physx@@UEBA?AV?$PxFlags@W4Enum@PxHeightFieldFlag@physx@@G@3@XZ 000000018000c8a0 f i GuBounds.obj
 0001:0000b8b0       ?getFormat@HeightField@Gu@physx@@UEBA?AW4Enum@PxHeightFieldFormat@3@XZ 000000018000c8b0 f i GuBounds.obj
 0001:0000b8c0       ?getHeight@HeightField@Gu@physx@@UEBAMMM@Z 000000018000c8c0 f i GuBounds.obj
 0001:0000b900       ?getHeightInternal2@HeightField@Gu@physx@@QEBAMIMM@Z 000000018000c900 f i GuBounds.obj
 0001:0000ba70       ?getIndexBuffer@ConvexMesh@Gu@physx@@UEBAPEBEXZ 000000018000ca70 f i GuBounds.obj
 0001:0000bab0       ?getNbPolygons@ConvexMesh@Gu@physx@@UEBAIXZ 000000018000cab0 f i GuBounds.obj
 0001:0000bac0       ?getNbRows@HeightField@Gu@physx@@UEBAIXZ 000000018000cac0 f i GuBounds.obj
 0001:0000bad0       ?getNbVertices@ConvexMesh@Gu@physx@@UEBAIXZ 000000018000cad0 f i GuBounds.obj
 0001:0000bae0       ?getSample@HeightField@Gu@physx@@UEBAAEBUPxHeightFieldSample@3@II@Z 000000018000cae0 f i GuBounds.obj
 0001:0000baf0       ?getSampleStride@HeightField@Gu@physx@@UEBAIXZ 000000018000caf0 f i GuBounds.obj
 0001:0000bb00       ?getTimestamp@HeightField@Gu@physx@@UEBAIXZ 000000018000cb00 f i GuBounds.obj
 0001:0000bb10       ?getTransform@Box@Gu@physx@@QEBA?AVPxTransform@3@XZ 000000018000cb10 f i GuBounds.obj
 0001:0000bb70       ?getTriangleMaterialIndex@HeightField@Gu@physx@@UEBAGI@Z 000000018000cb70 f i GuBounds.obj
 0001:0000bba0       ?getTriangleNormal@HeightField@Gu@physx@@UEBA?AVPxVec3@3@I@Z 000000018000cba0 f i GuBounds.obj
 0001:0000bbc0       ?getTriangleNormalInternal@HeightField@Gu@physx@@QEBA?AVPxVec3@3@I@Z 000000018000cbc0 f i GuBounds.obj
 0001:0000bd10       ?getVertices@ConvexMesh@Gu@physx@@UEBAPEBVPxVec3@3@XZ 000000018000cd10 f i GuBounds.obj
 0001:0000bd30       ?isKindOf@PxBase@physx@@MEBA_NPEBD@Z 000000018000cd30 f i GuBounds.obj
 0001:0000bd60       ?isKindOf@PxConvexMesh@physx@@MEBA_NPEBD@Z 000000018000cd60 f i GuBounds.obj
 0001:0000bdb0       ?isKindOf@PxHeightField@physx@@MEBA_NPEBD@Z 000000018000cdb0 f i GuBounds.obj
 0001:0000be00       ?isReleasable@PxBase@physx@@UEBA_NXZ 000000018000ce00 f i GuBounds.obj
 0001:0000be10       ?isValid@Box@Gu@physx@@QEBA_NXZ 000000018000ce10 f i GuBounds.obj
 0001:0000be30       ?preExportDataReset@ConvexMesh@Gu@physx@@QEAAXXZ 000000018000ce30 f i GuBounds.obj
 0001:0000be30       ?preExportDataReset@HeightField@Gu@physx@@QEAAXXZ 000000018000ce30 f i GuBounds.obj
 0001:0000be40       ?rotate@Box@Gu@physx@@QEBA?AVPxVec3@3@AEBV43@@Z 000000018000ce40 f i GuBounds.obj
 0001:0000bed0       ?rotateInv@Box@Gu@physx@@QEBA?AVPxVec3@3@AEBV43@@Z 000000018000ced0 f i GuBounds.obj
 0001:0000bf60       ?setAxes@Box@Gu@physx@@QEAAXAEBVPxVec3@3@00@Z 000000018000cf60 f i GuBounds.obj
 0001:0000bfa0       ?setEmpty@Box@Gu@physx@@QEAAXXZ 000000018000cfa0 f i GuBounds.obj
 0001:0000bfe0       ?transform@Box@Gu@physx@@QEBA?AVPxVec3@3@AEBV43@@Z 000000018000cfe0 f i GuBounds.obj
 0001:0000c080       ?computeOBBPoints@Gu@physx@@YAXPEIAVPxVec3@2@AEBV32@1111@Z 000000018000d080 f   GuBox.obj
 0001:0000c300       ?create@Box@Gu@physx@@QEAAXAEBVCapsule@23@@Z 000000018000d300 f   GuBox.obj
 0001:0000c530       ?getBoxEdges@Gu@physx@@YAPEBEXZ 000000018000d530 f   GuBox.obj
 0001:0000c540       ?computeBasis@shdfnd@physx@@YAXAEBVPxVec3@2@0AEAV32@11@Z 000000018000d540 f i GuCapsule.obj
 0001:0000c6e0       ?computeBoxAroundCapsule@Gu@physx@@YAXAEBVCapsule@12@AEAVBox@12@@Z 000000018000d6e0 f   GuCapsule.obj
 0001:0000c830       ??0HeightFieldTraceUtil@Gu@physx@@QEAA@AEBVPxHeightFieldGeometry@2@@Z 000000018000d830 f i GuCCTSweepTests.obj
 0001:0000c830       ??0HeightFieldUtil@Gu@physx@@QEAA@AEBVPxHeightFieldGeometry@2@@Z 000000018000d830 f i GuCCTSweepTests.obj
 0001:0000c870       ??1PCMCapsuleVsHeightfieldContactGenerationCallback@physx@@UEAA@XZ 000000018000d870 f i GuPCMContactCapsuleHeightField.obj
 0001:0000c870       ??1?$PCMHeightfieldContactGenerationCallback@UPCMSphereVsHeightfieldContactGenerationCallback@physx@@@Gu@physx@@UEAA@XZ 000000018000d870 f i GuPCMContactSphereHeightField.obj
 0001:0000c870       ??1CapsuleTraceSegmentReport@@UEAA@XZ 000000018000d870 f i GuSweepsHF.obj
 0001:0000c870       ??1PCMConvexVsHeightfieldContactGenerationCallback@physx@@UEAA@XZ 000000018000d870 f i GuPCMContactConvexHeightField.obj
 0001:0000c870       ??1BoxTraceSegmentReport@@UEAA@XZ 000000018000d870 f i GuSweepsHF.obj
 0001:0000c870       ??1ConvexTraceSegmentReport@@UEAA@XZ 000000018000d870 f i GuSweepsHF.obj
 0001:0000c870       ??1?$EntityReport@I@Gu@physx@@UEAA@XZ 000000018000d870 f i GuCCTSweepTests.obj
 0001:0000c870       ??1MidPhaseQueryLocalReport@@UEAA@XZ 000000018000d870 f i GuSweepMTD.obj
 0001:0000c880       ??4HeightFieldUtil@Gu@physx@@QEAAAEAV012@AEBV012@@Z 000000018000d880 f i GuCCTSweepTests.obj
 0001:0000c880       ??4HeightFieldTraceUtil@Gu@physx@@QEAAAEAV012@$$QEAV012@@Z 000000018000d880 f i GuCCTSweepTests.obj
 0001:0000c880       ??4HeightFieldTraceUtil@Gu@physx@@QEAAAEAV012@AEBV012@@Z 000000018000d880 f i GuCCTSweepTests.obj
 0001:0000c8a0       ??4HeightFieldUtil@Gu@physx@@QEAAAEAV012@$$QEAV012@@Z 000000018000d8a0 f i GuCCTSweepTests.obj
 0001:0000c8d0       ??_E?$EntityReport@I@Gu@physx@@UEAAPEAXI@Z 000000018000d8d0 f i GuCCTSweepTests.obj
 0001:0000c8d0       ??_G?$EntityReport@I@Gu@physx@@UEAAPEAXI@Z 000000018000d8d0 f i GuCCTSweepTests.obj
 0001:0000c930       ?ceilUp@HeightFieldTraceUtil@Gu@physx@@SAMM@Z 000000018000d930 f i GuCCTSweepTests.obj
 0001:0000c970       ?computePointNormal@HeightFieldUtil@Gu@physx@@QEBA?AVPxVec3@3@IAEBV43@AEBVPxTransform@3@MMMMAEAM@Z 000000018000d970 f i GuCCTSweepTests.obj
 0001:0000cd90       ?floorDown@HeightFieldTraceUtil@Gu@physx@@SAMM@Z 000000018000dd90 f i GuCCTSweepTests.obj
 0001:0000cdd0       ?getFeatureIndex@HeightFieldUtil@Gu@physx@@SAII@Z 000000018000ddd0 f i GuCCTSweepTests.obj
 0001:0000cde0       ?getFeatureType@HeightFieldUtil@Gu@physx@@SA?AW4Feature@123@I@Z 000000018000dde0 f i GuCCTSweepTests.obj
 0001:0000cdf0       ?getHeightAtShapePoint@HeightFieldUtil@Gu@physx@@QEBAMMM@Z 000000018000ddf0 f i GuCCTSweepTests.obj
 0001:0000ce50       ?getNormalAtShapePoint@HeightFieldUtil@Gu@physx@@QEBA?AVPxVec3@3@MM@Z 000000018000de50 f i GuCCTSweepTests.obj
 0001:0000cf10       ?getNormal_2@HeightField@Gu@physx@@QEBA?AVPxVec3@3@IMMMMM@Z 000000018000df10 f i GuCCTSweepTests.obj
 0001:0000d030       ?getOneOverColumnScale@HeightFieldUtil@Gu@physx@@QEBAMXZ 000000018000e030 f i GuCCTSweepTests.obj
 0001:0000d040       ?getOneOverHeightScale@HeightFieldUtil@Gu@physx@@QEBAMXZ 000000018000e040 f i GuCCTSweepTests.obj
 0001:0000d050       ?getOneOverRowScale@HeightFieldUtil@Gu@physx@@QEBAMXZ 000000018000e050 f i GuCCTSweepTests.obj
 0001:0000d060       ?getVertexNormal@HeightFieldUtil@Gu@physx@@QEBA?AVPxVec3@3@I@Z 000000018000e060 f i GuCCTSweepTests.obj
 0001:0000d0a0       ?shape2hfp@HeightFieldUtil@Gu@physx@@QEBA?AVPxVec3@3@AEBV43@@Z 000000018000e0a0 f i GuCCTSweepTests.obj
 0001:0000d0a0       ?hf2shapen@HeightFieldUtil@Gu@physx@@QEBA?AVPxVec3@3@AEBV43@@Z 000000018000e0a0 f i GuCCTSweepTests.obj
 0001:0000d0e0       ?hf2shapep@HeightFieldUtil@Gu@physx@@QEBA?AVPxVec3@3@AEBV43@@Z 000000018000e0e0 f i GuCCTSweepTests.obj
 0001:0000d120       ?hf2worldn@HeightFieldUtil@Gu@physx@@QEBA?AVPxVec3@3@AEBVPxTransform@3@AEBV43@@Z 000000018000e120 f i GuCCTSweepTests.obj
 0001:0000d290       ?hf2worldp@HeightFieldUtil@Gu@physx@@QEBA?AVPxVec3@3@AEBVPxTransform@3@AEBV43@@Z 000000018000e290 f i GuCCTSweepTests.obj
 0001:0000d410       ?isCollisionVertex@HeightFieldUtil@Gu@physx@@QEBA_NIII@Z 000000018000e410 f i GuCCTSweepTests.obj
 0001:0000d430       ?isQueryVertex@HeightFieldUtil@Gu@physx@@QEBA_NIII@Z 000000018000e430 f i GuCCTSweepTests.obj
 0001:0000d4f0       ?isShapePointOnHeightField@HeightFieldUtil@Gu@physx@@QEBA_NMM@Z 000000018000e4f0 f i GuCCTSweepTests.obj
 0001:0000d540       ?makeFeatureCode@HeightFieldUtil@Gu@physx@@SAIIW4Feature@123@@Z 000000018000e540 f i GuCCTSweepTests.obj
 0001:0000d720       ?sweepBoxTriangles_Precise@Gu@physx@@YA_NIPEBVPxTriangle@2@_NAEBVPxBoxGeometry@2@AEBVPxTransform@2@AEBVPxVec3@2@MAEAUPxSweepHit@2@PEBIMV?$PxFlags@W4Enum@PxHitFlag@physx@@G@2@@Z 000000018000e720 f   GuCCTSweepTests.obj
 0001:0000e4f0       ?sweepBox_BoxGeom_Precise@@YA_NAEBVPxGeometry@physx@@AEBVPxTransform@2@AEBVPxBoxGeometry@2@1AEBVBox@Gu@2@AEBVPxVec3@2@MAEAUPxSweepHit@2@V?$PxFlags@W4Enum@PxHitFlag@physx@@G@2@M@Z 000000018000f4f0 f   GuCCTSweepTests.obj
 0001:0000e6b0       ?sweepBox_CapsuleGeom_Precise@@YA_NAEBVPxGeometry@physx@@AEBVPxTransform@2@AEBVPxBoxGeometry@2@1AEBVBox@Gu@2@AEBVPxVec3@2@MAEAUPxSweepHit@2@V?$PxFlags@W4Enum@PxHitFlag@physx@@G@2@M@Z 000000018000f6b0 f   GuCCTSweepTests.obj
 0001:0000ea80       ?sweepBox_HeightFieldGeom_Precise@@YA_NAEBVPxGeometry@physx@@AEBVPxTransform@2@AEBVPxBoxGeometry@2@1AEBVBox@Gu@2@AEBVPxVec3@2@MAEAUPxSweepHit@2@V?$PxFlags@W4Enum@PxHitFlag@physx@@G@2@M@Z 000000018000fa80 f   GuCCTSweepTests.obj
 0001:0000ee60       ?sweepBox_SphereGeom_Precise@@YA_NAEBVPxGeometry@physx@@AEBVPxTransform@2@AEBVPxBoxGeometry@2@1AEBVBox@Gu@2@AEBVPxVec3@2@MAEAUPxSweepHit@2@V?$PxFlags@W4Enum@PxHitFlag@physx@@G@2@M@Z 000000018000fe60 f   GuCCTSweepTests.obj
 0001:0000f130       ?sweepCapsule_BoxGeom_Precise@@YA_NAEBVPxGeometry@physx@@AEBVPxTransform@2@AEBVPxCapsuleGeometry@2@1AEBVCapsule@Gu@2@AEBVPxVec3@2@MAEAUPxSweepHit@2@V?$PxFlags@W4Enum@PxHitFlag@physx@@G@2@M@Z 0000000180010130 f   GuCCTSweepTests.obj
 0001:0000f790       ??1SIMDGuard@shdfnd@physx@@QEAA@XZ 0000000180010790 f i GuGeometryQuery.obj
 0001:0000f7a0       ?computePenetration@PxGeometryQuery@physx@@SA_NAEAVPxVec3@2@AEAMAEBVPxGeometry@2@AEBVPxTransform@2@23@Z 00000001800107a0 f   GuGeometryQuery.obj
 0001:0000f880       ?getWorldBounds@PxGeometryQuery@physx@@SA?AVPxBounds3@2@AEBVPxGeometry@2@AEBVPxTransform@2@M@Z 0000000180010880 f   GuGeometryQuery.obj
 0001:0000f8f0       ?isFinite@PxQuat@physx@@QEBA_NXZ 00000001800108f0 f i GuGeometryQuery.obj
 0001:0000f960       ?isValid@PxGeometryQuery@physx@@SA_NAEBVPxGeometry@2@@Z 0000000180010960 f   GuGeometryQuery.obj
 0001:0000fb60       ?overlap@PxGeometryQuery@physx@@SA_NAEBVPxGeometry@2@AEBVPxTransform@2@01@Z 0000000180010b60 f   GuGeometryQuery.obj
 0001:0000fc10       ?pointDistance@PxGeometryQuery@physx@@SAMAEBVPxVec3@2@AEBVPxGeometry@2@AEBVPxTransform@2@PEAV32@@Z 0000000180010c10 f   GuGeometryQuery.obj
 0001:00010300       ?raycast@PxGeometryQuery@physx@@SAIAEBVPxVec3@2@0AEBVPxGeometry@2@AEBVPxTransform@2@MV?$PxFlags@W4Enum@PxHitFlag@physx@@G@2@IPEIAUPxRaycastHit@2@@Z 0000000180011300 f   GuGeometryQuery.obj
 0001:000103b0       ?sweep@PxGeometryQuery@physx@@SA_NAEBVPxVec3@2@MAEBVPxGeometry@2@AEBVPxTransform@2@12AEAUPxSweepHit@2@V?$PxFlags@W4Enum@PxHitFlag@physx@@G@2@M@Z 00000001800113b0 f   GuGeometryQuery.obj
 0001:00010810       ??0GeometryUnion@Gu@physx@@QEAA@AEBVPxGeometry@2@@Z 0000000180011810 f i GuGeometryUnion.obj
 0001:00010830       ??0GeometryUnion@Gu@physx@@QEAA@XZ 0000000180011830 f i GuGeometryUnion.obj
 0001:00010840       ??0MaterialIndicesStruct@physx@@QEAA@XZ 0000000180011840 f i GuGeometryUnion.obj
 0001:00010860       ??4GeometryUnion@Gu@physx@@QEAAAEAV012@AEBV012@@Z 0000000180011860 f i GuGeometryUnion.obj
 0001:00010860       ??4GeometryUnion@Gu@physx@@QEAAAEAV012@$$QEAV012@@Z 0000000180011860 f i GuGeometryUnion.obj
 0001:00010890       ?allocate@MaterialIndicesStruct@physx@@QEAAXG@Z 0000000180011890 f i GuGeometryUnion.obj
 0001:00010910       ?deallocate@MaterialIndicesStruct@physx@@QEAAXXZ 0000000180011910 f i GuGeometryUnion.obj
 0001:00010960       ?getCount@BuildStats@Gu@physx@@QEBAIXZ 0000000180011960 f i GuAABBTreeBuild.obj
 0001:00010960       ?getType@GeometryUnion@Gu@physx@@QEBA?AW4Enum@PxGeometryType@3@XZ 0000000180011960 f i GuGeometryUnion.obj
 0001:00010960       ?getNumAxes@SeparatingAxes@Gu@physx@@QEBAIXZ 0000000180011960 f i GuMTD.obj
 0001:00010970       ?set@GeometryUnion@Gu@physx@@QEAAXAEBVPxGeometry@3@@Z 0000000180011970 f   GuGeometryUnion.obj
 0001:00010b40       ?computeBoundsAroundVertices@Gu@physx@@YAXAEAVPxBounds3@2@IPEIBVPxVec3@2@@Z 0000000180011b40 f   GuInternal.obj
 0001:00010bf0       ?computeBoxPoints@Gu@physx@@YAXAEBVPxBounds3@2@PEIAVPxVec3@2@@Z 0000000180011bf0 f   GuInternal.obj
 0001:00010c90       ?computeSweptBox@Gu@physx@@YAXAEAVBox@12@AEBVPxVec3@2@1AEBVPxMat33@2@1M@Z 0000000180011c90 f   GuInternal.obj
 0001:000111f0       ?getPlane@Gu@physx@@YA?AVPxPlane@2@AEBVPxTransform@2@@Z 00000001800121f0 f   GuInternal.obj
 0001:000112a0       ??$?_UI@@YAPEAX_KV?$ReflectionAllocator@I@shdfnd@physx@@PEBDH@Z 00000001800122a0 f i GuMeshFactory.obj
 0001:00011340       ??0GuMeshFactory@physx@@QEAA@XZ 0000000180012340 f   GuMeshFactory.obj
 0001:000114e0       ??1?$MutexT@V?$ReflectionAllocator@VMutexImpl@shdfnd@physx@@@shdfnd@physx@@@shdfnd@physx@@QEAA@XZ 00000001800124e0 f i GuMeshFactory.obj
 0001:00011520       ??1GuMeshFactory@physx@@MEAA@XZ 0000000180012520 f   GuMeshFactory.obj
 0001:00011620       ??1MeshDataBase@Gu@physx@@UEAA@XZ 0000000180012620 f i GuMeshFactory.obj
 0001:00011710       ??1ScopedLock@?$MutexT@V?$ReflectionAllocator@VMutexImpl@shdfnd@physx@@@shdfnd@physx@@@shdfnd@physx@@QEAA@XZ 0000000180012710 f i GuMeshFactory.obj
 0001:00011730       ??1TriangleMeshData@Gu@physx@@UEAA@XZ 0000000180012730 f i GuMeshFactory.obj
 0001:00011800       ??_EGuMeshFactory@physx@@MEAAPEAXI@Z 0000000180012800 f i GuMeshFactory.obj
 0001:000118d0       ??_GBV4TriangleData@Gu@physx@@UEAAPEAXI@Z 00000001800128d0 f i GuMeshFactory.obj
 0001:000118d0       ??_EBV4TriangleData@Gu@physx@@UEAAPEAXI@Z 00000001800128d0 f i GuMeshFactory.obj
 0001:00011960       ??_GMeshDataBase@Gu@physx@@UEAAPEAXI@Z 0000000180012960 f i GuMeshFactory.obj
 0001:00011960       ??_EMeshDataBase@Gu@physx@@UEAAPEAXI@Z 0000000180012960 f i GuMeshFactory.obj
 0001:000119d0       ??_GRTreeTriangleData@Gu@physx@@UEAAPEAXI@Z 00000001800129d0 f i GuMeshFactory.obj
 0001:000119d0       ??_ERTreeTriangleData@Gu@physx@@UEAAPEAXI@Z 00000001800129d0 f i GuMeshFactory.obj
 0001:00011a90       ??_GTriangleMeshData@Gu@physx@@UEAAPEAXI@Z 0000000180012a90 f i GuMeshFactory.obj
 0001:00011a90       ??_ETriangleMeshData@Gu@physx@@UEAAPEAXI@Z 0000000180012a90 f i GuMeshFactory.obj
 0001:00011b00       ?__global_array_delete@@YAXPEAX_K@Z 0000000180012b00 f i GuMeshFactory.obj
 0001:00011b10       ?__global_delete@@YAXPEAX_K@Z 0000000180012b10 f i GuMeshFactory.obj
 0001:00011b20       ?addBVHStructure@GuMeshFactory@physx@@QEAAXPEAVBVHStructure@Gu@2@_N@Z 0000000180012b20 f   GuMeshFactory.obj
 0001:00011ba0       ?addConvexMesh@GuMeshFactory@physx@@QEAAXPEAVConvexMesh@Gu@2@_N@Z 0000000180012ba0 f   GuMeshFactory.obj
 0001:00011c20       ?addFactoryListener@GuMeshFactory@physx@@QEAAXAEAVGuMeshFactoryListener@2@@Z 0000000180012c20 f   GuMeshFactory.obj
 0001:00011ca0       ?addHeightField@GuMeshFactory@physx@@QEAAXPEAVHeightField@Gu@2@_N@Z 0000000180012ca0 f   GuMeshFactory.obj
 0001:00011d20       ?addTriangleMesh@GuMeshFactory@physx@@QEAAXPEAVTriangleMesh@Gu@2@_N@Z 0000000180012d20 f   GuMeshFactory.obj
 0001:00011da0       ?create@?$HashBase@PEAVConvexMesh@Gu@physx@@PEAV123@U?$Hash@PEAVConvexMesh@Gu@physx@@@shdfnd@3@UGetKey@?$HashSetBase@PEAVConvexMesh@Gu@physx@@U?$Hash@PEAVConvexMesh@Gu@physx@@@shdfnd@3@VNonTrackingAllocator@53@$00@internal@53@VNonTrackingAllocator@53@$00@internal@shdfnd@physx@@QEAAPEAPEAVConvexMesh@Gu@4@AEBQEAV564@AEA_N@Z 0000000180012da0 f i GuMeshFactory.obj
 0001:00011da0       ?create@?$HashBase@PEAVTriangleMesh@Gu@physx@@PEAV123@U?$Hash@PEAVTriangleMesh@Gu@physx@@@shdfnd@3@UGetKey@?$HashSetBase@PEAVTriangleMesh@Gu@physx@@U?$Hash@PEAVTriangleMesh@Gu@physx@@@shdfnd@3@VNonTrackingAllocator@53@$00@internal@53@VNonTrackingAllocator@53@$00@internal@shdfnd@physx@@QEAAPEAPEAVTriangleMesh@Gu@4@AEBQEAV564@AEA_N@Z 0000000180012da0 f i GuMeshFactory.obj
 0001:00011da0       ?create@?$HashBase@PEAVHeightField@Gu@physx@@PEAV123@U?$Hash@PEAVHeightField@Gu@physx@@@shdfnd@3@UGetKey@?$HashSetBase@PEAVHeightField@Gu@physx@@U?$Hash@PEAVHeightField@Gu@physx@@@shdfnd@3@VNonTrackingAllocator@53@$00@internal@53@VNonTrackingAllocator@53@$00@internal@shdfnd@physx@@QEAAPEAPEAVHeightField@Gu@4@AEBQEAV564@AEA_N@Z 0000000180012da0 f i GuMeshFactory.obj
 0001:00011da0       ?create@?$HashBase@PEAVBVHStructure@Gu@physx@@PEAV123@U?$Hash@PEAVBVHStructure@Gu@physx@@@shdfnd@3@UGetKey@?$HashSetBase@PEAVBVHStructure@Gu@physx@@U?$Hash@PEAVBVHStructure@Gu@physx@@@shdfnd@3@VNonTrackingAllocator@53@$00@internal@53@VNonTrackingAllocator@53@$00@internal@shdfnd@physx@@QEAAPEAPEAVBVHStructure@Gu@4@AEBQEAV564@AEA_N@Z 0000000180012da0 f i GuMeshFactory.obj
 0001:00011f30       ?createBVHStructure@GuMeshFactory@physx@@IEAAPEAVPxBVHStructure@2@AEAUBVHStructureData@Gu@2@@Z 0000000180012f30 f   GuMeshFactory.obj
 0001:00012030       ?createBVHStructure@GuMeshFactory@physx@@QEAAPEAVPxBVHStructure@2@AEAVPxInputStream@2@@Z 0000000180013030 f   GuMeshFactory.obj
 0001:00012160       ?createBVHStructure@GuMeshFactory@physx@@QEAAPEAVPxBVHStructure@2@PEAX@Z 0000000180013160 f   GuMeshFactory.obj
 0001:00012170       ?createConvexMesh@GuMeshFactory@physx@@IEAAPEAVPxConvexMesh@2@AEAUConvexHullInitData@Gu@2@@Z 0000000180013170 f   GuMeshFactory.obj
 0001:00012270       ?createConvexMesh@GuMeshFactory@physx@@QEAAPEAVPxConvexMesh@2@AEAVPxInputStream@2@@Z 0000000180013270 f   GuMeshFactory.obj
 0001:000123a0       ?createConvexMesh@GuMeshFactory@physx@@QEAAPEAVPxConvexMesh@2@PEAX@Z 00000001800133a0 f   GuMeshFactory.obj
 0001:000123b0       ?createHeightField@GuMeshFactory@physx@@QEAAPEAVPxHeightField@2@AEAVPxInputStream@2@@Z 00000001800133b0 f   GuMeshFactory.obj
 0001:000124e0       ?createHeightField@GuMeshFactory@physx@@QEAAPEAVPxHeightField@2@PEAX@Z 00000001800134e0 f   GuMeshFactory.obj
 0001:000125e0       ?createTriangleMesh@GuMeshFactory@physx@@IEAAPEAVPxTriangleMesh@2@AEAVTriangleMeshData@Gu@2@@Z 00000001800135e0 f   GuMeshFactory.obj
 0001:00012770       ?createTriangleMesh@GuMeshFactory@physx@@QEAAPEAVPxTriangleMesh@2@AEAVPxInputStream@2@@Z 0000000180013770 f   GuMeshFactory.obj
 0001:000127d0       ?createTriangleMesh@GuMeshFactory@physx@@QEAAPEAVPxTriangleMesh@2@PEAX@Z 00000001800137d0 f   GuMeshFactory.obj
 0001:000127e0       ?erase@?$HashBase@PEAVConvexMesh@Gu@physx@@PEAV123@U?$Hash@PEAVConvexMesh@Gu@physx@@@shdfnd@3@UGetKey@?$HashSetBase@PEAVConvexMesh@Gu@physx@@U?$Hash@PEAVConvexMesh@Gu@physx@@@shdfnd@3@VNonTrackingAllocator@53@$00@internal@53@VNonTrackingAllocator@53@$00@internal@shdfnd@physx@@QEAA_NAEBQEAVConvexMesh@Gu@4@@Z 00000001800137e0 f i GuMeshFactory.obj
 0001:000127e0       ?erase@?$HashBase@PEAVTriangleMesh@Gu@physx@@PEAV123@U?$Hash@PEAVTriangleMesh@Gu@physx@@@shdfnd@3@UGetKey@?$HashSetBase@PEAVTriangleMesh@Gu@physx@@U?$Hash@PEAVTriangleMesh@Gu@physx@@@shdfnd@3@VNonTrackingAllocator@53@$00@internal@53@VNonTrackingAllocator@53@$00@internal@shdfnd@physx@@QEAA_NAEBQEAVTriangleMesh@Gu@4@@Z 00000001800137e0 f i GuMeshFactory.obj
 0001:000127e0       ?erase@?$HashBase@PEAVHeightField@Gu@physx@@PEAV123@U?$Hash@PEAVHeightField@Gu@physx@@@shdfnd@3@UGetKey@?$HashSetBase@PEAVHeightField@Gu@physx@@U?$Hash@PEAVHeightField@Gu@physx@@@shdfnd@3@VNonTrackingAllocator@53@$00@internal@53@VNonTrackingAllocator@53@$00@internal@shdfnd@physx@@QEAA_NAEBQEAVHeightField@Gu@4@@Z 00000001800137e0 f i GuMeshFactory.obj
 0001:000127e0       ?erase@?$HashBase@PEAVBVHStructure@Gu@physx@@PEAV123@U?$Hash@PEAVBVHStructure@Gu@physx@@@shdfnd@3@UGetKey@?$HashSetBase@PEAVBVHStructure@Gu@physx@@U?$Hash@PEAVBVHStructure@Gu@physx@@@shdfnd@3@VNonTrackingAllocator@53@$00@internal@53@VNonTrackingAllocator@53@$00@internal@shdfnd@physx@@QEAA_NAEBQEAVBVHStructure@Gu@4@@Z 00000001800137e0 f i GuMeshFactory.obj
 0001:00012960       ?getBVHStructures@GuMeshFactory@physx@@QEBAIPEAPEAVPxBVHStructure@2@II@Z 0000000180013960 f   GuMeshFactory.obj
 0001:00012a00       ?getConvexMeshes@GuMeshFactory@physx@@QEBAIPEAPEAVPxConvexMesh@2@II@Z 0000000180013a00 f   GuMeshFactory.obj
 0001:00012a90       ?getHeightFields@GuMeshFactory@physx@@QEBAIPEAPEAVPxHeightField@2@II@Z 0000000180013a90 f   GuMeshFactory.obj
 0001:00012b30       ?getNbBVHStructures@GuMeshFactory@physx@@QEBAIXZ 0000000180013b30 f   GuMeshFactory.obj
 0001:00012b70       ?getNbConvexMeshes@GuMeshFactory@physx@@QEBAIXZ 0000000180013b70 f   GuMeshFactory.obj
 0001:00012bb0       ?getNbHeightFields@GuMeshFactory@physx@@QEBAIXZ 0000000180013bb0 f   GuMeshFactory.obj
 0001:00012bf0       ?getNbTriangleMeshes@GuMeshFactory@physx@@QEBAIXZ 0000000180013bf0 f   GuMeshFactory.obj
 0001:00012c30       ?getTriangleMeshes@GuMeshFactory@physx@@QEBAIPEAPEAVPxTriangleMesh@2@II@Z 0000000180013c30 f   GuMeshFactory.obj
 0001:00012cc0       ?growAndPushBack@?$Array@PEAVGuMeshFactoryListener@physx@@V?$ReflectionAllocator@PEAVGuMeshFactoryListener@physx@@@shdfnd@2@@shdfnd@physx@@IEAAAEAPEAVGuMeshFactoryListener@3@AEBQEAV43@@Z 0000000180013cc0 f i GuMeshFactory.obj
 0001:00013c80       ?notifyFactoryListener@GuMeshFactory@physx@@QEAAXPEBVPxBase@2@G@Z 0000000180014c80 f   GuMeshFactory.obj
 0001:00013cf0       ?release@GuMeshFactory@physx@@QEAAXXZ 0000000180014cf0 f   GuMeshFactory.obj
 0001:00013da0       ?removeBVHStructure@GuMeshFactory@physx@@QEAA_NAEAVPxBVHStructure@2@@Z 0000000180014da0 f   GuMeshFactory.obj
 0001:00013df0       ?removeConvexMesh@GuMeshFactory@physx@@QEAA_NAEAVPxConvexMesh@2@@Z 0000000180014df0 f   GuMeshFactory.obj
 0001:00013e40       ?removeFactoryListener@GuMeshFactory@physx@@QEAAXAEAVGuMeshFactoryListener@2@@Z 0000000180014e40 f   GuMeshFactory.obj
 0001:00013ed0       ?removeHeightField@GuMeshFactory@physx@@QEAA_NAEAVPxHeightField@2@@Z 0000000180014ed0 f   GuMeshFactory.obj
 0001:00013f20       ?removeTriangleMesh@GuMeshFactory@physx@@QEAA_NAEAVPxTriangleMesh@2@@Z 0000000180014f20 f   GuMeshFactory.obj
 0001:00013f70       ?reserveInternal@?$HashBase@PEAVHeightField@Gu@physx@@PEAV123@U?$Hash@PEAVHeightField@Gu@physx@@@shdfnd@3@UGetKey@?$HashSetBase@PEAVHeightField@Gu@physx@@U?$Hash@PEAVHeightField@Gu@physx@@@shdfnd@3@VNonTrackingAllocator@53@$00@internal@53@VNonTrackingAllocator@53@$00@internal@shdfnd@physx@@AEAAXI@Z 0000000180014f70 f i GuMeshFactory.obj
 0001:00013f70       ?reserveInternal@?$HashBase@PEAVTriangleMesh@Gu@physx@@PEAV123@U?$Hash@PEAVTriangleMesh@Gu@physx@@@shdfnd@3@UGetKey@?$HashSetBase@PEAVTriangleMesh@Gu@physx@@U?$Hash@PEAVTriangleMesh@Gu@physx@@@shdfnd@3@VNonTrackingAllocator@53@$00@internal@53@VNonTrackingAllocator@53@$00@internal@shdfnd@physx@@AEAAXI@Z 0000000180014f70 f i GuMeshFactory.obj
 0001:00013f70       ?reserveInternal@?$HashBase@PEAVBVHStructure@Gu@physx@@PEAV123@U?$Hash@PEAVBVHStructure@Gu@physx@@@shdfnd@3@UGetKey@?$HashSetBase@PEAVBVHStructure@Gu@physx@@U?$Hash@PEAVBVHStructure@Gu@physx@@@shdfnd@3@VNonTrackingAllocator@53@$00@internal@53@VNonTrackingAllocator@53@$00@internal@shdfnd@physx@@AEAAXI@Z 0000000180014f70 f i GuMeshFactory.obj
 0001:00013f70       ?reserveInternal@?$HashBase@PEAVConvexMesh@Gu@physx@@PEAV123@U?$Hash@PEAVConvexMesh@Gu@physx@@@shdfnd@3@UGetKey@?$HashSetBase@PEAVConvexMesh@Gu@physx@@U?$Hash@PEAVConvexMesh@Gu@physx@@@shdfnd@3@VNonTrackingAllocator@53@$00@internal@53@VNonTrackingAllocator@53@$00@internal@shdfnd@physx@@AEAAXI@Z 0000000180014f70 f i GuMeshFactory.obj
 0001:00014140       ??4BigConvexData@physx@@QEAAAEAV01@AEBV01@@Z 0000000180015140 f i GuMetaData.obj
 0001:00014160       ?GetAdjacentVerts@BigConvexData@physx@@QEBAPEBEXZ 0000000180015160 f i GuMetaData.obj
 0001:00014170       ?GetValency@BigConvexData@physx@@QEBAGI@Z 0000000180015170 f i GuMetaData.obj
 0001:00014170       ?GetNbNeighbors@BigConvexData@physx@@QEBAGI@Z 0000000180015170 f i GuMetaData.obj
 0001:00014180       ?GetNbSamples@BigConvexData@physx@@QEBAIXZ 0000000180015180 f i GuMetaData.obj
 0001:00014190       ?GetNbVerts@BigConvexData@physx@@QEBAIXZ 0000000180015190 f i GuMetaData.obj
 0001:000141a0       ?GetNeighbors@BigConvexData@physx@@QEBAPEBEI@Z 00000001800151a0 f i GuMetaData.obj
 0001:000141b0       ?GetOffset@BigConvexData@physx@@QEBAGI@Z 00000001800151b0 f i GuMetaData.obj
 0001:000141c0       ?GetSubdiv@BigConvexData@physx@@QEBAIXZ 00000001800151c0 f i GuMetaData.obj
 0001:000141d0       ?getBinaryMetaData@BV4Tree@Gu@physx@@SAXAEAVPxOutputStream@3@@Z 00000001800151d0 f   GuMetaData.obj
 0001:00014560       ?getBinaryMetaData@BV4TriangleMesh@Gu@physx@@SAXAEAVPxOutputStream@3@@Z 0000000180015560 f   GuMetaData.obj
 0001:00014840       ?getBinaryMetaData@BigConvexData@physx@@SAXAEAVPxOutputStream@2@@Z 0000000180015840 f   GuMetaData.obj
 0001:00014b00       ?getBinaryMetaData@ConvexMesh@Gu@physx@@SAXAEAVPxOutputStream@3@@Z 0000000180015b00 f   GuMetaData.obj
 0001:00015190       ?getBinaryMetaData@GeometryUnion@Gu@physx@@SAXAEAVPxOutputStream@3@@Z 0000000180016190 f   GuMetaData.obj
 0001:000157e0       ?getBinaryMetaData@HeightField@Gu@physx@@SAXAEAVPxOutputStream@3@@Z 00000001800167e0 f   GuMetaData.obj
 0001:00015c10       ?getBinaryMetaData@MaterialIndicesStruct@physx@@SAXAEAVPxOutputStream@2@@Z 0000000180016c10 f   GuMetaData.obj
 0001:00015db0       ?getBinaryMetaData@RTree@Gu@physx@@SAXAEAVPxOutputStream@3@@Z 0000000180016db0 f   GuMetaData.obj
 0001:000160e0       ?getBinaryMetaData@RTreeTriangleMesh@Gu@physx@@SAXAEAVPxOutputStream@3@@Z 00000001800170e0 f   GuMetaData.obj
 0001:00016980       ?getBinaryMetaData@TriangleMesh@Gu@physx@@SAXAEAVPxOutputStream@3@@Z 0000000180017980 f   GuMetaData.obj
 0001:00017df0       ?doSupport@?$SupportLocalImpl@VBoxV@Gu@physx@@@Gu@physx@@UEBA?AT__m128@@AEBT4@@Z 0000000180018df0 f i GuMTD.obj
 0001:00017e20       ?doSupport@?$SupportLocalImpl@VBoxV@Gu@physx@@@Gu@physx@@UEBAXAEBT__m128@@AEAT4@1@Z 0000000180018e20 f i GuMTD.obj
 0001:00017e70       ?populateVerts@?$SupportLocalImpl@VBoxV@Gu@physx@@@Gu@physx@@UEBAXPEBEIPEBVPxVec3@3@PEAT__m128@@@Z 0000000180018e70 f i GuMTD.obj
 0001:00017e70       ?populateVerts@?$SupportLocalImpl@VConvexHullNoScaleV@Gu@physx@@@Gu@physx@@UEBAXPEBEIPEBVPxVec3@3@PEAT__m128@@@Z 0000000180018e70 f i GuMTD.obj
 0001:00017eb0       ??_E?$SupportLocalImpl@VConvexHullV@Gu@physx@@@Gu@physx@@UEAAPEAXI@Z 0000000180018eb0 f i GuMTD.obj
 0001:00017eb0       ??_G?$SupportLocalImpl@VTriangleV@Gu@physx@@@Gu@physx@@UEAAPEAXI@Z 0000000180018eb0 f i GuPCMContactConvexCommon.obj
 0001:00017eb0       ??_E?$SupportLocalImpl@VBoxV@Gu@physx@@@Gu@physx@@UEAAPEAXI@Z 0000000180018eb0 f i GuMTD.obj
 0001:00017eb0       ??_G?$SupportLocalImpl@VConvexHullNoScaleV@Gu@physx@@@Gu@physx@@UEAAPEAXI@Z 0000000180018eb0 f i GuMTD.obj
 0001:00017eb0       ??_G?$SupportLocalImpl@VConvexHullV@Gu@physx@@@Gu@physx@@UEAAPEAXI@Z 0000000180018eb0 f i GuMTD.obj
 0001:00017eb0       ??_E?$SupportLocalImpl@VConvexHullNoScaleV@Gu@physx@@@Gu@physx@@UEAAPEAXI@Z 0000000180018eb0 f i GuMTD.obj
 0001:00017eb0       ??_G?$SupportLocalImpl@VBoxV@Gu@physx@@@Gu@physx@@UEAAPEAXI@Z 0000000180018eb0 f i GuMTD.obj
 0001:00017eb0       ??_E?$SupportLocalImpl@VTriangleV@Gu@physx@@@Gu@physx@@UEAAPEAXI@Z 0000000180018eb0 f i GuPCMContactConvexCommon.obj
 0001:00017ee0       ??_GSupportLocal@Gu@physx@@UEAAPEAXI@Z 0000000180018ee0 f i GuMTD.obj
 0001:00017ee0       ??_ESupportLocal@Gu@physx@@UEAAPEAXI@Z 0000000180018ee0 f i GuMTD.obj
 0001:00019fc0       ?doSupport@?$SupportLocalImpl@VConvexHullV@Gu@physx@@@Gu@physx@@UEBA?AT__m128@@AEBT4@@Z 000000018001afc0 f i GuMTD.obj
 0001:0001a0a0       ?doSupport@?$SupportLocalImpl@VConvexHullV@Gu@physx@@@Gu@physx@@UEBAXAEBT__m128@@AEAT4@1@Z 000000018001b0a0 f i GuMTD.obj
 0001:0001a400       ?populateVerts@?$SupportLocalImpl@VConvexHullV@Gu@physx@@@Gu@physx@@UEBAXPEBEIPEBVPxVec3@3@PEAT__m128@@@Z 000000018001b400 f i GuMTD.obj
 0001:0001a460       ?doSupport@?$SupportLocalImpl@VConvexHullNoScaleV@Gu@physx@@@Gu@physx@@UEBA?AT__m128@@AEBT4@@Z 000000018001b460 f i GuMTD.obj
 0001:0001a4b0       ?doSupport@?$SupportLocalImpl@VConvexHullNoScaleV@Gu@physx@@@Gu@physx@@UEBAXAEBT__m128@@AEAT4@1@Z 000000018001b4b0 f i GuMTD.obj
 0001:0001a630       ??$gjk@U?$LocalConvex@VCapsuleV@Gu@physx@@@Gu@physx@@U?$LocalConvex@VConvexHullV@Gu@physx@@@23@@Gu@physx@@YA?AW4GjkStatus@01@AEBU?$LocalConvex@VCapsuleV@Gu@physx@@@01@AEBU?$LocalConvex@VConvexHullV@Gu@physx@@@01@AEBT__m128@@2AEAT5@333@Z 000000018001b630 f i GuMTD.obj
 0001:0001b3e0       ??0MultiplePersistentContactManifold@Gu@physx@@QEAA@XZ 000000018001c3e0 f i GuMTD.obj
 0001:0001b430       ??0PolygonalBox@Gu@physx@@QEAA@AEBV012@@Z 000000018001c430 f i GuMTD.obj
 0001:0001b6b0       ??0SeparatingAxes@Gu@physx@@QEAA@$$QEAV012@@Z 000000018001c6b0 f i GuMTD.obj
 0001:0001b6b0       ??0SeparatingAxes@Gu@physx@@QEAA@AEBV012@@Z 000000018001c6b0 f i GuMTD.obj
 0001:0001b7c0       ??0SeparatingAxes@Gu@physx@@QEAA@XZ 000000018001c7c0 f i GuMTD.obj
 0001:0001b7d0       ??1?$LocalConvex@VBoxV@Gu@physx@@@Gu@physx@@UEAA@XZ 000000018001c7d0 f i GuSweepTests.obj
 0001:0001b7d0       ??1?$RelativeConvex@VConvexHullV@Gu@physx@@@Gu@physx@@UEAA@XZ 000000018001c7d0 f i GuOverlapTests.obj
 0001:0001b7d0       ??1?$LocalConvex@VConvexHullNoScaleV@Gu@physx@@@Gu@physx@@UEAA@XZ 000000018001c7d0 f i GuPCMContactBoxConvex.obj
 0001:0001b7d0       ??1?$LocalConvex@VTriangleV@Gu@physx@@@Gu@physx@@UEAA@XZ 000000018001c7d0 f i GuSweepTests.obj
 0001:0001b7d0       ??1?$LocalConvex@VConvexHullV@Gu@physx@@@Gu@physx@@UEAA@XZ 000000018001c7d0 f i GuMTD.obj
 0001:0001b7d0       ??1?$RelativeConvex@VTriangleV@Gu@physx@@@Gu@physx@@UEAA@XZ 000000018001c7d0 f i GuCCDSweepPrimitives.obj
 0001:0001b7d0       ??1?$RelativeConvex@VCapsuleV@Gu@physx@@@Gu@physx@@UEAA@XZ 000000018001c7d0 f i GuCCDSweepPrimitives.obj
 0001:0001b7d0       ??1?$LocalConvex@VCapsuleV@Gu@physx@@@Gu@physx@@UEAA@XZ 000000018001c7d0 f i GuMTD.obj
 0001:0001b7d0       ??1?$RelativeConvex@VConvexHullNoScaleV@Gu@physx@@@Gu@physx@@UEAA@XZ 000000018001c7d0 f i GuPCMContactConvexConvex.obj
 0001:0001b7d0       ??1?$RelativeConvex@VBoxV@Gu@physx@@@Gu@physx@@UEAA@XZ 000000018001c7d0 f i GuOverlapTests.obj
 0001:0001b7e0       ??1?$SupportLocalImpl@VBoxV@Gu@physx@@@Gu@physx@@UEAA@XZ 000000018001c7e0 f i GuMTD.obj
 0001:0001b7e0       ??1?$SupportLocalImpl@VConvexHullV@Gu@physx@@@Gu@physx@@UEAA@XZ 000000018001c7e0 f i GuPCMContactConvexHeightField.obj
 0001:0001b7e0       ??1?$SupportLocalImpl@VTriangleV@Gu@physx@@@Gu@physx@@UEAA@XZ 000000018001c7e0 f i GuPCMContactConvexCommon.obj
 0001:0001b7e0       ??1?$SupportLocalImpl@VConvexHullNoScaleV@Gu@physx@@@Gu@physx@@UEAA@XZ 000000018001c7e0 f i GuPCMContactConvexHeightField.obj
 0001:0001b7f0       ??4MultiplePersistentContactManifold@Gu@physx@@QEAAAEAV012@$$QEAV012@@Z 000000018001c7f0 f i GuMTD.obj
 0001:0001bb00       ??4MultiplePersistentContactManifold@Gu@physx@@QEAAAEAV012@AEBV012@@Z 000000018001cb00 f i GuMTD.obj
 0001:0001bb20       ??4SeparatingAxes@Gu@physx@@QEAAAEAV012@AEBV012@@Z 000000018001cb20 f i GuMTD.obj
 0001:0001bb20       ??4SeparatingAxes@Gu@physx@@QEAAAEAV012@$$QEAV012@@Z 000000018001cb20 f i GuMTD.obj
 0001:0001bc30       ??_G?$LocalConvex@VConvexHullNoScaleV@Gu@physx@@@Gu@physx@@UEAAPEAXI@Z 000000018001cc30 f i GuPCMContactBoxConvex.obj
 0001:0001bc30       ??_G?$LocalConvex@VCapsuleV@Gu@physx@@@Gu@physx@@UEAAPEAXI@Z 000000018001cc30 f i GuMTD.obj
 0001:0001bc30       ??_EGjkConvexBase@Gu@physx@@UEAAPEAXI@Z 000000018001cc30 f i GuMTD.obj
 0001:0001bc30       ??_G?$LocalConvex@VBoxV@Gu@physx@@@Gu@physx@@UEAAPEAXI@Z 000000018001cc30 f i GuSweepTests.obj
 0001:0001bc30       ??_G?$LocalConvex@VTriangleV@Gu@physx@@@Gu@physx@@UEAAPEAXI@Z 000000018001cc30 f i GuSweepTests.obj
 0001:0001bc30       ??_G?$LocalConvex@VConvexHullV@Gu@physx@@@Gu@physx@@UEAAPEAXI@Z 000000018001cc30 f i GuMTD.obj
 0001:0001bc30       ??_E?$LocalConvex@VConvexHullV@Gu@physx@@@Gu@physx@@UEAAPEAXI@Z 000000018001cc30 f i GuMTD.obj
 0001:0001bc30       ??_E?$LocalConvex@VConvexHullNoScaleV@Gu@physx@@@Gu@physx@@UEAAPEAXI@Z 000000018001cc30 f i GuPCMContactBoxConvex.obj
 0001:0001bc30       ??_E?$LocalConvex@VCapsuleV@Gu@physx@@@Gu@physx@@UEAAPEAXI@Z 000000018001cc30 f i GuMTD.obj
 0001:0001bc30       ??_E?$LocalConvex@VTriangleV@Gu@physx@@@Gu@physx@@UEAAPEAXI@Z 000000018001cc30 f i GuSweepTests.obj
 0001:0001bc30       ??_GGjkConvexBase@Gu@physx@@UEAAPEAXI@Z 000000018001cc30 f i GuMTD.obj
 0001:0001bc30       ??_E?$LocalConvex@VBoxV@Gu@physx@@@Gu@physx@@UEAAPEAXI@Z 000000018001cc30 f i GuSweepTests.obj
 0001:0001c3b0       ?clearManifold@MultiplePersistentContactManifold@Gu@physx@@QEAAXXZ 000000018001d3b0 f i GuMTD.obj
 0001:0001fd90       ?getAxes@SeparatingAxes@Gu@physx@@QEBAPEBVPxVec3@3@XZ 0000000180020d90 f i GuMTD.obj
 0001:0001fda0       ?getCenter@?$LocalConvex@VCapsuleV@Gu@physx@@@Gu@physx@@UEBA?AT__m128@@XZ 0000000180020da0 f i GuMTD.obj
 0001:0001fda0       ?getCenter@?$LocalConvex@VConvexHullV@Gu@physx@@@Gu@physx@@UEBA?AT__m128@@XZ 0000000180020da0 f i GuMTD.obj
 0001:0001fda0       ?getCenter@?$LocalConvex@VTriangleV@Gu@physx@@@Gu@physx@@UEBA?AT__m128@@XZ 0000000180020da0 f i GuSweepTests.obj
 0001:0001fda0       ?getCenter@?$LocalConvex@VConvexHullNoScaleV@Gu@physx@@@Gu@physx@@UEBA?AT__m128@@XZ 0000000180020da0 f i GuPCMContactBoxConvex.obj
 0001:0001fda0       ?getCenter@?$LocalConvex@VBoxV@Gu@physx@@@Gu@physx@@UEBA?AT__m128@@XZ 0000000180020da0 f i GuSweepTests.obj
 0001:0001fdb0       ?getEmptyManifold@MultiplePersistentContactManifold@Gu@physx@@QEAAPEAVSinglePersistentContactManifold@23@XZ 0000000180020db0 f i GuMTD.obj
 0001:0001fdd0       ?getManifold@MultiplePersistentContactManifold@Gu@physx@@QEAAPEAVSinglePersistentContactManifold@23@I@Z 0000000180020dd0 f i GuMTD.obj
 0001:0001fdf0       ?getSweepMargin@?$LocalConvex@VCapsuleV@Gu@physx@@@Gu@physx@@UEBA?AT__m128@@XZ 0000000180020df0 f i GuMTD.obj
 0001:0001fdf0       ?getSweepMargin@?$RelativeConvex@VCapsuleV@Gu@physx@@@Gu@physx@@UEBA?AT__m128@@XZ 0000000180020df0 f i GuCCDSweepPrimitives.obj
 0001:0001fe00       ?getSweepMargin@?$RelativeConvex@VBoxV@Gu@physx@@@Gu@physx@@UEBA?AT__m128@@XZ 0000000180020e00 f i GuOverlapTests.obj
 0001:0001fe00       ?getSweepMargin@?$LocalConvex@VConvexHullNoScaleV@Gu@physx@@@Gu@physx@@UEBA?AT__m128@@XZ 0000000180020e00 f i GuPCMContactBoxConvex.obj
 0001:0001fe00       ?getSweepMargin@?$RelativeConvex@VConvexHullV@Gu@physx@@@Gu@physx@@UEBA?AT__m128@@XZ 0000000180020e00 f i GuOverlapTests.obj
 0001:0001fe00       ?getSweepMargin@?$LocalConvex@VConvexHullV@Gu@physx@@@Gu@physx@@UEBA?AT__m128@@XZ 0000000180020e00 f i GuMTD.obj
 0001:0001fe00       ?getSweepMargin@?$LocalConvex@VBoxV@Gu@physx@@@Gu@physx@@UEBA?AT__m128@@XZ 0000000180020e00 f i GuSweepTests.obj
 0001:0001fe00       ?getSweepMargin@?$RelativeConvex@VConvexHullNoScaleV@Gu@physx@@@Gu@physx@@UEBA?AT__m128@@XZ 0000000180020e00 f i GuPCMContactConvexConvex.obj
 0001:0001fe20       ?hillClimbing@ConvexHullV@Gu@physx@@QEBAIAEBT__m128@@@Z 0000000180020e20 f i GuMTD.obj
 0001:00020060       ?initialize@MultiplePersistentContactManifold@Gu@physx@@QEAAXXZ 0000000180021060 f i GuMTD.obj
 0001:000200c0       ?invalidate@MultiplePersistentContactManifold@Gu@physx@@QEAAIAEBVPsTransformV@aos@shdfnd@3@AEBT__m128@@1@Z 00000001800210c0 f i GuMTD.obj
 0001:00020140       ?invalidate@MultiplePersistentContactManifold@Gu@physx@@QEAAIAEBVPsTransformV@aos@shdfnd@3@AEBT__m128@@@Z 0000000180021140 f i GuMTD.obj
 0001:000201c0       ?maxTransformPositionDelta@MultiplePersistentContactManifold@Gu@physx@@QEAA?AT__m128@@AEBT4@@Z 00000001800211c0 f i GuMTD.obj
 0001:00020200       ?maxTransformQuatDelta@MultiplePersistentContactManifold@Gu@physx@@QEAA?AT__m128@@AEBT4@@Z 0000000180021200 f i GuMTD.obj
 0001:00020240       ?pointConvexDistance@@YA_NAEAVPxVec3@physx@@0AEAMAEBV12@PEBVConvexMesh@Gu@2@AEBVPxMeshScale@2@AEBVPxTransform@2@@Z 0000000180021240 f   GuMTD.obj
 0001:00021020       ?reduceManifoldContactsInDifferentPatches@MultiplePersistentContactManifold@Gu@physx@@QEAAIPEAPEAUPCMContactPatch@23@IPEAVMeshPersistentContact@23@IAEBT__m128@@@Z 0000000180022020 f i GuMTD.obj
 0001:00021190       ?refineContactPatchConnective@MultiplePersistentContactManifold@Gu@physx@@QEAAXPEAPEAUPCMContactPatch@23@IPEAVMeshPersistentContact@23@AEBT__m128@@@Z 0000000180022190 f i GuMTD.obj
 0001:00021280       ?refreshManifold@MultiplePersistentContactManifold@Gu@physx@@QEAAXAEBVPsMatTransformV@aos@shdfnd@3@AEBT__m128@@1@Z 0000000180022280 f i GuMTD.obj
 0001:00021380       ?reset@SeparatingAxes@Gu@physx@@QEAAXXZ 0000000180022380 f i GuMTD.obj
 0001:00021390       ?setRelativeTransform@MultiplePersistentContactManifold@Gu@physx@@QEAAXAEBVPsTransformV@aos@shdfnd@3@@Z 0000000180022390 f i GuMTD.obj
 0001:000213a0       ?support@?$LocalConvex@VCapsuleV@Gu@physx@@@Gu@physx@@UEBA?AT__m128@@AEBT4@@Z 00000001800223a0 f i GuMTD.obj
 0001:00021400       ?support@?$LocalConvex@VCapsuleV@Gu@physx@@@Gu@physx@@UEBA?AT__m128@@AEBT4@AEAH@Z 0000000180022400 f i GuMTD.obj
 0001:00021470       ?support@?$LocalConvex@VConvexHullV@Gu@physx@@@Gu@physx@@UEBA?AT__m128@@AEBT4@@Z 0000000180022470 f i GuMTD.obj
 0001:00021550       ?support@?$LocalConvex@VConvexHullV@Gu@physx@@@Gu@physx@@UEBA?AT__m128@@AEBT4@AEAH@Z 0000000180022550 f i GuMTD.obj
 0001:00021620       ?supportPoint@?$LocalConvex@VCapsuleV@Gu@physx@@@Gu@physx@@UEBA?AT__m128@@H@Z 0000000180022620 f i GuMTD.obj
 0001:00021650       ?supportPoint@?$LocalConvex@VConvexHullV@Gu@physx@@@Gu@physx@@UEBA?AT__m128@@H@Z 0000000180022650 f i GuMTD.obj
 0001:000216a0       ?supportVertexIndex@ConvexHullV@Gu@physx@@QEBAIAEBT__m128@@@Z 00000001800226a0 f i GuMTD.obj
 0001:00021920       ?toBuffer@MultiplePersistentContactManifold@Gu@physx@@QEAAXPEIAE@Z 0000000180022920 f i GuMTD.obj
 0001:00021a00       ?supportPoint@?$RelativeConvex@VBoxV@Gu@physx@@@Gu@physx@@UEBA?AT__m128@@H@Z 0000000180022a00 f i GuOverlapTests.obj
 0001:00021a70       ?support@?$RelativeConvex@VBoxV@Gu@physx@@@Gu@physx@@UEBA?AT__m128@@AEBT4@@Z 0000000180022a70 f i GuOverlapTests.obj
 0001:00021af0       ?support@?$RelativeConvex@VBoxV@Gu@physx@@@Gu@physx@@UEBA?AT__m128@@AEBT4@AEAH@Z 0000000180022af0 f i GuOverlapTests.obj
 0001:00021b80       ?getCenter@?$RelativeConvex@VCapsuleV@Gu@physx@@@Gu@physx@@UEBA?AT__m128@@XZ 0000000180022b80 f i GuCCDSweepPrimitives.obj
 0001:00021b80       ?getCenter@?$RelativeConvex@VConvexHullNoScaleV@Gu@physx@@@Gu@physx@@UEBA?AT__m128@@XZ 0000000180022b80 f i GuPCMContactConvexConvex.obj
 0001:00021b80       ?getCenter@?$RelativeConvex@VTriangleV@Gu@physx@@@Gu@physx@@UEBA?AT__m128@@XZ 0000000180022b80 f i GuCCDSweepPrimitives.obj
 0001:00021b80       ?getCenter@?$RelativeConvex@VConvexHullV@Gu@physx@@@Gu@physx@@UEBA?AT__m128@@XZ 0000000180022b80 f i GuOverlapTests.obj
 0001:00021b80       ?getCenter@?$RelativeConvex@VBoxV@Gu@physx@@@Gu@physx@@UEBA?AT__m128@@XZ 0000000180022b80 f i GuOverlapTests.obj
 0001:00021bc0       ??_E?$RelativeConvex@VBoxV@Gu@physx@@@Gu@physx@@UEAAPEAXI@Z 0000000180022bc0 f i GuOverlapTests.obj
 0001:00021bc0       ??_G?$RelativeConvex@VBoxV@Gu@physx@@@Gu@physx@@UEAAPEAXI@Z 0000000180022bc0 f i GuOverlapTests.obj
 0001:00021bc0       ??_E?$RelativeConvex@VCapsuleV@Gu@physx@@@Gu@physx@@UEAAPEAXI@Z 0000000180022bc0 f i GuCCDSweepPrimitives.obj
 0001:00021bc0       ??_G?$RelativeConvex@VConvexHullNoScaleV@Gu@physx@@@Gu@physx@@UEAAPEAXI@Z 0000000180022bc0 f i GuPCMContactConvexConvex.obj
 0001:00021bc0       ??_E?$RelativeConvex@VConvexHullV@Gu@physx@@@Gu@physx@@UEAAPEAXI@Z 0000000180022bc0 f i GuOverlapTests.obj
 0001:00021bc0       ??_G?$RelativeConvex@VConvexHullV@Gu@physx@@@Gu@physx@@UEAAPEAXI@Z 0000000180022bc0 f i GuOverlapTests.obj
 0001:00021bc0       ??_E?$RelativeConvex@VTriangleV@Gu@physx@@@Gu@physx@@UEAAPEAXI@Z 0000000180022bc0 f i GuCCDSweepPrimitives.obj
 0001:00021bc0       ??_G?$RelativeConvex@VTriangleV@Gu@physx@@@Gu@physx@@UEAAPEAXI@Z 0000000180022bc0 f i GuCCDSweepPrimitives.obj
 0001:00021bc0       ??_G?$RelativeConvex@VCapsuleV@Gu@physx@@@Gu@physx@@UEAAPEAXI@Z 0000000180022bc0 f i GuCCDSweepPrimitives.obj
 0001:00021bc0       ??_E?$RelativeConvex@VConvexHullNoScaleV@Gu@physx@@@Gu@physx@@UEAAPEAXI@Z 0000000180022bc0 f i GuPCMContactConvexConvex.obj
 0001:00023db0       ?supportPoint@?$RelativeConvex@VConvexHullV@Gu@physx@@@Gu@physx@@UEBA?AT__m128@@H@Z 0000000180024db0 f i GuOverlapTests.obj
 0001:00023e30       ?support@?$RelativeConvex@VConvexHullV@Gu@physx@@@Gu@physx@@UEBA?AT__m128@@AEBT4@@Z 0000000180024e30 f i GuOverlapTests.obj
 0001:00023f60       ?support@?$RelativeConvex@VConvexHullV@Gu@physx@@@Gu@physx@@UEBA?AT__m128@@AEBT4@AEAH@Z 0000000180024f60 f i GuOverlapTests.obj
 0001:000240c0       ??$gjk@U?$RelativeConvex@VBoxV@Gu@physx@@@Gu@physx@@U?$LocalConvex@VConvexHullV@Gu@physx@@@23@@Gu@physx@@YA?AW4GjkStatus@01@AEBU?$RelativeConvex@VBoxV@Gu@physx@@@01@AEBU?$LocalConvex@VConvexHullV@Gu@physx@@@01@AEBT__m128@@2AEAT5@333@Z 00000001800250c0 f i GuOverlapTests.obj
 0001:00024ed0       ??$gjk@U?$RelativeConvex@VConvexHullV@Gu@physx@@@Gu@physx@@U?$LocalConvex@VConvexHullV@Gu@physx@@@23@@Gu@physx@@YA?AW4GjkStatus@01@AEBU?$RelativeConvex@VConvexHullV@Gu@physx@@@01@AEBU?$LocalConvex@VConvexHullV@Gu@physx@@@01@AEBT__m128@@2AEAT5@333@Z 0000000180025ed0 f i GuOverlapTests.obj
 0001:00025db0       ?ComputeCubemapNearestOffset@physx@@YAIAEBVPxVec3@1@I@Z 0000000180026db0 f i GuOverlapTests.obj
 0001:00025eb0       ?getOverlapFuncTable@Gu@physx@@YAPEAY06Q6A_NAEBVPxGeometry@2@AEBVPxTransform@2@01PEAUTriggerCache@12@@ZXZ 0000000180026eb0 f   GuOverlapTests.obj
 0001:000279b0       ?registerHeightFields@Gu@physx@@YAXXZ 00000001800289b0 f   GuOverlapTests.obj
 0001:00027a00       ?raycast_plane@@YAIAEBVPxGeometry@physx@@AEBVPxTransform@2@AEBVPxVec3@2@2MV?$PxFlags@W4Enum@PxHitFlag@physx@@G@2@IPEIAUPxRaycastHit@2@@Z 0000000180028a00 f   GuRaycastTests.obj
 0001:00027b70       ?raycast_convexMesh@@YAIAEBVPxGeometry@physx@@AEBVPxTransform@2@AEBVPxVec3@2@2MV?$PxFlags@W4Enum@PxHitFlag@physx@@G@2@IPEIAUPxRaycastHit@2@@Z 0000000180028b70 f   GuRaycastTests.obj
 0001:000286a0       ?raycast_triangleMesh@@YAIAEBVPxGeometry@physx@@AEBVPxTransform@2@AEBVPxVec3@2@2MV?$PxFlags@W4Enum@PxHitFlag@physx@@G@2@IPEIAUPxRaycastHit@2@@Z 00000001800296a0 f   GuRaycastTests.obj
 0001:00028760       ?raycast_box@@YAIAEBVPxGeometry@physx@@AEBVPxTransform@2@AEBVPxVec3@2@2MV?$PxFlags@W4Enum@PxHitFlag@physx@@G@2@IPEIAUPxRaycastHit@2@@Z 0000000180029760 f   GuRaycastTests.obj
 0001:00028d90       ?raycast_sphere@@YAIAEBVPxGeometry@physx@@AEBVPxTransform@2@AEBVPxVec3@2@2MV?$PxFlags@W4Enum@PxHitFlag@physx@@G@2@IPEIAUPxRaycastHit@2@@Z 0000000180029d90 f   GuRaycastTests.obj
 0001:00028f20       ?raycast_capsule@@YAIAEBVPxGeometry@physx@@AEBVPxTransform@2@AEBVPxVec3@2@2MV?$PxFlags@W4Enum@PxHitFlag@physx@@G@2@IPEIAUPxRaycastHit@2@@Z 0000000180029f20 f   GuRaycastTests.obj
 0001:0002a6d0       ??Dphysx@@YA?AVMatrix34@Cm@0@AEBVPxMeshScale@0@AEBVPxTransform@0@@Z 000000018002b6d0 f i GuRaycastTests.obj
 0001:0002b310       ?getRaycastFuncTable@Gu@physx@@YAAEAY06Q6AIAEBVPxGeometry@2@AEBVPxTransform@2@AEBVPxVec3@2@2MV?$PxFlags@W4Enum@PxHitFlag@physx@@G@2@IPEIAUPxRaycastHit@2@@ZXZ 000000018002c310 f   GuRaycastTests.obj
 0001:0002b320       ?raycast_heightField@@YAIAEBVPxGeometry@physx@@AEBVPxTransform@2@AEBVPxVec3@2@2MV?$PxFlags@W4Enum@PxHitFlag@physx@@G@2@IPEIAUPxRaycastHit@2@@Z 000000018002c320 f   GuRaycastTests.obj
 0001:0002ba60       ?registerHeightFields_Raycasts@@YAXXZ 000000018002ca60 f   GuRaycastTests.obj
 0001:0002ba70       ?ReadHeader@Gu@physx@@YA_NEEEEAEAIAEA_NAEAVPxInputStream@2@@Z 000000018002ca70 f   GuSerialize.obj
 0001:0002bbd0       ?ReadIndices@Gu@physx@@YAXGIPEAGAEAVPxInputStream@2@_N@Z 000000018002cbd0 f   GuSerialize.obj
 0001:0002bd30       ?StoreIndices@Gu@physx@@YAXGIPEBGAEAVPxOutputStream@2@_N@Z 000000018002cd30 f   GuSerialize.obj
 0001:0002be20       ?StoreIndices@Gu@physx@@YAXIIPEBIAEAVPxOutputStream@2@_N@Z 000000018002ce20 f   GuSerialize.obj
 0001:0002bfb0       ?WriteHeader@Gu@physx@@YA_NEEEEI_NAEAVPxOutputStream@2@@Z 000000018002cfb0 f   GuSerialize.obj
 0001:0002c0e0       ?computeMaxIndex@physx@@YAGPEBGI@Z 000000018002d0e0 f   GuSerialize.obj
 0001:0002c110       ?computeMaxIndex@physx@@YAIPEBII@Z 000000018002d110 f   GuSerialize.obj
 0001:0002c140       ?readChunk@physx@@YAXAEAC000AEAVPxInputStream@1@@Z 000000018002d140 f   GuSerialize.obj
 0001:0002c1c0       ?readDword@physx@@YAI_NAEAVPxInputStream@1@@Z 000000018002d1c0 f   GuSerialize.obj
 0001:0002c220       ?readFloat@physx@@YAM_NAEAVPxInputStream@1@@Z 000000018002d220 f   GuSerialize.obj
 0001:0002c280       ?readFloatBuffer@physx@@YA_NPEAMI_NAEAVPxInputStream@1@@Z 000000018002d280 f   GuSerialize.obj
 0001:0002c300       ?readHeader@physx@@YA_NCCCCAEAIAEA_NAEAVPxInputStream@1@@Z 000000018002d300 f   GuSerialize.obj
 0001:0002c450       ?readIndices@physx@@YAXIIPEAIAEAVPxInputStream@1@_N@Z 000000018002d450 f   GuSerialize.obj
 0001:0002c580       ?readWord@physx@@YAG_NAEAVPxInputStream@1@@Z 000000018002d580 f   GuSerialize.obj
 0001:0002c5c0       ?readWordBuffer@physx@@YAXPEAGI_NAEAVPxInputStream@1@@Z 000000018002d5c0 f   GuSerialize.obj
 0001:0002c630       ?storeIndices@physx@@YAXIIPEBIAEAVPxOutputStream@1@_N@Z 000000018002d630 f   GuSerialize.obj
 0001:0002c750       ?writeDword@physx@@YAXI_NAEAVPxOutputStream@1@@Z 000000018002d750 f   GuSerialize.obj
 0001:0002c7a0       ?writeFloat@physx@@YAXM_NAEAVPxOutputStream@1@@Z 000000018002d7a0 f   GuSerialize.obj
 0001:0002c7f0       ?writeFloatBuffer@physx@@YAXPEBMI_NAEAVPxOutputStream@1@@Z 000000018002d7f0 f   GuSerialize.obj
 0001:0002c890       ?writeHeader@physx@@YA_NCCCCI_NAEAVPxOutputStream@1@@Z 000000018002d890 f   GuSerialize.obj
 0001:0002c9c0       ?writeWord@physx@@YAXG_NAEAVPxOutputStream@1@@Z 000000018002d9c0 f   GuSerialize.obj
 0001:0002ca00       ?writeWordBuffer@physx@@YAXPEBGI_NAEAVPxOutputStream@1@@Z 000000018002da00 f   GuSerialize.obj
 0001:0002ca80       ??1?$Array@IV?$ReflectionAllocator@I@shdfnd@physx@@@shdfnd@physx@@QEAA@XZ 000000018002da80 f i GuSweepMTD.obj
 0001:0002cac0       ??1MeshMTDGenerationCallback@@UEAA@XZ 000000018002dac0 f i GuSweepMTD.obj
 0001:0002cac0       ??1ConvexMeshContactGenerationCallback@@UEAA@XZ 000000018002dac0 f i GuContactConvexMesh.obj
 0001:0002cac0       ??1RayMeshColliderCallback@@UEAA@XZ 000000018002dac0 f i GuMidphaseRTree.obj
 0001:0002cac0       ??1?$PCMMeshContactGenerationCallback@UPCMSphereVsMeshContactGenerationCallback@physx@@@Gu@physx@@UEAA@XZ 000000018002dac0 f i GuPCMContactSphereMesh.obj
 0001:0002cac0       ??1SweepCapsuleMeshHitCallback@Gu@physx@@UEAA@XZ 000000018002dac0 f i GuMidphaseBV4.obj
 0001:0002cac0       ??1ConvexVsMeshOverlapCallback@@UEAA@XZ 000000018002dac0 f i GuOverlapTestsMesh.obj
 0001:0002cad0       ??Dphysx@@YA?AVMatrix34@Cm@0@AEBVPxTransform@0@AEBVPxMeshScale@0@@Z 000000018002dad0 f i GuSweepMTD.obj
 0001:0002d120       ??_G?$MeshHitCallback@UPxRaycastHit@physx@@@Gu@physx@@UEAAPEAXI@Z 000000018002e120 f i GuSweepMTD.obj
 0001:0002d120       ??_E?$MeshHitCallback@UPxRaycastHit@physx@@@Gu@physx@@UEAAPEAXI@Z 000000018002e120 f i GuSweepMTD.obj
 0001:0002d150       ??_EMeshMTDGenerationCallback@@UEAAPEAXI@Z 000000018002e150 f i GuSweepMTD.obj
 0001:0002d150       ??_GMeshMTDGenerationCallback@@UEAAPEAXI@Z 000000018002e150 f i GuSweepMTD.obj
 0001:0002d180       ??_GMidPhaseQueryLocalReport@@UEAAPEAXI@Z 000000018002e180 f i GuSweepMTD.obj
 0001:0002d180       ??_EMidPhaseQueryLocalReport@@UEAAPEAXI@Z 000000018002e180 f i GuSweepMTD.obj
 0001:0002d1b0       ?allocate@?$ReflectionAllocator@I@shdfnd@physx@@QEAAPEAX_KPEBDH@Z 000000018002e1b0 f i GuSweepMTD.obj
 0001:0002d250       ?computeBox_HeightFieldMTD@Gu@physx@@YA_NAEBVPxHeightFieldGeometry@2@AEBVPxTransform@2@AEBVBox@12@1M_NIAEAUPxSweepHit@2@@Z 000000018002e250 f   GuSweepMTD.obj
 0001:0002e240       ?computeBox_TriangleMeshMTD@Gu@physx@@YA_NAEBVPxTriangleMeshGeometry@2@AEBVPxTransform@2@AEBVBox@12@1M_NAEAUPxSweepHit@2@@Z 000000018002f240 f   GuSweepMTD.obj
 0001:0002ef90       ?computeCapsule_CapsuleMTD@Gu@physx@@YA_NAEBVCapsule@12@0AEAUPxSweepHit@2@@Z 000000018002ff90 f   GuSweepMTD.obj
 0001:0002f1d0       ?computeCapsule_HeightFieldMTD@Gu@physx@@YA_NAEBVPxHeightFieldGeometry@2@AEBVPxTransform@2@AEAVCapsuleV@12@M_NIAEAUPxSweepHit@2@@Z 00000001800301d0 f   GuSweepMTD.obj
 0001:0002fb20       ?computeCapsule_TriangleMeshMTD@Gu@physx@@YA_NAEBVPxTriangleMeshGeometry@2@AEBVPxTransform@2@AEAVCapsuleV@12@M_NAEAUPxSweepHit@2@@Z 0000000180030b20 f   GuSweepMTD.obj
 0001:000304e0       ?computeConvex_HeightFieldMTD@Gu@physx@@YA_NAEBVPxHeightFieldGeometry@2@AEBVPxTransform@2@AEBVPxConvexMeshGeometry@2@1M_NIAEAUPxSweepHit@2@@Z 00000001800314e0 f   GuSweepMTD.obj
 0001:00031940       ?computeConvex_TriangleMeshMTD@Gu@physx@@YA_NAEBVPxTriangleMeshGeometry@2@AEBVPxTransform@2@AEBVPxConvexMeshGeometry@2@1M_NAEAUPxSweepHit@2@@Z 0000000180032940 f   GuSweepMTD.obj
 0001:00032c20       ?computePlane_BoxMTD@Gu@physx@@YA_NAEBVPxPlane@2@AEBVBox@12@AEAUPxSweepHit@2@@Z 0000000180033c20 f   GuSweepMTD.obj
 0001:00032ee0       ?computePlane_CapsuleMTD@Gu@physx@@YA_NAEBVPxPlane@2@AEBVCapsule@12@AEAUPxSweepHit@2@@Z 0000000180033ee0 f   GuSweepMTD.obj
 0001:00033000       ?computePlane_ConvexMTD@Gu@physx@@YA_NAEBVPxPlane@2@AEBVPxConvexMeshGeometry@2@AEBVPxTransform@2@AEAUPxSweepHit@2@@Z 0000000180034000 f   GuSweepMTD.obj
 0001:00033b50       ?computeSphere_CapsuleMTD@Gu@physx@@YA_NAEBVSphere@12@AEBVCapsule@12@AEAUPxSweepHit@2@@Z 0000000180034b50 f   GuSweepMTD.obj
 0001:00033d00       ?computeSphere_SphereMTD@Gu@physx@@YA_NAEBVSphere@12@0AEAUPxSweepHit@2@@Z 0000000180034d00 f   GuSweepMTD.obj
 0001:00033df0       ?getInverse@PxMat33@physx@@QEBA?BV12@XZ 0000000180034df0 f i GuSweepMTD.obj
 0001:00034040       ?growAndPushBack@?$Array@IV?$ReflectionAllocator@I@shdfnd@physx@@@shdfnd@physx@@IEAAAEAIAEBI@Z 0000000180035040 f i GuSweepMTD.obj
 0001:00034110       ?init@FastVertex2ShapeScaling@Cm@physx@@QEAAXAEBVPxVec3@3@AEBVPxQuat@3@@Z 0000000180035110 f i GuSweepMTD.obj
 0001:00034500       ?onEvent@MidPhaseQueryLocalReport@@UEAA_NIPEAI@Z 0000000180035500 f i GuSweepMTD.obj
 0001:00034570       ?processHit@MeshMTDGenerationCallback@@UEAA_NAEBUPxRaycastHit@physx@@AEBVPxVec3@3@11AEAMPEBI@Z 0000000180035570 f i GuSweepMTD.obj
 0001:000345c0       ?recreate@?$Array@IV?$ReflectionAllocator@I@shdfnd@physx@@@shdfnd@physx@@IEAAXI@Z 00000001800355c0 f i GuSweepMTD.obj
 0001:00034680       ??$gjkPenetration@U?$LocalConvex@VCapsuleV@Gu@physx@@@Gu@physx@@U?$LocalConvex@VConvexHullV@Gu@physx@@@23@@Gu@physx@@YA?AW4GjkStatus@01@AEBU?$LocalConvex@VCapsuleV@Gu@physx@@@01@AEBU?$LocalConvex@VConvexHullV@Gu@physx@@@01@AEBT__m128@@2_NPEIAE4AEAEAEAUGjkOutput@01@@Z 0000000180035680 f i GuSweepSharedTests.obj
 0001:00035e40       ??$gjkPenetration@U?$RelativeConvex@VBoxV@Gu@physx@@@Gu@physx@@U?$LocalConvex@VConvexHullV@Gu@physx@@@23@@Gu@physx@@YA?AW4GjkStatus@01@AEBU?$RelativeConvex@VBoxV@Gu@physx@@@01@AEBU?$LocalConvex@VConvexHullV@Gu@physx@@@01@AEBT__m128@@2_NPEIAE4AEAEAEAUGjkOutput@01@@Z 0000000180036e40 f i GuSweepSharedTests.obj
 0001:000375f0       ??$gjkPenetration@U?$RelativeConvex@VConvexHullV@Gu@physx@@@Gu@physx@@U?$LocalConvex@VConvexHullV@Gu@physx@@@23@@Gu@physx@@YA?AW4GjkStatus@01@AEBU?$RelativeConvex@VConvexHullV@Gu@physx@@@01@AEBU?$LocalConvex@VConvexHullV@Gu@physx@@@01@AEBT__m128@@2_NPEIAE4AEAEAEAUGjkOutput@01@@Z 00000001800385f0 f i GuSweepSharedTests.obj
 0001:00038e50       ??$gjkRaycast@U?$LocalConvex@VCapsuleV@Gu@physx@@@Gu@physx@@U?$LocalConvex@VConvexHullV@Gu@physx@@@23@@Gu@physx@@YA_NAEBU?$LocalConvex@VCapsuleV@Gu@physx@@@01@AEBU?$LocalConvex@VConvexHullV@Gu@physx@@@01@AEBT__m128@@222AEAT4@33M@Z 0000000180039e50 f i GuSweepSharedTests.obj
 0001:00039c00       ??$gjkRaycast@U?$RelativeConvex@VBoxV@Gu@physx@@@Gu@physx@@U?$LocalConvex@VConvexHullV@Gu@physx@@@23@@Gu@physx@@YA_NAEBU?$RelativeConvex@VBoxV@Gu@physx@@@01@AEBU?$LocalConvex@VConvexHullV@Gu@physx@@@01@AEBT__m128@@222AEAT4@33M@Z 000000018003ac00 f i GuSweepSharedTests.obj
 0001:0003aa50       ??$gjkRaycast@U?$RelativeConvex@VConvexHullV@Gu@physx@@@Gu@physx@@U?$LocalConvex@VConvexHullV@Gu@physx@@@23@@Gu@physx@@YA_NAEBU?$RelativeConvex@VConvexHullV@Gu@physx@@@01@AEBU?$LocalConvex@VConvexHullV@Gu@physx@@@01@AEBT__m128@@222AEAT4@33M@Z 000000018003ba50 f i GuSweepSharedTests.obj
 0001:0003b9b0       ??$gjkRaycastPenetration@U?$RelativeConvex@VConvexHullV@Gu@physx@@@Gu@physx@@U?$LocalConvex@VConvexHullV@Gu@physx@@@23@@Gu@physx@@YA_NAEBU?$RelativeConvex@VConvexHullV@Gu@physx@@@01@AEBU?$LocalConvex@VConvexHullV@Gu@physx@@@01@AEBT__m128@@222AEAT4@33M_N@Z 000000018003c9b0 f i GuSweepSharedTests.obj
 0001:0003c5a0       ?sweepBox_ConvexGeom@@YA_NAEBVPxGeometry@physx@@AEBVPxTransform@2@AEBVPxBoxGeometry@2@1AEBVBox@Gu@2@AEBVPxVec3@2@MAEAUPxSweepHit@2@V?$PxFlags@W4Enum@PxHitFlag@physx@@G@2@M@Z 000000018003d5a0 f   GuSweepSharedTests.obj
 0001:0003d440       ?sweepBox_PlaneGeom@@YA_NAEBVPxGeometry@physx@@AEBVPxTransform@2@AEBVPxBoxGeometry@2@1AEBVBox@Gu@2@AEBVPxVec3@2@MAEAUPxSweepHit@2@V?$PxFlags@W4Enum@PxHitFlag@physx@@G@2@M@Z 000000018003e440 f   GuSweepSharedTests.obj
 0001:0003d840       ?sweepCapsuleTriangles@Gu@physx@@YA_NIPEBVPxTriangle@2@_NAEBVPxCapsuleGeometry@2@AEBVPxTransform@2@AEBVPxVec3@2@MAEAUPxSweepHit@2@PEBIMV?$PxFlags@W4Enum@PxHitFlag@physx@@G@2@@Z 000000018003e840 f   GuSweepSharedTests.obj
 0001:0003da30       ?sweepCapsule_CapsuleGeom@@YA_NAEBVPxGeometry@physx@@AEBVPxTransform@2@AEBVPxCapsuleGeometry@2@1AEBVCapsule@Gu@2@AEBVPxVec3@2@MAEAUPxSweepHit@2@V?$PxFlags@W4Enum@PxHitFlag@physx@@G@2@M@Z 000000018003ea30 f   GuSweepSharedTests.obj
 0001:0003dc10       ?sweepCapsule_ConvexGeom@@YA_NAEBVPxGeometry@physx@@AEBVPxTransform@2@AEBVPxCapsuleGeometry@2@1AEBVCapsule@Gu@2@AEBVPxVec3@2@MAEAUPxSweepHit@2@V?$PxFlags@W4Enum@PxHitFlag@physx@@G@2@M@Z 000000018003ec10 f   GuSweepSharedTests.obj
 0001:0003e9a0       ?sweepCapsule_PlaneGeom@@YA_NAEBVPxGeometry@physx@@AEBVPxTransform@2@AEBVPxCapsuleGeometry@2@1AEBVCapsule@Gu@2@AEBVPxVec3@2@MAEAUPxSweepHit@2@V?$PxFlags@W4Enum@PxHitFlag@physx@@G@2@M@Z 000000018003f9a0 f   GuSweepSharedTests.obj
 0001:0003ec80       ?sweepCapsule_SphereGeom@@YA_NAEBVPxGeometry@physx@@AEBVPxTransform@2@AEBVPxCapsuleGeometry@2@1AEBVCapsule@Gu@2@AEBVPxVec3@2@MAEAUPxSweepHit@2@V?$PxFlags@W4Enum@PxHitFlag@physx@@G@2@M@Z 000000018003fc80 f   GuSweepSharedTests.obj
 0001:0003ee20       ?sweepConvex_BoxGeom@@YA_NAEBVPxGeometry@physx@@AEBVPxTransform@2@AEBVPxConvexMeshGeometry@2@1AEBVPxVec3@2@MAEAUPxSweepHit@2@V?$PxFlags@W4Enum@PxHitFlag@physx@@G@2@M@Z 000000018003fe20 f   GuSweepSharedTests.obj
 0001:0003f030       ?sweepConvex_CapsuleGeom@@YA_NAEBVPxGeometry@physx@@AEBVPxTransform@2@AEBVPxConvexMeshGeometry@2@1AEBVPxVec3@2@MAEAUPxSweepHit@2@V?$PxFlags@W4Enum@PxHitFlag@physx@@G@2@M@Z 0000000180040030 f   GuSweepSharedTests.obj
 0001:0003f250       ?sweepConvex_ConvexGeom@@YA_NAEBVPxGeometry@physx@@AEBVPxTransform@2@AEBVPxConvexMeshGeometry@2@1AEBVPxVec3@2@MAEAUPxSweepHit@2@V?$PxFlags@W4Enum@PxHitFlag@physx@@G@2@M@Z 0000000180040250 f   GuSweepSharedTests.obj
 0001:00040310       ?sweepConvex_PlaneGeom@@YA_NAEBVPxGeometry@physx@@AEBVPxTransform@2@AEBVPxConvexMeshGeometry@2@1AEBVPxVec3@2@MAEAUPxSweepHit@2@V?$PxFlags@W4Enum@PxHitFlag@physx@@G@2@M@Z 0000000180041310 f   GuSweepSharedTests.obj
 0001:00040750       ?sweepConvex_SphereGeom@@YA_NAEBVPxGeometry@physx@@AEBVPxTransform@2@AEBVPxConvexMeshGeometry@2@1AEBVPxVec3@2@MAEAUPxSweepHit@2@V?$PxFlags@W4Enum@PxHitFlag@physx@@G@2@M@Z 0000000180041750 f   GuSweepSharedTests.obj
 0001:00041390       ?sweepCapsule_BoxGeom@@YA_NAEBVPxGeometry@physx@@AEBVPxTransform@2@AEBVPxCapsuleGeometry@2@1AEBVCapsule@Gu@2@AEBVPxVec3@2@MAEAUPxSweepHit@2@V?$PxFlags@W4Enum@PxHitFlag@physx@@G@2@M@Z 0000000180042390 f   GuSweepTests.obj
 0001:00041cb0       ?sweepBox_SphereGeom@@YA_NAEBVPxGeometry@physx@@AEBVPxTransform@2@AEBVPxBoxGeometry@2@1AEBVBox@Gu@2@AEBVPxVec3@2@MAEAUPxSweepHit@2@V?$PxFlags@W4Enum@PxHitFlag@physx@@G@2@M@Z 0000000180042cb0 f   GuSweepTests.obj
 0001:00042480       ?sweepBox_CapsuleGeom@@YA_NAEBVPxGeometry@physx@@AEBVPxTransform@2@AEBVPxBoxGeometry@2@1AEBVBox@Gu@2@AEBVPxVec3@2@MAEAUPxSweepHit@2@V?$PxFlags@W4Enum@PxHitFlag@physx@@G@2@M@Z 0000000180043480 f   GuSweepTests.obj
 0001:00042d90       ?sweepBox_BoxGeom@@YA_NAEBVPxGeometry@physx@@AEBVPxTransform@2@AEBVPxBoxGeometry@2@1AEBVBox@Gu@2@AEBVPxVec3@2@MAEAUPxSweepHit@2@V?$PxFlags@W4Enum@PxHitFlag@physx@@G@2@M@Z 0000000180043d90 f   GuSweepTests.obj
 0001:00043840       ??$gjkPenetration@U?$LocalConvex@VCapsuleV@Gu@physx@@@Gu@physx@@U?$LocalConvex@VBoxV@Gu@physx@@@23@@Gu@physx@@YA?AW4GjkStatus@01@AEBU?$LocalConvex@VCapsuleV@Gu@physx@@@01@AEBU?$LocalConvex@VBoxV@Gu@physx@@@01@AEBT__m128@@2_NPEIAE4AEAEAEAUGjkOutput@01@@Z 0000000180044840 f i GuSweepTests.obj
 0001:00044f60       ??$gjkPenetration@U?$RelativeConvex@VBoxV@Gu@physx@@@Gu@physx@@U?$LocalConvex@VBoxV@Gu@physx@@@23@@Gu@physx@@YA?AW4GjkStatus@01@AEBU?$RelativeConvex@VBoxV@Gu@physx@@@01@AEBU?$LocalConvex@VBoxV@Gu@physx@@@01@AEBT__m128@@2_NPEIAE4AEAEAEAUGjkOutput@01@@Z 0000000180045f60 f i GuSweepTests.obj
 0001:00046660       ??$gjkRaycast@U?$LocalConvex@VCapsuleV@Gu@physx@@@Gu@physx@@U?$LocalConvex@VBoxV@Gu@physx@@@23@@Gu@physx@@YA_NAEBU?$LocalConvex@VCapsuleV@Gu@physx@@@01@AEBU?$LocalConvex@VBoxV@Gu@physx@@@01@AEBT__m128@@222AEAT4@33M@Z 0000000180047660 f i GuSweepTests.obj
 0001:00047270       ??$gjkRaycast@U?$LocalConvex@VTriangleV@Gu@physx@@@Gu@physx@@U?$LocalConvex@VBoxV@Gu@physx@@@23@@Gu@physx@@YA_NAEBU?$LocalConvex@VTriangleV@Gu@physx@@@01@AEBU?$LocalConvex@VBoxV@Gu@physx@@@01@AEBT__m128@@222AEAT4@33M@Z 0000000180048270 f i GuSweepTests.obj
 0001:00047f20       ??$gjkRaycast@U?$RelativeConvex@VBoxV@Gu@physx@@@Gu@physx@@U?$LocalConvex@VBoxV@Gu@physx@@@23@@Gu@physx@@YA_NAEBU?$RelativeConvex@VBoxV@Gu@physx@@@01@AEBU?$LocalConvex@VBoxV@Gu@physx@@@01@AEBT__m128@@222AEAT4@33M@Z 0000000180048f20 f i GuSweepTests.obj
 0001:00048bb0       ?getSweepFuncTable@Gu@physx@@YAAEBUGeomSweepFuncs@12@XZ 0000000180049bb0 f   GuSweepTests.obj
 0001:00048bc0       ?getSweepMargin@?$RelativeConvex@VTriangleV@Gu@physx@@@Gu@physx@@UEBA?AT__m128@@XZ 0000000180049bc0 f i GuCCDSweepPrimitives.obj
 0001:00048bc0       ?getSweepMargin@?$LocalConvex@VTriangleV@Gu@physx@@@Gu@physx@@UEBA?AT__m128@@XZ 0000000180049bc0 f i GuSweepTests.obj
 0001:00048bd0       ?registerHeightFields_Sweeps@@YAXXZ 0000000180049bd0 f   GuSweepTests.obj
 0001:00048c10       ?support@?$LocalConvex@VBoxV@Gu@physx@@@Gu@physx@@UEBA?AT__m128@@AEBT4@@Z 0000000180049c10 f i GuSweepTests.obj
 0001:00048c40       ?support@?$LocalConvex@VBoxV@Gu@physx@@@Gu@physx@@UEBA?AT__m128@@AEBT4@AEAH@Z 0000000180049c40 f i GuSweepTests.obj
 0001:00048c80       ?support@?$LocalConvex@VTriangleV@Gu@physx@@@Gu@physx@@UEBA?AT__m128@@AEBT4@@Z 0000000180049c80 f i GuSweepTests.obj
 0001:00048d10       ?support@?$LocalConvex@VTriangleV@Gu@physx@@@Gu@physx@@UEBA?AT__m128@@AEBT4@AEAH@Z 0000000180049d10 f i GuSweepTests.obj
 0001:00048df0       ?supportPoint@?$LocalConvex@VBoxV@Gu@physx@@@Gu@physx@@UEBA?AT__m128@@H@Z 0000000180049df0 f i GuSweepTests.obj
 0001:00048e30       ?supportPoint@?$LocalConvex@VTriangleV@Gu@physx@@@Gu@physx@@UEBA?AT__m128@@H@Z 0000000180049e30 f i GuSweepTests.obj
 0001:00048e50       ?sweepBoxTriangles@Gu@physx@@YA_NIPEBVPxTriangle@2@_NAEBVPxBoxGeometry@2@AEBVPxTransform@2@AEBVPxVec3@2@MAEAUPxSweepHit@2@PEBIMV?$PxFlags@W4Enum@PxHitFlag@physx@@G@2@@Z 0000000180049e50 f   GuSweepTests.obj
 0001:000498a0       ??$?_UV?$ReflectionAllocator@VAABBTreeBuildNode@Gu@physx@@@shdfnd@physx@@@UserAllocated@shdfnd@physx@@SAPEAX_KV?$ReflectionAllocator@VAABBTreeBuildNode@Gu@physx@@@12@PEBDH@Z 000000018004a8a0 f i GuAABBTreeBuild.obj
 0001:00049940       ??$copy@V?$ReflectionAllocator@USlab@NodeAllocator@Gu@physx@@@shdfnd@physx@@@?$Array@USlab@NodeAllocator@Gu@physx@@V?$ReflectionAllocator@USlab@NodeAllocator@Gu@physx@@@shdfnd@4@@shdfnd@physx@@IEAAXAEBV012@@Z 000000018004a940 f i GuAABBTreeBuild.obj
 0001:000499c0       ??0AABBTreeBuildNode@Gu@physx@@QEAA@AEBV012@@Z 000000018004a9c0 f i GuAABBTreeBuild.obj
 0001:000499c0       ??4AABBTreeBuildNode@Gu@physx@@QEAAAEAV012@AEBV012@@Z 000000018004a9c0 f i GuAABBTreeBuild.obj
 0001:00049a00       ??0AABBTreeBuildParams@Gu@physx@@QEAA@IIPEBVPxBounds3@2@@Z 000000018004aa00 f i GuAABBTreeBuild.obj
 0001:00049a20       ??0BuildStats@Gu@physx@@QEAA@XZ 000000018004aa20 f i GuAABBTreeBuild.obj
 0001:00049a30       ??0NodeAllocator@Gu@physx@@QEAA@AEBV012@@Z 000000018004aa30 f i GuAABBTreeBuild.obj
 0001:00049a70       ??0NodeAllocator@Gu@physx@@QEAA@XZ 000000018004aa70 f   GuAABBTreeBuild.obj
 0001:00049a90       ??1AABBTreeBuildParams@Gu@physx@@QEAA@XZ 000000018004aa90 f i GuAABBTreeBuild.obj
 0001:00049af0       ??1NodeAllocator@Gu@physx@@QEAA@XZ 000000018004aaf0 f   GuAABBTreeBuild.obj
 0001:00049b30       ??4AABBTreeBuildParams@Gu@physx@@QEAAAEAV012@AEBV012@@Z 000000018004ab30 f i GuAABBTreeBuild.obj
 0001:00049b50       ??4BuildStats@Gu@physx@@QEAAAEAU012@$$QEAU012@@Z 000000018004ab50 f i GuAABBTreeBuild.obj
 0001:00049b60       ??4BuildStats@Gu@physx@@QEAAAEAU012@AEBU012@@Z 000000018004ab60 f i GuAABBTreeBuild.obj
 0001:00049b70       ??4NodeAllocator@Gu@physx@@QEAAAEAV012@AEBV012@@Z 000000018004ab70 f i GuAABBTreeBuild.obj
 0001:00049c20       ??_FAABBTreeBuildParams@Gu@physx@@QEAAXXZ 000000018004ac20 f i GuAABBTreeBuild.obj
 0001:00049c40       ?_buildHierarchy@AABBTreeBuildNode@Gu@physx@@QEAAXAEAVAABBTreeBuildParams@23@AEAUBuildStats@23@AEAVNodeAllocator@23@QEAI@Z 000000018004ac40 f   GuAABBTreeBuild.obj
 0001:00049cd0       ?allocate@?$Array@USlab@NodeAllocator@Gu@physx@@V?$ReflectionAllocator@USlab@NodeAllocator@Gu@physx@@@shdfnd@4@@shdfnd@physx@@IEAAPEAUSlab@NodeAllocator@Gu@3@I@Z 000000018004acd0 f i GuAABBTreeBuild.obj
 0001:00049d70       ?buildAABBTree@Gu@physx@@YA_NAEAVAABBTreeBuildParams@12@AEAVNodeAllocator@12@AEAUBuildStats@12@AEAPEAI@Z 000000018004ad70 f   GuAABBTreeBuild.obj
 0001:00049dd0       ?getBiNode@NodeAllocator@Gu@physx@@QEAAPEAVAABBTreeBuildNode@23@XZ 000000018004add0 f   GuAABBTreeBuild.obj
 0001:00049f30       ?getNbTriangles@TriangleMesh@Gu@physx@@UEBAIXZ 000000018004af30 f i GuTriangleMesh.obj
 0001:00049f30       ?getNbPrimitives@AABBTreeBuildNode@Gu@physx@@QEBAIXZ 000000018004af30 f i GuAABBTreeBuild.obj
 0001:00049f30       ?getNbRuntimePrimitives@AABBTreeBuildNode@Gu@physx@@QEBAIXZ 000000018004af30 f i GuAABBTreeBuild.obj
 0001:00049f40       ?getNeg@AABBTreeBuildNode@Gu@physx@@QEBAPEBV123@XZ 000000018004af40 f i GuAABBTreeBuild.obj
 0001:00049f60       ?getPrimitives@AABBTreeBuildNode@Gu@physx@@QEAAPEAIPEAI@Z 000000018004af60 f i GuAABBTreeBuild.obj
 0001:00049f60       ?getPrimitives@AABBTreeBuildNode@Gu@physx@@QEBAPEBIPEBI@Z 000000018004af60 f i GuAABBTreeBuild.obj
 0001:00049f70       ?growAndPushBack@?$Array@USlab@NodeAllocator@Gu@physx@@V?$ReflectionAllocator@USlab@NodeAllocator@Gu@physx@@@shdfnd@4@@shdfnd@physx@@IEAAAEAUSlab@NodeAllocator@Gu@3@AEBU4563@@Z 000000018004af70 f i GuAABBTreeBuild.obj
 0001:0004a030       ?increaseCount@BuildStats@Gu@physx@@QEAAXI@Z 000000018004b030 f i GuAABBTreeBuild.obj
 0001:0004a040       ?init@NodeAllocator@Gu@physx@@QEAAXII@Z 000000018004b040 f   GuAABBTreeBuild.obj
 0001:0004a170       ?initAABBTreeBuild@Gu@physx@@YA_NAEAVAABBTreeBuildParams@12@AEAVNodeAllocator@12@AEAUBuildStats@12@AEAPEAI@Z 000000018004b170 f   GuAABBTreeBuild.obj
 0001:0004a380       ?isLeaf@AABBTreeBuildNode@Gu@physx@@QEBA_NXZ 000000018004b380 f i GuAABBTreeBuild.obj
 0001:0004a390       ?recreate@?$Array@USlab@NodeAllocator@Gu@physx@@V?$ReflectionAllocator@USlab@NodeAllocator@Gu@physx@@@shdfnd@4@@shdfnd@physx@@IEAAXI@Z 000000018004b390 f i GuAABBTreeBuild.obj
 0001:0004a440       ?release@NodeAllocator@Gu@physx@@QEAAXXZ 000000018004b440 f   GuAABBTreeBuild.obj
 0001:0004a500       ?reset@AABBTreeBuildParams@Gu@physx@@QEAAXXZ 000000018004b500 f i GuAABBTreeBuild.obj
 0001:0004a560       ?reset@BuildStats@Gu@physx@@QEAAXXZ 000000018004b560 f i GuAABBTreeBuild.obj
 0001:0004a570       ?resize@?$Array@USlab@NodeAllocator@Gu@physx@@V?$ReflectionAllocator@USlab@NodeAllocator@Gu@physx@@@shdfnd@4@@shdfnd@physx@@QEAAXIAEBUSlab@NodeAllocator@Gu@3@@Z 000000018004b570 f i GuAABBTreeBuild.obj
 0001:0004a5f0       ?setCount@BuildStats@Gu@physx@@QEAAXI@Z 000000018004b5f0 f i GuAABBTreeBuild.obj
 0001:0004a600       ?setNbRunTimePrimitives@AABBTreeBuildNode@Gu@physx@@QEAAXI@Z 000000018004b600 f i GuAABBTreeBuild.obj
 0001:0004a770       ?subdivide@AABBTreeBuildNode@Gu@physx@@QEAAXAEBVAABBTreeBuildParams@23@AEAUBuildStats@23@AEAVNodeAllocator@23@QEAI@Z 000000018004b770 f   GuAABBTreeBuild.obj
 0001:0004a950       ??0BVHStructure@Gu@physx@@QEAA@PEAVGuMeshFactory@2@@Z 000000018004b950 f   GuBVHStructure.obj
 0001:0004a9b0       ??0BVHStructure@Gu@physx@@QEAA@PEAVGuMeshFactory@2@AEAUBVHStructureData@12@@Z 000000018004b9b0 f   GuBVHStructure.obj
 0001:0004aa20       ??1?$Array@PEBUBVHNode@Gu@physx@@V?$InlineAllocator@$0IAA@V?$ReflectionAllocator@PEBUBVHNode@Gu@physx@@@shdfnd@physx@@@shdfnd@3@@shdfnd@physx@@QEAA@XZ 000000018004ba20 f i GuBVHStructure.obj
 0001:0004aa20       ??1?$Array@USortedTriangle@Gu@physx@@V?$InlineAllocator@$0IAA@V?$ReflectionAllocator@USortedTriangle@Gu@physx@@@shdfnd@physx@@@shdfnd@3@@shdfnd@physx@@QEAA@XZ 000000018004ba20 f i GuPCMContactSphereHeightField.obj
 0001:0004aa70       ??1?$InlineArray@PEBUBVHNode@Gu@physx@@$0BAA@V?$ReflectionAllocator@PEBUBVHNode@Gu@physx@@@shdfnd@3@@shdfnd@physx@@QEAA@XZ 000000018004ba70 f i GuBVHStructure.obj
 0001:0004aac0       ??R?$AABBTreeOverlap@UAABBAABBTest@Gu@physx@@UBVHTree@23@UBVHNode@23@IUBVHCallback@23@@Gu@physx@@QEAA_NPEBIPEBVPxBounds3@2@AEBUBVHTree@12@AEBUAABBAABBTest@12@AEAUBVHCallback@12@@Z 000000018004bac0 f i GuBVHStructure.obj
 0001:0004adb0       ??R?$AABBTreeRaycast@$00UBVHTree@Gu@physx@@UBVHNode@23@IUBVHCallback@23@@Gu@physx@@QEAA_NPEBIPEBVPxBounds3@2@AEBUBVHTree@12@AEBVPxVec3@2@3AEAM3AEAUBVHCallback@12@@Z 000000018004bdb0 f i GuBVHStructure.obj
 0001:0004b480       ??R?$AABBTreeRaycast@$0A@UBVHTree@Gu@physx@@UBVHNode@23@IUBVHCallback@23@@Gu@physx@@QEAA_NPEBIPEBVPxBounds3@2@AEBUBVHTree@12@AEBVPxVec3@2@3AEAM3AEAUBVHCallback@12@@Z 000000018004c480 f i GuBVHStructure.obj
 0001:0004bb18       ??_EBVHStructure@Gu@physx@@WBA@EAAPEAXI@Z 000000018004cb18 f i GuBVHStructure.obj
 0001:0004bb30       ??_GBVHStructure@Gu@physx@@UEAAPEAXI@Z 000000018004cb30 f i GuBVHStructure.obj
 0001:0004bb30       ??_EBVHStructure@Gu@physx@@UEAAPEAXI@Z 000000018004cb30 f i GuBVHStructure.obj
 0001:0004bb90       ??_GRefCountable@Cm@physx@@UEAAPEAXI@Z 000000018004cb90 f i GuBVHStructure.obj
 0001:0004bb90       ??_ERefCountable@Cm@physx@@UEAAPEAXI@Z 000000018004cb90 f i GuBVHStructure.obj
 0001:0004bbc0       ?allocate@?$Array@PEBUBVHNode@Gu@physx@@V?$InlineAllocator@$0IAA@V?$ReflectionAllocator@PEBUBVHNode@Gu@physx@@@shdfnd@physx@@@shdfnd@3@@shdfnd@physx@@IEAAPEAPEBUBVHNode@Gu@3@I@Z 000000018004cbc0 f i GuBVHStructure.obj
 0001:0004bc80       ?createVolumes@BVHStructure@Gu@physx@@AEBAXXZ 000000018004cc80 f   GuBVHStructure.obj
 0001:0004bd10       ?getTriangles@TriangleMesh@Gu@physx@@UEBAPEBXXZ 000000018004cd10 f i GuTriangleMesh.obj
 0001:0004bd10       ?getBounds@BVHStructure@Gu@physx@@UEBAPEBVPxBounds3@3@XZ 000000018004cd10 f i GuBVHStructure.obj
 0001:0004bd20       ?getConcreteTypeName@PxBVHStructure@physx@@UEBAPEBDXZ 000000018004cd20 f i GuBVHStructure.obj
 0001:0004bd30       ?getNbBounds@BVHStructure@Gu@physx@@UEBAIXZ 000000018004cd30 f i GuBVHStructure.obj
 0001:0004bd40       ?isKindOf@PxBVHStructure@physx@@MEBA_NPEBD@Z 000000018004cd40 f i GuBVHStructure.obj
 0001:0004bd90       ?load@BVHStructure@Gu@physx@@QEAA_NAEAVPxInputStream@3@@Z 000000018004cd90 f   GuBVHStructure.obj
 0001:0004bf50       ?onRefCountZero@BVHStructure@Gu@physx@@UEAAXXZ 000000018004cf50 f   GuBVHStructure.obj
 0001:0004c080       ?onRefCountZero@RefCountable@Cm@physx@@UEAAXXZ 000000018004d080 f i GuBVHStructure.obj
 0001:0004c0a0       ?overlap@BVHStructure@Gu@physx@@UEBAIAEBVPxBounds3@3@IPEIAI@Z 000000018004d0a0 f   GuBVHStructure.obj
 0001:0004c1e0       ?raycast@BVHStructure@Gu@physx@@UEBAIAEBVPxVec3@3@0MIPEIAI@Z 000000018004d1e0 f   GuBVHStructure.obj
 0001:0004c2b0       ?recreate@?$Array@PEBUBVHNode@Gu@physx@@V?$InlineAllocator@$0IAA@V?$ReflectionAllocator@PEBUBVHNode@Gu@physx@@@shdfnd@physx@@@shdfnd@3@@shdfnd@physx@@IEAAXI@Z 000000018004d2b0 f i GuBVHStructure.obj
 0001:0004c360       ?release@BVHStructure@Gu@physx@@UEAAXXZ 000000018004d360 f   GuBVHStructure.obj
 0001:0004c360       ?release@HeightField@Gu@physx@@UEAAXXZ 000000018004d360 f   GuHeightField.obj
 0001:0004c360       ?release@ConvexMesh@Gu@physx@@UEAAXXZ 000000018004d360 f   GuConvexMesh.obj
 0001:0004c360       ?release@TriangleMesh@Gu@physx@@UEAAXXZ 000000018004d360 f   GuTriangleMesh.obj
 0001:0004c390       ?resizeUninitialized@?$Array@PEBUBVHNode@Gu@physx@@V?$InlineAllocator@$0IAA@V?$ReflectionAllocator@PEBUBVHNode@Gu@physx@@@shdfnd@physx@@@shdfnd@3@@shdfnd@physx@@QEAAXI@Z 000000018004d390 f i GuBVHStructure.obj
 0001:0004c3e0       ?sweep@BVHStructure@Gu@physx@@UEBAIAEBVPxBounds3@3@AEBVPxVec3@3@MIPEIAI@Z 000000018004d3e0 f   GuBVHStructure.obj
 0001:0004c540       ??1?$Array@IV?$InlineAllocator@$0BAA@V?$ReflectionAllocator@I@shdfnd@physx@@@shdfnd@physx@@@shdfnd@physx@@QEAA@XZ 000000018004d540 f i GuCCDSweepConvexMesh.obj
 0001:0004c590       ??1?$InlineArray@I$0EA@V?$ReflectionAllocator@I@shdfnd@physx@@@shdfnd@physx@@QEAA@XZ 000000018004d590 f i GuCCDSweepConvexMesh.obj
 0001:0004c5e0       ??1PCMCapsuleVsMeshContactGenerationCallback@physx@@UEAA@XZ 000000018004d5e0 f   GuPCMContactCapsuleMesh.obj
 0001:0004c5e0       ??1SweepBoxMeshHitCallback@Gu@physx@@UEAA@XZ 000000018004d5e0 f   GuMidphaseBV4.obj
 0001:0004c5e0       ??1SweepConvexMeshHitCallback@Gu@physx@@UEAA@XZ 000000018004d5e0 f   GuSweepsMesh.obj
 0001:0004c680       ?SweepAnyShapeHeightfield@Gu@physx@@YAMAEBUCCDShape@12@0AEBVPxTransform@2@111MAEAVPxVec3@2@2MAEAIM@Z 000000018004d680 f   GuCCDSweepConvexMesh.obj
 0001:0004d8b0       ?SweepAnyShapeMesh@Gu@physx@@YAMAEBUCCDShape@12@0AEBVPxTransform@2@111MAEAVPxVec3@2@2MAEAIM@Z 000000018004e8b0 f   GuCCDSweepConvexMesh.obj
 0001:0004f020       ?SweepEstimateAnyShapeHeightfield@Gu@physx@@YAMAEBUCCDShape@12@0AEBVPxTransform@2@111MM@Z 0000000180050020 f   GuCCDSweepConvexMesh.obj
 0001:0004f840       ?SweepEstimateAnyShapeMesh@Gu@physx@@YAMAEBUCCDShape@12@0AEBVPxTransform@2@111MM@Z 0000000180050840 f   GuCCDSweepConvexMesh.obj
 0001:00050680       ?growAndPushBack@?$Array@IV?$InlineAllocator@$0BAA@V?$ReflectionAllocator@I@shdfnd@physx@@@shdfnd@physx@@@shdfnd@physx@@IEAAAEAIAEBI@Z 0000000180051680 f i GuCCDSweepConvexMesh.obj
 0001:00050db0       ?recreate@?$Array@IV?$InlineAllocator@$0BAA@V?$ReflectionAllocator@I@shdfnd@physx@@@shdfnd@physx@@@shdfnd@physx@@IEAAXI@Z 0000000180051db0 f i GuCCDSweepConvexMesh.obj
 0001:00050e90       ?resize@?$Array@IV?$InlineAllocator@$0BAA@V?$ReflectionAllocator@I@shdfnd@physx@@@shdfnd@physx@@@shdfnd@physx@@QEAAXIAEBI@Z 0000000180051e90 f i GuCCDSweepConvexMesh.obj
 0001:00050f60       ?resize@?$Array@IV?$ReflectionAllocator@I@shdfnd@physx@@@shdfnd@physx@@QEAAXIAEBI@Z 0000000180051f60 f i GuCCDSweepConvexMesh.obj
 0001:00051020       ?transformBoxOrthonormal@physx@@YA?AVBox@Gu@1@AEBV231@AEBVPxTransform@1@@Z 0000000180052020 f i GuCCDSweepConvexMesh.obj
 0001:000514b0       ?UnimplementedSweep@Gu@physx@@YAMAEBUCCDShape@12@0AEBVPxTransform@2@111MAEAVPxVec3@2@2MAEAIM@Z 00000001800524b0 f   GuCCDSweepPrimitives.obj
 0001:000514c0       ??$SweepGeomGeom@VCapsuleV@Gu@physx@@V123@@Gu@physx@@YAMAEBUCCDShape@01@0AEBVPxTransform@1@111MAEAVPxVec3@1@2MAEAIM@Z 00000001800524c0 f i GuCCDSweepPrimitives.obj
 0001:00051640       ??$SweepGeomGeom@VCapsuleV@Gu@physx@@VBoxV@23@@Gu@physx@@YAMAEBUCCDShape@01@0AEBVPxTransform@1@111MAEAVPxVec3@1@2MAEAIM@Z 0000000180052640 f i GuCCDSweepPrimitives.obj
 0001:000517f0       ??$SweepGeomGeom@VCapsuleV@Gu@physx@@VConvexHullV@23@@Gu@physx@@YAMAEBUCCDShape@01@0AEBVPxTransform@1@111MAEAVPxVec3@1@2MAEAIM@Z 00000001800527f0 f i GuCCDSweepPrimitives.obj
 0001:00051d80       ??$SweepGeomGeom@VBoxV@Gu@physx@@V123@@Gu@physx@@YAMAEBUCCDShape@01@0AEBVPxTransform@1@111MAEAVPxVec3@1@2MAEAIM@Z 0000000180052d80 f i GuCCDSweepPrimitives.obj
 0001:00051f50       ??$SweepGeomGeom@VBoxV@Gu@physx@@VConvexHullV@23@@Gu@physx@@YAMAEBUCCDShape@01@0AEBVPxTransform@1@111MAEAVPxVec3@1@2MAEAIM@Z 0000000180052f50 f i GuCCDSweepPrimitives.obj
 0001:000524f0       ??$SweepGeomGeom@VConvexHullV@Gu@physx@@V123@@Gu@physx@@YAMAEBUCCDShape@01@0AEBVPxTransform@1@111MAEAVPxVec3@1@2MAEAIM@Z 00000001800534f0 f i GuCCDSweepPrimitives.obj
 0001:00052e40       ?UnimplementedTriangleSweep@Gu@physx@@YAMAEBVGeometryUnion@12@0AEBVPxTransform@2@111MAEAVPxVec3@2@2AEBVFastVertex2ShapeScaling@Cm@2@AEAVTriangleV@12@M@Z 0000000180053e40 f   GuCCDSweepPrimitives.obj
 0001:00052e50       ??$SweepGeomTriangles@VCapsuleV@Gu@physx@@@Gu@physx@@YAMAEBVGeometryUnion@01@0AEBVPxTransform@1@111MAEAVPxVec3@1@2AEBVFastVertex2ShapeScaling@Cm@1@AEAVTriangleV@01@M@Z 0000000180053e50 f i GuCCDSweepPrimitives.obj
 0001:00052f60       ??$SweepGeomTriangles@VBoxV@Gu@physx@@@Gu@physx@@YAMAEBVGeometryUnion@01@0AEBVPxTransform@1@111MAEAVPxVec3@1@2AEBVFastVertex2ShapeScaling@Cm@1@AEAVTriangleV@01@M@Z 0000000180053f60 f i GuCCDSweepPrimitives.obj
 0001:00053090       ??$SweepGeomTriangles@VConvexHullV@Gu@physx@@@Gu@physx@@YAMAEBVGeometryUnion@01@0AEBVPxTransform@1@111MAEAVPxVec3@1@2AEBVFastVertex2ShapeScaling@Cm@1@AEAVTriangleV@01@M@Z 0000000180054090 f i GuCCDSweepPrimitives.obj
 0001:000535c0       ?supportPoint@?$RelativeConvex@VCapsuleV@Gu@physx@@@Gu@physx@@UEBA?AT__m128@@H@Z 00000001800545c0 f i GuCCDSweepPrimitives.obj
 0001:00053620       ?support@?$RelativeConvex@VCapsuleV@Gu@physx@@@Gu@physx@@UEBA?AT__m128@@AEBT4@@Z 0000000180054620 f i GuCCDSweepPrimitives.obj
 0001:000536d0       ?support@?$RelativeConvex@VCapsuleV@Gu@physx@@@Gu@physx@@UEBA?AT__m128@@AEBT4@AEAH@Z 00000001800546d0 f i GuCCDSweepPrimitives.obj
 0001:00053790       ?supportPoint@?$RelativeConvex@VTriangleV@Gu@physx@@@Gu@physx@@UEBA?AT__m128@@H@Z 0000000180054790 f i GuCCDSweepPrimitives.obj
 0001:000537e0       ?support@?$RelativeConvex@VTriangleV@Gu@physx@@@Gu@physx@@UEBA?AT__m128@@AEBT4@@Z 00000001800547e0 f i GuCCDSweepPrimitives.obj
 0001:000538e0       ?support@?$RelativeConvex@VTriangleV@Gu@physx@@@Gu@physx@@UEBA?AT__m128@@AEBT4@AEAH@Z 00000001800548e0 f i GuCCDSweepPrimitives.obj
 0001:00057920       ??$gjkPenetration@U?$RelativeConvex@VCapsuleV@Gu@physx@@@Gu@physx@@U?$LocalConvex@VBoxV@Gu@physx@@@23@@Gu@physx@@YA?AW4GjkStatus@01@AEBU?$RelativeConvex@VCapsuleV@Gu@physx@@@01@AEBU?$LocalConvex@VBoxV@Gu@physx@@@01@AEBT__m128@@2_NPEIAE4AEAEAEAUGjkOutput@01@@Z 0000000180058920 f i GuCCDSweepPrimitives.obj
 0001:00059060       ??$gjkPenetration@U?$RelativeConvex@VCapsuleV@Gu@physx@@@Gu@physx@@U?$LocalConvex@VCapsuleV@Gu@physx@@@23@@Gu@physx@@YA?AW4GjkStatus@01@AEBU?$RelativeConvex@VCapsuleV@Gu@physx@@@01@AEBU?$LocalConvex@VCapsuleV@Gu@physx@@@01@AEBT__m128@@2_NPEIAE4AEAEAEAUGjkOutput@01@@Z 000000018005a060 f i GuCCDSweepPrimitives.obj
 0001:0005a7c0       ??$gjkPenetration@U?$RelativeConvex@VCapsuleV@Gu@physx@@@Gu@physx@@U?$LocalConvex@VConvexHullV@Gu@physx@@@23@@Gu@physx@@YA?AW4GjkStatus@01@AEBU?$RelativeConvex@VCapsuleV@Gu@physx@@@01@AEBU?$LocalConvex@VConvexHullV@Gu@physx@@@01@AEBT__m128@@2_NPEIAE4AEAEAEAUGjkOutput@01@@Z 000000018005b7c0 f i GuCCDSweepPrimitives.obj
 0001:0005c010       ??$gjkPenetration@U?$RelativeConvex@VTriangleV@Gu@physx@@@Gu@physx@@U?$LocalConvex@VBoxV@Gu@physx@@@23@@Gu@physx@@YA?AW4GjkStatus@01@AEBU?$RelativeConvex@VTriangleV@Gu@physx@@@01@AEBU?$LocalConvex@VBoxV@Gu@physx@@@01@AEBT__m128@@2_NPEIAE4AEAEAEAUGjkOutput@01@@Z 000000018005d010 f i GuCCDSweepPrimitives.obj
 0001:0005d7c0       ??$gjkPenetration@U?$RelativeConvex@VTriangleV@Gu@physx@@@Gu@physx@@U?$LocalConvex@VCapsuleV@Gu@physx@@@23@@Gu@physx@@YA?AW4GjkStatus@01@AEBU?$RelativeConvex@VTriangleV@Gu@physx@@@01@AEBU?$LocalConvex@VCapsuleV@Gu@physx@@@01@AEBT__m128@@2_NPEIAE4AEAEAEAUGjkOutput@01@@Z 000000018005e7c0 f i GuCCDSweepPrimitives.obj
 0001:0005ef60       ??$gjkPenetration@U?$RelativeConvex@VTriangleV@Gu@physx@@@Gu@physx@@U?$LocalConvex@VConvexHullV@Gu@physx@@@23@@Gu@physx@@YA?AW4GjkStatus@01@AEBU?$RelativeConvex@VTriangleV@Gu@physx@@@01@AEBU?$LocalConvex@VConvexHullV@Gu@physx@@@01@AEBT__m128@@2_NPEIAE4AEAEAEAUGjkOutput@01@@Z 000000018005ff60 f i GuCCDSweepPrimitives.obj
 0001:000607b0       ??$gjkRaycast@U?$RelativeConvex@VCapsuleV@Gu@physx@@@Gu@physx@@U?$LocalConvex@VBoxV@Gu@physx@@@23@@Gu@physx@@YA_NAEBU?$RelativeConvex@VCapsuleV@Gu@physx@@@01@AEBU?$LocalConvex@VBoxV@Gu@physx@@@01@AEBT__m128@@222AEAT4@33M@Z 00000001800617b0 f i GuCCDSweepPrimitives.obj
 0001:000614a0       ??$gjkRaycast@U?$RelativeConvex@VCapsuleV@Gu@physx@@@Gu@physx@@U?$LocalConvex@VCapsuleV@Gu@physx@@@23@@Gu@physx@@YA_NAEBU?$RelativeConvex@VCapsuleV@Gu@physx@@@01@AEBU?$LocalConvex@VCapsuleV@Gu@physx@@@01@AEBT__m128@@222AEAT4@33M@Z 00000001800624a0 f i GuCCDSweepPrimitives.obj
 0001:000621e0       ??$gjkRaycast@U?$RelativeConvex@VCapsuleV@Gu@physx@@@Gu@physx@@U?$LocalConvex@VConvexHullV@Gu@physx@@@23@@Gu@physx@@YA_NAEBU?$RelativeConvex@VCapsuleV@Gu@physx@@@01@AEBU?$LocalConvex@VConvexHullV@Gu@physx@@@01@AEBT__m128@@222AEAT4@33M@Z 00000001800631e0 f i GuCCDSweepPrimitives.obj
 0001:00063090       ??$gjkRaycast@U?$RelativeConvex@VTriangleV@Gu@physx@@@Gu@physx@@U?$LocalConvex@VBoxV@Gu@physx@@@23@@Gu@physx@@YA_NAEBU?$RelativeConvex@VTriangleV@Gu@physx@@@01@AEBU?$LocalConvex@VBoxV@Gu@physx@@@01@AEBT__m128@@222AEAT4@33M@Z 0000000180064090 f i GuCCDSweepPrimitives.obj
 0001:00063e00       ??$gjkRaycast@U?$RelativeConvex@VTriangleV@Gu@physx@@@Gu@physx@@U?$LocalConvex@VCapsuleV@Gu@physx@@@23@@Gu@physx@@YA_NAEBU?$RelativeConvex@VTriangleV@Gu@physx@@@01@AEBU?$LocalConvex@VCapsuleV@Gu@physx@@@01@AEBT__m128@@222AEAT4@33M@Z 0000000180064e00 f i GuCCDSweepPrimitives.obj
 0001:00064bd0       ??$gjkRaycast@U?$RelativeConvex@VTriangleV@Gu@physx@@@Gu@physx@@U?$LocalConvex@VConvexHullV@Gu@physx@@@23@@Gu@physx@@YA_NAEBU?$RelativeConvex@VTriangleV@Gu@physx@@@01@AEBU?$LocalConvex@VConvexHullV@Gu@physx@@@01@AEBT__m128@@222AEAT4@33M@Z 0000000180065bd0 f i GuCCDSweepPrimitives.obj
 0001:00065b30       ?SweepShapeShape@Gu@physx@@YAMAEBUCCDShape@12@0AEBVPxTransform@2@111MAEAVPxVec3@2@2MAEAIM@Z 0000000180066b30 f   GuCCDSweepPrimitives.obj
 0001:00065b50       ?SweepShapeTriangle@Gu@physx@@YAMAEBVGeometryUnion@12@0AEBVPxTransform@2@111MAEAVPxVec3@2@2AEBVFastVertex2ShapeScaling@Cm@2@AEAVTriangleV@12@M@Z 0000000180066b50 f   GuCCDSweepPrimitives.obj
 0001:00065b70       ?barycentricCoordinates@Gu@physx@@YAXAEBT__m128@@000AEAT3@1@Z 0000000180066b70 f   GuBarycentricCoordinates.obj
 0001:00065cc0       ?barycentricCoordinates@Gu@physx@@YAXAEBT__m128@@00AEAT3@@Z 0000000180066cc0 f   GuBarycentricCoordinates.obj
 0001:00065d30       ?addAxis@SeparatingAxes@Gu@physx@@QEAA_NAEBVPxVec3@3@@Z 0000000180066d30 f   GuSeparatingAxes.obj
 0001:00065df0       ?contactBoxBox@Gu@physx@@YA_NAEBVGeometryUnion@12@0AEBVPxTransform@2@1AEBUNarrowPhaseParams@12@AEAUCache@12@AEAVContactBuffer@12@PEAVRenderOutput@Cm@2@@Z 0000000180066df0 f   GuContactBoxBox.obj
 0001:0006a1c0       ?contactCapsuleBox@Gu@physx@@YA_NAEBVGeometryUnion@12@0AEBVPxTransform@2@1AEBUNarrowPhaseParams@12@AEAUCache@12@AEAVContactBuffer@12@PEAVRenderOutput@Cm@2@@Z 000000018006b1c0 f   GuContactCapsuleBox.obj
 0001:0006a770       ?contactCapsuleCapsule@Gu@physx@@YA_NAEBVGeometryUnion@12@0AEBVPxTransform@2@1AEBUNarrowPhaseParams@12@AEAUCache@12@AEAVContactBuffer@12@PEAVRenderOutput@Cm@2@@Z 000000018006b770 f   GuContactCapsuleCapsule.obj
 0001:0006d170       ?contactCapsuleConvex@Gu@physx@@YA_NAEBVGeometryUnion@12@0AEBVPxTransform@2@1AEBUNarrowPhaseParams@12@AEAUCache@12@AEAVContactBuffer@12@PEAVRenderOutput@Cm@2@@Z 000000018006e170 f   GuContactCapsuleConvex.obj
 0001:0006f6a0       ?contactCapsuleHeightfield@Gu@physx@@YA_NAEBVGeometryUnion@12@0AEBVPxTransform@2@1AEBUNarrowPhaseParams@12@AEAUCache@12@AEAVContactBuffer@12@PEAVRenderOutput@Cm@2@@Z 00000001800706a0 f   GuContactCapsuleMesh.obj
 0001:0006fd30       ?contactCapsuleMesh@Gu@physx@@YA_NAEBVGeometryUnion@12@0AEBVPxTransform@2@1AEBUNarrowPhaseParams@12@AEAUCache@12@AEAVContactBuffer@12@PEAVRenderOutput@Cm@2@@Z 0000000180070d30 f   GuContactCapsuleMesh.obj
 0001:00070ec0       ?transformFast@PxBounds3@physx@@SA?AV12@AEBVPxTransform@2@AEBV12@@Z 0000000180071ec0 f i GuContactCapsuleMesh.obj
 0001:000712a0       ?transformQueryBounds@FastVertex2ShapeScaling@Cm@physx@@QEBAXAEAVPxVec3@3@0AEAVPxMat33@3@@Z 00000001800722a0 f i GuContactCapsuleMesh.obj
 0001:00075910       ?contactBoxConvex@Gu@physx@@YA_NAEBVGeometryUnion@12@0AEBVPxTransform@2@1AEBUNarrowPhaseParams@12@AEAUCache@12@AEAVContactBuffer@12@PEAVRenderOutput@Cm@2@@Z 0000000180076910 f   GuContactConvexConvex.obj
 0001:00075ab0       ?contactConvexConvex@Gu@physx@@YA_NAEBVGeometryUnion@12@0AEBVPxTransform@2@1AEBUNarrowPhaseParams@12@AEAUCache@12@AEAVContactBuffer@12@PEAVRenderOutput@Cm@2@@Z 0000000180076ab0 f   GuContactConvexConvex.obj
 0001:00075f00       ?transformPlaneToShapeSpace@FastVertex2ShapeScaling@Cm@physx@@QEBAXAEBVPxVec3@3@MAEAV43@AEAM@Z 0000000180076f00 f i GuContactConvexConvex.obj
 0001:00075ff0       ??0?$CacheMap@UCachedEdge@Gu@physx@@$0IA@@Gu@physx@@QEAA@XZ 0000000180076ff0 f i GuContactConvexMesh.obj
 0001:000760b0       ??0?$CacheMap@UCachedVertex@Gu@physx@@$0IA@@Gu@physx@@QEAA@XZ 00000001800770b0 f i GuContactConvexMesh.obj
 0001:00076680       ??1?$Array@IV?$InlineAllocator@$0BBAA@V?$ReflectionAllocator@I@shdfnd@physx@@@shdfnd@physx@@@shdfnd@physx@@QEAA@XZ 0000000180077680 f i GuContactConvexMesh.obj
 0001:000766d0       ??1?$InlineArray@I$0EEA@V?$ReflectionAllocator@I@shdfnd@physx@@@shdfnd@physx@@QEAA@XZ 00000001800776d0 f i GuContactConvexMesh.obj
 0001:00076720       ??_EConvexMeshContactGenerationCallback@@UEAAPEAXI@Z 0000000180077720 f i GuContactConvexMesh.obj
 0001:00076720       ??_GConvexMeshContactGenerationCallback@@UEAAPEAXI@Z 0000000180077720 f i GuContactConvexMesh.obj
 0001:00076780       ?addData@?$CacheMap@UCachedEdge@Gu@physx@@$0IA@@Gu@physx@@QEAA_NAEBUCachedEdge@23@@Z 0000000180077780 f i GuContactConvexMesh.obj
 0001:00076860       ?addData@?$CacheMap@UCachedVertex@Gu@physx@@$0IA@@Gu@physx@@QEAA_NAEBUCachedVertex@23@@Z 0000000180077860 f i GuContactConvexMesh.obj
 0001:00076c30       ?contactBoxHeightfield@Gu@physx@@YA_NAEBVGeometryUnion@12@0AEBVPxTransform@2@1AEBUNarrowPhaseParams@12@AEAUCache@12@AEAVContactBuffer@12@PEAVRenderOutput@Cm@2@@Z 0000000180077c30 f   GuContactConvexMesh.obj
 0001:00076da0       ?contactBoxMesh@Gu@physx@@YA_NAEBVGeometryUnion@12@0AEBVPxTransform@2@1AEBUNarrowPhaseParams@12@AEAUCache@12@AEAVContactBuffer@12@PEAVRenderOutput@Cm@2@@Z 0000000180077da0 f   GuContactConvexMesh.obj
 0001:00076f60       ?contactConvexHeightfield@Gu@physx@@YA_NAEBVGeometryUnion@12@0AEBVPxTransform@2@1AEBUNarrowPhaseParams@12@AEAUCache@12@AEAVContactBuffer@12@PEAVRenderOutput@Cm@2@@Z 0000000180077f60 f   GuContactConvexMesh.obj
 0001:000770a0       ?contactConvexMesh@Gu@physx@@YA_NAEBVGeometryUnion@12@0AEBVPxTransform@2@1AEBUNarrowPhaseParams@12@AEAUCache@12@AEAVContactBuffer@12@PEAVRenderOutput@Cm@2@@Z 00000001800780a0 f   GuContactConvexMesh.obj
 0001:0007a810       ?processHit@ConvexMeshContactGenerationCallback@@UEAA_NAEBUPxRaycastHit@physx@@AEBVPxVec3@3@11AEAMPEBI@Z 000000018007b810 f i GuContactConvexMesh.obj
 0001:0007b140       ?recreate@?$Array@IV?$InlineAllocator@$0BBAA@V?$ReflectionAllocator@I@shdfnd@physx@@@shdfnd@physx@@@shdfnd@physx@@IEAAXI@Z 000000018007c140 f i GuContactConvexMesh.obj
 0001:0007c1e0       ?contactPlaneBox@Gu@physx@@YA_NAEBVGeometryUnion@12@0AEBVPxTransform@2@1AEBUNarrowPhaseParams@12@AEAUCache@12@AEAVContactBuffer@12@PEAVRenderOutput@Cm@2@@Z 000000018007d1e0 f   GuContactPlaneBox.obj
 0001:0007cda0       ?contactPlaneCapsule@Gu@physx@@YA_NAEBVGeometryUnion@12@0AEBVPxTransform@2@1AEBUNarrowPhaseParams@12@AEAUCache@12@AEAVContactBuffer@12@PEAVRenderOutput@Cm@2@@Z 000000018007dda0 f   GuContactPlaneCapsule.obj
 0001:0007d3c0       ?contactPlaneConvex@Gu@physx@@YA_NAEBVGeometryUnion@12@0AEBVPxTransform@2@1AEBUNarrowPhaseParams@12@AEAUCache@12@AEAVContactBuffer@12@PEAVRenderOutput@Cm@2@@Z 000000018007e3c0 f   GuContactPlaneConvex.obj
 0001:0007f140       ?contactPolygonPolygonExt@Gu@physx@@YA_NIPEBVPxVec3@2@PEBEAEBVMatrix34@Cm@2@AEBVPxPlane@2@AEBVPxMat33@2@I01234AEBV32@22IIAEAVContactBuffer@12@_N5M@Z 0000000180080140 f   GuContactPolygonPolygon.obj
 0001:00080860       ?findRotationMatrixFromZ@Gu@physx@@YA?AVPxMat33@2@AEBVPxVec3@2@@Z 0000000180081860 f   GuContactPolygonPolygon.obj
 0001:00081280       ?contactSphereBox@Gu@physx@@YA_NAEBVGeometryUnion@12@0AEBVPxTransform@2@1AEBUNarrowPhaseParams@12@AEAUCache@12@AEAVContactBuffer@12@PEAVRenderOutput@Cm@2@@Z 0000000180082280 f   GuContactSphereBox.obj
 0001:00081840       ?contactSphereCapsule@Gu@physx@@YA_NAEBVGeometryUnion@12@0AEBVPxTransform@2@1AEBUNarrowPhaseParams@12@AEAUCache@12@AEAVContactBuffer@12@PEAVRenderOutput@Cm@2@@Z 0000000180082840 f   GuContactSphereCapsule.obj
 0001:00081ff0       ??1?$ScopedPointer@HVTempAllocator@shdfnd@physx@@@shdfnd@physx@@QEAA@XZ 0000000180082ff0 f i GuContactSphereMesh.obj
 0001:00081ff0       ??1?$ScopedPointer@VPxTriangle@physx@@VTempAllocator@shdfnd@2@@shdfnd@physx@@QEAA@XZ 0000000180082ff0 f i GuSweepCapsuleBox.obj
 0001:000826c0       ?contactSphereHeightfield@Gu@physx@@YA_NAEBVGeometryUnion@12@0AEBVPxTransform@2@1AEBUNarrowPhaseParams@12@AEAUCache@12@AEAVContactBuffer@12@PEAVRenderOutput@Cm@2@@Z 00000001800836c0 f   GuContactSphereMesh.obj
 0001:00083070       ?contactSphereMesh@Gu@physx@@YA_NAEBVGeometryUnion@12@0AEBVPxTransform@2@1AEBUNarrowPhaseParams@12@AEAUCache@12@AEAVContactBuffer@12@PEAVRenderOutput@Cm@2@@Z 0000000180084070 f   GuContactSphereMesh.obj
 0001:00085380       ?contactSpherePlane@Gu@physx@@YA_NAEBVGeometryUnion@12@0AEBVPxTransform@2@1AEBUNarrowPhaseParams@12@AEAUCache@12@AEAVContactBuffer@12@PEAVRenderOutput@Cm@2@@Z 0000000180086380 f   GuContactSpherePlane.obj
 0001:00085580       ?contactSphereSphere@Gu@physx@@YA_NAEBVGeometryUnion@12@0AEBVPxTransform@2@1AEBUNarrowPhaseParams@12@AEAUCache@12@AEAVContactBuffer@12@PEAVRenderOutput@Cm@2@@Z 0000000180086580 f   GuContactSphereSphere.obj
 0001:000856f0       ?selectNormal@Gu@physx@@YA_NEMM@Z 00000001800866f0 f   GuFeatureCode.obj
 0001:00085770       ??0BigConvexData@physx@@QEAA@XZ 0000000180086770 f   GuBigConvexData.obj
 0001:00085790       ??1BigConvexData@physx@@QEAA@XZ 0000000180086790 f   GuBigConvexData.obj
 0001:00085820       ?ComputeNearestOffset@BigConvexData@physx@@QEBAIAEBVPxVec3@2@@Z 0000000180086820 f   GuBigConvexData.obj
 0001:00085920       ?ComputeOffset@BigConvexData@physx@@QEBAIAEBVPxVec3@2@@Z 0000000180086920 f   GuBigConvexData.obj
 0001:00085a20       ?CreateOffsets@BigConvexData@physx@@IEAAXXZ 0000000180086a20 f   GuBigConvexData.obj
 0001:00085a70       ?Load@BigConvexData@physx@@QEAA_NAEAVPxInputStream@2@@Z 0000000180086a70 f   GuBigConvexData.obj
 0001:00085b80       ?VLoad@BigConvexData@physx@@IEAA_NAEAVPxInputStream@2@@Z 0000000180086b80 f   GuBigConvexData.obj
 0001:00085d20       ?exportExtraData@BigConvexData@physx@@QEAAXAEAVPxSerializationContext@2@@Z 0000000180086d20 f   GuBigConvexData.obj
 0001:00085da0       ?importExtraData@BigConvexData@physx@@QEAAXAEAVPxDeserializationContext@2@@Z 0000000180086da0 f   GuBigConvexData.obj
 0001:00085e10       ?findUniqueConvexEdges@Gu@physx@@YAIIPEIAUConvexEdge@12@IPEIBUHullPolygonData@12@PEIBE@Z 0000000180086e10 f   GuConvexHelper.obj
 0001:00085f50       ?getConvexData@Gu@physx@@YA_NAEBVGeometryUnion@12@AEAVFastVertex2ShapeScaling@Cm@2@AEAVPxBounds3@2@AEAUPolygonalData@12@@Z 0000000180086f50 f   GuConvexHelper.obj
 0001:000861d0       ?getScaledConvex@Gu@physx@@YAXAEAPEAVPxVec3@2@AEAPEAEPEAV32@PEAE_NPEBV32@PEBEIAEBVFastVertex2ShapeScaling@Cm@2@@Z 00000001800871d0 f   GuConvexHelper.obj
 0001:00086300       ??0ConvexMesh@Gu@physx@@QEAA@AEAVGuMeshFactory@2@AEAUConvexHullInitData@12@@Z 0000000180087300 f   GuConvexMesh.obj
 0001:00086430       ??0ConvexMesh@Gu@physx@@QEAA@XZ 0000000180087430 f   GuConvexMesh.obj
 0001:000864d0       ??1ConvexMesh@Gu@physx@@UEAA@XZ 00000001800874d0 f   GuConvexMesh.obj
 0001:00086570       ??_EConvexMesh@Gu@physx@@UEAAPEAXI@Z 0000000180087570 f i GuConvexMesh.obj
 0001:0008663c       ??_EConvexMesh@Gu@physx@@WBA@EAAPEAXI@Z 000000018008763c f i GuConvexMesh.obj
 0001:00086650       ??_EPxHeightField@physx@@MEAAPEAXI@Z 0000000180087650 f i GuHeightField.obj
 0001:00086650       ??_EPxConvexMesh@physx@@MEAAPEAXI@Z 0000000180087650 f i GuConvexMesh.obj
 0001:000866e0       ?acquireReference@TriangleMesh@Gu@physx@@UEAAXXZ 00000001800876e0 f   GuTriangleMesh.obj
 0001:000866e0       ?acquireReference@ConvexMesh@Gu@physx@@UEAAXXZ 00000001800876e0 f   GuConvexMesh.obj
 0001:000866e0       ?acquireReference@HeightField@Gu@physx@@UEAAXXZ 00000001800876e0 f   GuHeightField.obj
 0001:00086ba0       ?createObject@ConvexMesh@Gu@physx@@SAPEAV123@AEAPEAEAEAVPxDeserializationContext@3@@Z 0000000180087ba0 f   GuConvexMesh.obj
 0001:00086bf0       ?exportExtraData@ConvexMesh@Gu@physx@@UEAAXAEAVPxSerializationContext@3@@Z 0000000180087bf0 f   GuConvexMesh.obj
 0001:00086cc0       ?getLocalBounds@ConvexMesh@Gu@physx@@UEBA?AVPxBounds3@3@XZ 0000000180087cc0 f   GuConvexMesh.obj
 0001:00086d50       ?getMassInformation@ConvexMesh@Gu@physx@@UEBAXAEAMAEAVPxMat33@3@AEAVPxVec3@3@@Z 0000000180087d50 f   GuConvexMesh.obj
 0001:00086dc0       ?getPolygonData@ConvexMesh@Gu@physx@@UEBA_NIAEAUPxHullPolygon@3@@Z 0000000180087dc0 f   GuConvexMesh.obj
 0001:00086e10       ?getReferenceCount@ConvexMesh@Gu@physx@@UEBAIXZ 0000000180087e10 f   GuConvexMesh.obj
 0001:00086e10       ?getReferenceCount@TriangleMesh@Gu@physx@@UEBAIXZ 0000000180087e10 f   GuTriangleMesh.obj
 0001:00086e10       ?getReferenceCount@HeightField@Gu@physx@@UEBAIXZ 0000000180087e10 f   GuHeightField.obj
 0001:00086e20       ?importExtraData@ConvexMesh@Gu@physx@@QEAAXAEAVPxDeserializationContext@3@@Z 0000000180087e20 f   GuConvexMesh.obj
 0001:00086ed0       ?isGpuCompatible@ConvexMesh@Gu@physx@@UEBA_NXZ 0000000180087ed0 f   GuConvexMesh.obj
 0001:00086ef0       ?load@ConvexMesh@Gu@physx@@QEAA_NAEAVPxInputStream@3@@Z 0000000180087ef0 f   GuConvexMesh.obj
 0001:000871b0       ?onRefCountZero@ConvexMesh@Gu@physx@@UEAAXXZ 00000001800881b0 f   GuConvexMesh.obj
 0001:000872a0       ??Dphysx@@YA?AVMatrix34@Cm@0@AEBVPxMeshScale@0@AEBV120@@Z 00000001800882a0 f i GuConvexUtilsInternal.obj
 0001:00087870       ?computeHullOBB@Gu@physx@@YAXAEAVBox@12@AEBVPxBounds3@2@MAEBVMatrix34@Cm@2@2AEBVFastVertex2ShapeScaling@62@_N@Z 0000000180088870 f   GuConvexUtilsInternal.obj
 0001:00087d20       ?computeOBBAroundConvex@Gu@physx@@YAXAEAVBox@12@AEBVPxConvexMeshGeometry@2@PEBVPxConvexMesh@2@AEBVPxTransform@2@@Z 0000000180088d20 f   GuConvexUtilsInternal.obj
 0001:00088630       ?computeVertexSpaceOBB@Gu@physx@@YAXAEAVBox@12@AEBV312@AEBVPxTransform@2@AEBVPxMeshScale@2@@Z 0000000180089630 f   GuConvexUtilsInternal.obj
 0001:000889e0       ?transform@physx@@YA?AVBox@Gu@1@AEBVMatrix34@Cm@1@AEBV231@@Z 00000001800899e0 f i GuConvexUtilsInternal.obj
 0001:00088c30       ?localSearch@physx@@YAXAEAIAEBVPxVec3@1@PEBV21@PEBUBigConvexRawData@Gu@1@@Z 0000000180089c30 f   GuHillClimbing.obj
 0001:00088d70       ??0PCMPolygonalBox@Gu@physx@@QEAA@AEBVPxVec3@2@@Z 0000000180089d70 f   GuPCMShapeConvex.obj
 0001:00088d70       ??0PolygonalBox@Gu@physx@@QEAA@AEBVPxVec3@2@@Z 0000000180089d70 f   GuShapeConvex.obj
 0001:0008a230       ?getPolygonalData@PolygonalBox@Gu@physx@@QEBAXPEIAUPolygonalData@23@@Z 000000018008b230 f   GuShapeConvex.obj
 0001:0008a290       ?getPolygonalData_Convex@Gu@physx@@YAXPEIAUPolygonalData@12@PEIBUConvexHullData@12@AEBVFastVertex2ShapeScaling@Cm@2@@Z 000000018008b290 f   GuShapeConvex.obj
 0001:0008a3f0       ?distancePointBoxSquared@Gu@physx@@YAMAEBVPxVec3@2@00AEBVPxMat33@2@PEAV32@@Z 000000018008b3f0 f   GuDistancePointBox.obj
 0001:0008a540       ?closestPtPointTriangle@Gu@physx@@YA?AVPxVec3@2@AEBV32@000AEAM1@Z 000000018008b540 f   GuDistancePointTriangle.obj
 0001:0008aa60       ?distancePointTriangleSquared@Gu@physx@@YA?AT__m128@@AEBT3@000AEAT3@11@Z 000000018008ba60 f   GuDistancePointTriangle.obj
 0001:0008b720       ?distanceSegmentBoxSquared@Gu@physx@@YAMAEBVPxVec3@2@000AEBVPxMat33@2@PEAMPEAV32@@Z 000000018008c720 f   GuDistanceSegmentBox.obj
 0001:0008bfa0       ?distanceSegmentSegmentSquared4@Gu@physx@@YA?AT__m128@@AEBT3@000000000AEAT3@1@Z 000000018008cfa0 f   GuDistanceSegmentSegment.obj
 0001:0008c2b0       ?distanceSegmentSegmentSquared@Gu@physx@@YA?AT__m128@@AEBT3@000AEAT3@1@Z 000000018008d2b0 f   GuDistanceSegmentSegment.obj
 0001:0008c470       ?distanceSegmentSegmentSquared@Gu@physx@@YAMAEBVPxVec3@2@000PEAM1@Z 000000018008d470 f   GuDistanceSegmentSegment.obj
 0001:0008c700       ?distanceSegmentSegmentSquared@Gu@physx@@YAMAEBVPxVec3@2@0M00MPEAM1@Z 000000018008d700 f   GuDistanceSegmentSegment.obj
 0001:0008ce40       ?distanceSegmentTriangleSquared@Gu@physx@@YA?AT__m128@@AEBT3@0000AEAT3@1@Z 000000018008de40 f   GuDistanceSegmentTriangle.obj
 0001:0008d580       ?distanceSegmentTriangleSquared@Gu@physx@@YAMAEBVPxVec3@2@0000PEAM11@Z 000000018008e580 f   GuDistanceSegmentTriangle.obj
 0001:0008ebf0       ?PenetrationDepth@EPA@Gu@physx@@QEAA?AW4GjkStatus@23@AEBUGjkConvex@23@0PEIBT__m128@@1E_NT6@AEAUGjkOutput@23@@Z 000000018008fbf0 f   GuEPA.obj
 0001:0008f6f0       ?addFacet@EPA@Gu@physx@@QEAAPEAVFacet@23@IIIAEBT__m128@@@Z 00000001800906f0 f   GuEPA.obj
 0001:0008fb30       ?epaPenetration@Gu@physx@@YA?AW4GjkStatus@12@AEBUGjkConvex@12@0PEIBE1E_NT__m128@@AEAUGjkOutput@12@@Z 0000000180090b30 f   GuEPA.obj
 0001:0008fcb0       ?silhouette@Facet@Gu@physx@@QEAAXAEBT__m128@@PEIBT4@1AEAVEdgeBuffer@23@AEAV?$InlineDeferredIDPool@$0EA@@Cm@3@@Z 0000000180090cb0 f   GuEPA.obj
 0001:0008fe90       ?closestPtPointTetrahedron@Gu@physx@@YA?AT__m128@@PEIAT3@00AEAI@Z 0000000180090e90 f   GuGJKSimplex.obj
 0001:00090610       ?closestPtPointTetrahedron@Gu@physx@@YA?AT__m128@@PEIAT3@00PEIAH1AEAI@Z 0000000180091610 f   GuGJKSimplex.obj
 0001:000920c0       ??$gjk@UGjkConvex@Gu@physx@@U123@@Gu@physx@@YA?AW4GjkStatus@01@AEBUGjkConvex@01@0AEBT__m128@@1AEAT4@222@Z 00000001800930c0 f i GuGJKTest.obj
 0001:00092d10       ??$gjkPenetration@UGjkConvex@Gu@physx@@U123@@Gu@physx@@YA?AW4GjkStatus@01@AEBUGjkConvex@01@0AEBT__m128@@1_NPEIAE3AEAEAEAUGjkOutput@01@@Z 0000000180093d10 f i GuGJKTest.obj
 0001:000943b0       ?testEpaPenetration@Gu@physx@@YA?AW4GjkStatus@12@AEAUGjkConvex@12@0PEBE1EAEAUGjkOutput@12@@Z 00000001800953b0 f   GuGJKTest.obj
 0001:00094400       ?testGjk@Gu@physx@@YA?AW4GjkStatus@12@AEAUGjkConvex@12@0AEBT__m128@@1AEAT5@222@Z 0000000180095400 f   GuGJKTest.obj
 0001:00094410       ?testGjkPenetration@Gu@physx@@YA?AW4GjkStatus@12@AEAUGjkConvex@12@0AEBT__m128@@1PEAE2AEAEAEAUGjkOutput@12@@Z 0000000180095410 f   GuGJKTest.obj
 0001:00094460       ??0?$BitMapBase@VNonTrackingAllocator@shdfnd@physx@@@Cm@physx@@QEAA@XZ 0000000180095460 f i GuHeightField.obj
 0001:00094470       ??0HeightField@Gu@physx@@QEAA@AEAVGuMeshFactory@2@AEAUHeightFieldData@12@@Z 0000000180095470 f   GuHeightField.obj
 0001:00094540       ??0HeightField@Gu@physx@@QEAA@PEAVGuMeshFactory@2@@Z 0000000180095540 f   GuHeightField.obj
 0001:000945b0       ??1?$BitMapBase@VNonTrackingAllocator@shdfnd@physx@@@Cm@physx@@QEAA@XZ 00000001800955b0 f i GuHeightField.obj
 0001:00094610       ??1HeightField@Gu@physx@@UEAA@XZ 0000000180095610 f   GuHeightField.obj
 0001:00094680       ??_EHeightField@Gu@physx@@UEAAPEAXI@Z 0000000180095680 f i GuHeightField.obj
 0001:0009474c       ??_EHeightField@Gu@physx@@WBA@EAAPEAXI@Z 000000018009574c f i GuHeightField.obj
 0001:00094760       ?computeCellCoordinates@HeightField@Gu@physx@@QEBAIMMAEAM0@Z 0000000180095760 f   GuHeightField.obj
 0001:00094860       ?createObject@HeightField@Gu@physx@@SAPEAV123@AEAPEAEAEAVPxDeserializationContext@3@@Z 0000000180095860 f   GuHeightField.obj
 0001:000948c0       ?exportExtraData@HeightField@Gu@physx@@UEAAXAEAVPxSerializationContext@3@@Z 00000001800958c0 f   GuHeightField.obj
 0001:00094910       ?getEdgeTriangleIndices@physx@@YAIAEBVHeightField@Gu@1@AEBUEdgeData@1@PEIAI@Z 0000000180095910 f   GuHeightField.obj
 0001:00094a40       ?getVertexEdgeIndices@physx@@YAIAEBVHeightField@Gu@1@IIIQEAUEdgeData@1@@Z 0000000180095a40 f   GuHeightField.obj
 0001:00094c20       ?importExtraData@HeightField@Gu@physx@@QEAAXAEAVPxDeserializationContext@3@@Z 0000000180095c20 f   GuHeightField.obj
 0001:00094c40       ?isCollisionVertexPreca@HeightField@Gu@physx@@QEBA_NIIIG@Z 0000000180095c40 f   GuHeightField.obj
 0001:00094ce0       ?isConvexVertex@HeightField@Gu@physx@@QEBA_NIII@Z 0000000180095ce0 f i GuHeightField.obj
 0001:00094db0       ?isSolidVertex@HeightField@Gu@physx@@QEBA_NIIIGAEA_N@Z 0000000180095db0 f   GuHeightField.obj
 0001:00094f50       ?load@HeightField@Gu@physx@@QEAA_NAEAVPxInputStream@3@@Z 0000000180095f50 f   GuHeightField.obj
 0001:000952d0       ?loadFromDesc@HeightField@Gu@physx@@QEAA_NAEBVPxHeightFieldDesc@3@@Z 00000001800962d0 f   GuHeightField.obj
 0001:00095510       ?modifySamples@HeightField@Gu@physx@@UEAA_NHHAEBVPxHeightFieldDesc@3@_N@Z 0000000180096510 f   GuHeightField.obj
 0001:00095880       ?onRefCountZero@HeightField@Gu@physx@@UEAAXXZ 0000000180096880 f   GuHeightField.obj
 0001:00095910       ?parseTrianglesForCollisionVertices@HeightField@Gu@physx@@QEAAXG@Z 0000000180096910 f   GuHeightField.obj
 0001:00095de0       ?releaseMemory@HeightField@Gu@physx@@QEAAXXZ 0000000180096de0 f   GuHeightField.obj
 0001:00095e30       ?resizeAndClear@?$BitMapBase@VNonTrackingAllocator@shdfnd@physx@@@Cm@physx@@QEAAXI@Z 0000000180096e30 f i GuHeightField.obj
 0001:00095ee0       ?saveCells@HeightField@Gu@physx@@UEBAIPEAXI@Z 0000000180096ee0 f   GuHeightField.obj
 0001:00095f20       ?computeLocalBounds@HeightFieldUtil@Gu@physx@@QEBAXAEAVPxBounds3@3@@Z 0000000180096f20 f   GuHeightFieldUtil.obj
 0001:00095ff0       ?findClosestPointOnEdge@HeightFieldUtil@Gu@physx@@QEBAMIIIIAEBVPxVec3@3@AEAV43@@Z 0000000180096ff0 f   GuHeightFieldUtil.obj
 0001:000962e0       ?findClosestPointsOnCell@HeightFieldUtil@Gu@physx@@QEBAIIIVPxVec3@3@PEIAV43@PEIAI_N33@Z 00000001800972e0 f   GuHeightFieldUtil.obj
 0001:00096a70       ?findProjectionOnTriangle@HeightFieldUtil@Gu@physx@@QEBA_NIIIAEBVPxVec3@3@AEAV43@@Z 0000000180097a70 f   GuHeightFieldUtil.obj
 0001:00096d20       ?getEdge@HeightFieldUtil@Gu@physx@@QEBAXIIIIAEAVPxVec3@3@0@Z 0000000180097d20 f   GuHeightFieldUtil.obj
 0001:00096f60       ?getEdgeFaceIndex@HeightFieldUtil@Gu@physx@@QEBAII@Z 0000000180097f60 f   GuHeightFieldUtil.obj
 0001:00097140       ?getEdgeFaceIndex@HeightFieldUtil@Gu@physx@@QEBAIIIII@Z 0000000180098140 f   GuHeightFieldUtil.obj
 0001:000972e0       ?getEdgeFaceIndex@HeightFieldUtil@Gu@physx@@QEBAIIIPEIBI@Z 00000001800982e0 f   GuHeightFieldUtil.obj
 0001:00097390       ?getFaceIndexAtShapePoint@HeightFieldUtil@Gu@physx@@QEBAIMM@Z 0000000180098390 f   GuHeightFieldUtil.obj
 0001:000974a0       ?getTriangle@HeightFieldUtil@Gu@physx@@QEBAIAEBVPxTransform@3@AEAVPxTriangle@3@PEAI2I_N3@Z 00000001800984a0 f   GuHeightFieldUtil.obj
 0001:00097fd0       ?getTriangleAdjacencyIndices@HeightField@Gu@physx@@QEBAXIIIIAEAI00@Z 0000000180098fd0 f i GuHeightFieldUtil.obj
 0001:00098180       ?getTriangleVertexIndices@HeightField@Gu@physx@@QEBAXIAEAI00@Z 0000000180099180 f i GuHeightFieldUtil.obj
 0001:00098240       ?getVertexFaceIndex@HeightFieldUtil@Gu@physx@@QEBAIIII@Z 0000000180099240 f   GuHeightFieldUtil.obj
 0001:00098450       ?getVertexNormal@HeightFieldUtil@Gu@physx@@QEBA?AVPxVec3@3@III@Z 0000000180099450 f   GuHeightFieldUtil.obj
 0001:000987c0       ?overlapAABBTriangles@HeightFieldUtil@Gu@physx@@QEBA_NAEBVPxTransform@3@AEBVPxBounds3@3@IPEAV?$EntityReport@I@23@@Z 00000001800997c0 f   GuHeightFieldUtil.obj
 0001:00098e20       ??$traceSegment@UTriggerTraceSegmentCallback@Gu@physx@@$0A@$0A@@HeightFieldTraceUtil@Gu@physx@@QEBAXAEBVPxVec3@2@0MPEAUTriggerTraceSegmentCallback@12@AEBVPxBounds3@2@_NPEBV32@@Z 0000000180099e20 f i GuOverlapTestsHF.obj
 0001:00099e80       ?GeomOverlapCallback_BoxHeightfield@@YA_NAEBVPxGeometry@physx@@AEBVPxTransform@2@01PEAUTriggerCache@Gu@2@@Z 000000018009ae80 f   GuOverlapTestsHF.obj
 0001:0009a1a0       ?GeomOverlapCallback_CapsuleHeightfield@@YA_NAEBVPxGeometry@physx@@AEBVPxTransform@2@01PEAUTriggerCache@Gu@2@@Z 000000018009b1a0 f   GuOverlapTestsHF.obj
 0001:0009a3e0       ?GeomOverlapCallback_ConvexHeightfield@@YA_NAEBVPxGeometry@physx@@AEBVPxTransform@2@01PEAUTriggerCache@Gu@2@@Z 000000018009b3e0 f   GuOverlapTestsHF.obj
 0001:0009a450       ?GeomOverlapCallback_SphereHeightfield@@YA_NAEBVPxGeometry@physx@@AEBVPxTransform@2@01PEAUTriggerCache@Gu@2@@Z 000000018009b450 f   GuOverlapTestsHF.obj
 0001:0009a620       ?checkOverlapAABB_heightFieldGeom@Gu@physx@@YA_NAEBVPxGeometry@2@AEBVPxTransform@2@AEBVPxBounds3@2@@Z 000000018009b620 f   GuOverlapTestsHF.obj
 0001:0009d8a0       ??$gjkRaycast@U?$LocalConvex@VTriangleV@Gu@physx@@@Gu@physx@@U?$LocalConvex@VConvexHullV@Gu@physx@@@23@@Gu@physx@@YA_NAEBU?$LocalConvex@VTriangleV@Gu@physx@@@01@AEBU?$LocalConvex@VConvexHullV@Gu@physx@@@01@AEBT__m128@@222AEAT4@33M@Z 000000018009e8a0 f i GuSweepsHF.obj
 0001:0009e6f0       ??$traceSegment@VBoxTraceSegmentReport@@$0A@$00@HeightFieldTraceUtil@Gu@physx@@QEBAXAEBVPxVec3@2@0MPEAVBoxTraceSegmentReport@@AEBVPxBounds3@2@_NPEBV32@@Z 000000018009f6f0 f i GuSweepsHF.obj
 0001:0009e6f0       ??$traceSegment@VCapsuleTraceSegmentReport@@$0A@$00@HeightFieldTraceUtil@Gu@physx@@QEBAXAEBVPxVec3@2@0MPEAVCapsuleTraceSegmentReport@@AEBVPxBounds3@2@_NPEBV32@@Z 000000018009f6f0 f i GuSweepsHF.obj
 0001:0009e6f0       ??$traceSegment@VConvexTraceSegmentReport@@$0A@$00@HeightFieldTraceUtil@Gu@physx@@QEBAXAEBVPxVec3@2@0MPEAVConvexTraceSegmentReport@@AEBVPxBounds3@2@_NPEBV32@@Z 000000018009f6f0 f i GuSweepsHF.obj
 0001:0009ef10       ??0ConvexTraceSegmentReport@@QEAA@AEBVHeightFieldUtil@Gu@physx@@AEBUConvexHullData@23@AEBVPxMeshScale@3@AEBVPxTransform@3@3AEBVPxVec3@3@MV?$PxFlags@W4Enum@PxHitFlag@physx@@G@3@M@Z 000000018009ff10 f i GuSweepsHF.obj
 0001:0009f8b0       ??_GBoxTraceSegmentReport@@UEAAPEAXI@Z 00000001800a08b0 f i GuSweepsHF.obj
 0001:0009f8b0       ??_EBoxTraceSegmentReport@@UEAAPEAXI@Z 00000001800a08b0 f i GuSweepsHF.obj
 0001:0009f8e0       ??_GCapsuleTraceSegmentReport@@UEAAPEAXI@Z 00000001800a08e0 f i GuSweepsHF.obj
 0001:0009f8e0       ??_ECapsuleTraceSegmentReport@@UEAAPEAXI@Z 00000001800a08e0 f i GuSweepsHF.obj
 0001:0009f910       ??_GConvexTraceSegmentReport@@UEAAPEAXI@Z 00000001800a0910 f i GuSweepsHF.obj
 0001:0009f910       ??_EConvexTraceSegmentReport@@UEAAPEAXI@Z 00000001800a0910 f i GuSweepsHF.obj
 0001:0009f940       ??_EHeightFieldTraceSegmentReport@@UEAAPEAXI@Z 00000001800a0940 f i GuSweepsHF.obj
 0001:0009f940       ??_GHeightFieldTraceSegmentReport@@UEAAPEAXI@Z 00000001800a0940 f i GuSweepsHF.obj
 0001:0009f970       ?finalizeHit@ConvexTraceSegmentReport@@QEAA_NAEAUPxSweepHit@physx@@AEBVPxHeightFieldGeometry@3@AEBVPxTransform@3@AEBVPxConvexMeshGeometry@3@2AEBVPxVec3@3@M@Z 00000001800a0970 f i GuSweepsHF.obj
 0001:0009fbc0       ?onEvent@BoxTraceSegmentReport@@UEAA_NIPEAI@Z 00000001800a0bc0 f i GuSweepsHF.obj
 0001:000a0040       ?onEvent@CapsuleTraceSegmentReport@@UEAA_NIPEAI@Z 00000001800a1040 f i GuSweepsHF.obj
 0001:000a0290       ?onEvent@ConvexTraceSegmentReport@@UEAA_NIPEAI@Z 00000001800a1290 f i GuSweepsHF.obj
 0001:000a08b0       ?prepare@?$OverlapTraceSegment@VCapsuleTraceSegmentReport@@@HeightFieldTraceUtil@Gu@physx@@QEAAXAEBVPxVec3@4@00AEAM1@Z 00000001800a18b0 f i GuSweepsHF.obj
 0001:000a08b0       ?prepare@?$OverlapTraceSegment@VBoxTraceSegmentReport@@@HeightFieldTraceUtil@Gu@physx@@QEAAXAEBVPxVec3@4@00AEAM1@Z 00000001800a18b0 f i GuSweepsHF.obj
 0001:000a08b0       ?prepare@?$OverlapTraceSegment@VConvexTraceSegmentReport@@@HeightFieldTraceUtil@Gu@physx@@QEAAXAEBVPxVec3@4@00AEAM1@Z 00000001800a18b0 f i GuSweepsHF.obj
 0001:000a0b70       ?sweepBox_HeightFieldGeom@@YA_NAEBVPxGeometry@physx@@AEBVPxTransform@2@AEBVPxBoxGeometry@2@1AEBVBox@Gu@2@AEBVPxVec3@2@MAEAUPxSweepHit@2@V?$PxFlags@W4Enum@PxHitFlag@physx@@G@2@M@Z 00000001800a1b70 f   GuSweepsHF.obj
 0001:000a1a40       ?sweepCapsule_HeightFieldGeom@@YA_NAEBVPxGeometry@physx@@AEBVPxTransform@2@AEBVPxCapsuleGeometry@2@1AEBVCapsule@Gu@2@AEBVPxVec3@2@MAEAUPxSweepHit@2@V?$PxFlags@W4Enum@PxHitFlag@physx@@G@2@M@Z 00000001800a2a40 f   GuSweepsHF.obj
 0001:000a2410       ?sweepConvex_HeightFieldGeom@@YA_NAEBVPxGeometry@physx@@AEBVPxTransform@2@AEBVPxConvexMeshGeometry@2@1AEBVPxVec3@2@MAEAUPxSweepHit@2@V?$PxFlags@W4Enum@PxHitFlag@physx@@G@2@M@Z 00000001800a3410 f   GuSweepsHF.obj
 0001:000a2e50       ?testVertexIndex@?$OverlapTraceSegment@VBoxTraceSegmentReport@@@HeightFieldTraceUtil@Gu@physx@@QEAA_NI@Z 00000001800a3e50 f i GuSweepsHF.obj
 0001:000a2e50       ?testVertexIndex@?$OverlapTraceSegment@VConvexTraceSegmentReport@@@HeightFieldTraceUtil@Gu@physx@@QEAA_NI@Z 00000001800a3e50 f i GuSweepsHF.obj
 0001:000a2e50       ?testVertexIndex@?$OverlapTraceSegment@VCapsuleTraceSegmentReport@@@HeightFieldTraceUtil@Gu@physx@@QEAA_NI@Z 00000001800a3e50 f i GuSweepsHF.obj
 0001:000a2fb0       ?visitCells@?$OverlapTraceSegment@VCapsuleTraceSegmentReport@@@HeightFieldTraceUtil@Gu@physx@@QEAA_NAEBUOverlapRectangle@1234@@Z 00000001800a3fb0 f i GuSweepsHF.obj
 0001:000a2fb0       ?visitCells@?$OverlapTraceSegment@VBoxTraceSegmentReport@@@HeightFieldTraceUtil@Gu@physx@@QEAA_NAEBUOverlapRectangle@1234@@Z 00000001800a3fb0 f i GuSweepsHF.obj
 0001:000a2fb0       ?visitCells@?$OverlapTraceSegment@VConvexTraceSegmentReport@@@HeightFieldTraceUtil@Gu@physx@@QEAA_NAEBUOverlapRectangle@1234@@Z 00000001800a3fb0 f i GuSweepsHF.obj
 0001:000a31a0       ?intersectOBBOBB@Gu@physx@@YA_NAEBVPxVec3@2@0AEBVPxMat33@2@001_N@Z 00000001800a41a0 f   GuIntersectionBoxBox.obj
 0001:000a3810       ?intersectCapsuleTriangle@Gu@physx@@YA_NAEBVPxVec3@2@000AEBVCapsule@12@AEBUCapsuleTriangleOverlapData@12@@Z 00000001800a4810 f   GuIntersectionCapsuleTriangle.obj
 0001:000a4400       ?intersectEdgeEdge@Gu@physx@@YA_NAEBVPxVec3@2@0000AEAMAEAV32@@Z 00000001800a5400 f   GuIntersectionEdgeEdge.obj
 0001:000a4720       ?intersectRayAABB2@Gu@physx@@YA_NAEBT__m128@@0000AEAT3@1@Z 00000001800a5720 f   GuIntersectionRayBox.obj
 0001:000a47e0       ?intersectRayAABB2@Gu@physx@@YA_NAEBVPxVec3@2@000MAEAM1@Z 00000001800a57e0 f   GuIntersectionRayBox.obj
 0001:000a4990       ?intersectRayAABB@Gu@physx@@YAHAEBVPxVec3@2@000AEAM1@Z 00000001800a5990 f   GuIntersectionRayBox.obj
 0001:000a4aa0       ?rayAABBIntersect2@Gu@physx@@YAIAEBVPxVec3@2@000AEAV32@AEAM@Z 00000001800a5aa0 f   GuIntersectionRayBox.obj
 0001:000a4ca0       ?intersectRayCapsuleInternal@Gu@physx@@YAIAEBVPxVec3@2@000MQEAM@Z 00000001800a5ca0 f   GuIntersectionRayCapsule.obj
 0001:000a5520       ?intersectRaySphere@Gu@physx@@YA_NAEBVPxVec3@2@0M0MAEAMPEAV32@@Z 00000001800a6520 f   GuIntersectionRaySphere.obj
 0001:000a5610       ?intersectRaySphereBasic@Gu@physx@@YA_NAEBVPxVec3@2@0M0MAEAMPEAV32@@Z 00000001800a6610 f   GuIntersectionRaySphere.obj
 0001:000a5770       ?intersectSphereBox@Gu@physx@@YA_NAEBVSphere@12@AEBVBox@12@@Z 00000001800a6770 f   GuIntersectionSphereBox.obj
 0001:000a59a0       ?intersectTriangleBox@Gu@physx@@YAHAEBVBoxPadded@12@AEBVPxVec3@2@11@Z 00000001800a69a0 f   GuIntersectionTriangleBox.obj
 0001:000a5f70       ?intersectTriangleBoxBV4@@YAHAEBVPxVec3@physx@@00AEBVPxMat33@2@00@Z 00000001800a6f70 f   GuIntersectionTriangleBox.obj
 0001:000a63b0       ?intersectTriangleBox_ReferenceCode@Gu@physx@@YAHAEBVPxVec3@2@0000@Z 00000001800a73b0 f   GuIntersectionTriangleBox.obj
 0001:000a6b80       ?intersectTriangleBox_Unsafe@Gu@physx@@YAHAEBVPxVec3@2@0000@Z 00000001800a7b80 f   GuIntersectionTriangleBox.obj
 0001:000a6f50       ??0BV4Tree@Gu@physx@@QEAA@PEAVSourceMesh@12@AEBVPxBounds3@2@@Z 00000001800a7f50 f   GuBV4.obj
 0001:000a7010       ??0BV4Tree@Gu@physx@@QEAA@W4PxEMPTY@2@@Z 00000001800a8010 f   GuBV4.obj
 0001:000a7020       ??0BV4Tree@Gu@physx@@QEAA@XZ 00000001800a8020 f   GuBV4.obj
 0001:000a7050       ??0SourceMesh@Gu@physx@@QEAA@XZ 00000001800a8050 f   GuBV4.obj
 0001:000a7070       ??0SourceMeshBase@Gu@physx@@QEAA@XZ 00000001800a8070 f   GuBV4.obj
 0001:000a7080       ??1BV4Tree@Gu@physx@@QEAA@XZ 00000001800a8080 f   GuBV4.obj
 0001:000a70e0       ??1SourceMesh@Gu@physx@@QEAA@XZ 00000001800a80e0 f   GuBV4.obj
 0001:000a7130       ??1SourceMeshBase@Gu@physx@@QEAA@XZ 00000001800a8130 f   GuBV4.obj
 0001:000a7180       ??4BV4Tree@Gu@physx@@QEAAXAEAV012@@Z 00000001800a8180 f   GuBV4.obj
 0001:000a7210       ??4SourceMesh@Gu@physx@@QEAAXAEAV012@@Z 00000001800a8210 f   GuBV4.obj
 0001:000a7260       ?exportExtraData@BV4Tree@Gu@physx@@QEAAXAEAVPxSerializationContext@3@@Z 00000001800a8260 f   GuBV4.obj
 0001:000a72b0       ?importExtraData@BV4Tree@Gu@physx@@QEAAXAEAVPxDeserializationContext@3@@Z 00000001800a82b0 f   GuBV4.obj
 0001:000a72e0       ?init@BV32Tree@Gu@physx@@QEAA_NPEAVSourceMesh@23@AEBVPxBounds3@3@@Z 00000001800a82e0 f   GuBV32.obj
 0001:000a72e0       ?init@BV4Tree@Gu@physx@@QEAA_NPEAVSourceMesh@23@AEBVPxBounds3@3@@Z 00000001800a82e0 f   GuBV4.obj
 0001:000a7380       ?load@BV4Tree@Gu@physx@@QEAA_NAEAVPxInputStream@3@_N@Z 00000001800a8380 f   GuBV4.obj
 0001:000a75a0       ?remapTopology@SourceMesh@Gu@physx@@QEAAXPEBI@Z 00000001800a85a0 f   GuBV4.obj
 0001:000a7900       ??0AABBTree@Gu@physx@@QEAA@XZ 00000001800a8900 f   GuBV4Build.obj
 0001:000a7910       ??0AABBTreeNode@Gu@physx@@QEAA@XZ 00000001800a8910 f i GuBV4Build.obj
 0001:000a7930       ??0BV4Node@@QEAA@XZ        00000001800a8930 f i GuBV4Build.obj
 0001:000a7970       ??0BVData@@QEAA@XZ         00000001800a8970 f   GuBV4Build.obj
 0001:000a79a0       ??1AABBTree@Gu@physx@@QEAA@XZ 00000001800a89a0 f   GuBV4Build.obj
 0001:000a79b0       ??1AABBTreeNode@Gu@physx@@QEAA@XZ 00000001800a89b0 f i GuBV4Build.obj
 0001:000a79c0       ??1BV4BuildParams@@QEAA@XZ 00000001800a89c0 f   GuBV4Build.obj
 0001:000a79d0       ??1BV4Node@@QEAA@XZ        00000001800a89d0 f i GuBV4Build.obj
 0001:000a79f0       ?BuildBV4Ex@Gu@physx@@YA_NAEAVBV4Tree@12@AEAVSourceMesh@12@MI@Z 00000001800a89f0 f   GuBV4Build.obj
 0001:000a8ea0       ?allocateNode@BV4BuildParams@@QEAAPEAUBV4Node@@XZ 00000001800a9ea0 f   GuBV4Build.obj
 0001:000a8fa0       ?buildFromMesh@AABBTree@Gu@physx@@QEAA_NAEAVSourceMesh@23@I@Z 00000001800a9fa0 f   GuBV4Build.obj
 0001:000a9ba0       ?release@AABBTree@Gu@physx@@QEAAXXZ 00000001800aaba0 f   GuBV4Build.obj
 0001:000a9c20       ?releaseNodes@BV4BuildParams@@QEAAXXZ 00000001800aac20 f   GuBV4Build.obj
 0001:000a9f10       ?walk@AABBTree@Gu@physx@@QEBAIP6A_NPEBVAABBTreeNode@23@IPEAX@Z1@Z 00000001800aaf10 f   GuBV4Build.obj
 0001:000ac1d0       ?GenericSweep_AABB_CB@@YAXAEBVBox@Gu@physx@@AEBVPxVec3@3@MAEBVBV4Tree@23@P6A_NPEAX111IAEAM@Z3I@Z 00000001800ad1d0 f   GuBV4_AABBSweep.obj
 0001:000ac300       ?Sweep_AABB_BV4@@YAHAEBVBox@Gu@physx@@AEBVPxVec3@3@MAEBVBV4Tree@23@PEIAVSweepHit@23@I@Z 00000001800ad300 f   GuBV4_AABBSweep.obj
 0001:000b0760       ?BV4_OverlapBoxAll@@YAIAEBVBox@Gu@physx@@AEBVBV4Tree@23@PEIBVPxMat44@3@PEAIIAEA_N@Z 00000001800b1760 f   GuBV4_BoxOverlap.obj
 0001:000b0f90       ?BV4_OverlapBoxAny@@YAHAEBVBox@Gu@physx@@AEBVBV4Tree@23@PEIBVPxMat44@3@@Z 00000001800b1f90 f   GuBV4_BoxOverlap.obj
 0001:000b1780       ?BV4_OverlapBoxCB@@YAXAEBVBox@Gu@physx@@AEBVBV4Tree@23@P6A_NPEAXAEBVPxVec3@3@33IPEBI@Z2@Z 00000001800b2780 f   GuBV4_BoxOverlap.obj
 0001:000b1c40       ?BV4_OverlapCapsuleAll@@YAIAEBVCapsule@Gu@physx@@AEBVBV4Tree@23@PEIBVPxMat44@3@PEAIIAEA_N@Z 00000001800b2c40 f   GuBV4_BoxOverlap.obj
 0001:000b2350       ?BV4_OverlapCapsuleAny@@YAHAEBVCapsule@Gu@physx@@AEBVBV4Tree@23@PEIBVPxMat44@3@@Z 00000001800b3350 f   GuBV4_BoxOverlap.obj
 0001:000b44d0       ?BV4_CapsuleSweepSingle@@YAHAEBVCapsule@Gu@physx@@AEBVPxVec3@3@MAEBVBV4Tree@23@PEIAVSweepHit@23@I@Z 00000001800b54d0 f   GuBV4_CapsuleSweep.obj
 0001:000b79d0       ?BV4_CapsuleSweepSingleAA@@YAHAEBVCapsule@Gu@physx@@AEBVPxVec3@3@MAEBVBV4Tree@23@PEIAVSweepHit@23@I@Z 00000001800b89d0 f   GuBV4_CapsuleSweepAA.obj
 0001:000bc400       ?BV4_BoxSweepSingle@@YAHAEBVBox@Gu@physx@@AEBVPxVec3@3@MAEBVBV4Tree@23@PEIBVPxMat44@3@PEIAVSweepHit@23@I@Z 00000001800bd400 f   GuBV4_OBBSweep.obj
 0001:000bcb30       ?BV4_GenericSweepCB@@YAXAEBVBox@Gu@physx@@AEBVPxVec3@3@MAEBVBV4Tree@23@P6A_NPEAX111IAEAM@Z3_N@Z 00000001800bdb30 f   GuBV4_OBBSweep.obj
 0001:000bcd00       ?Sweep_OBB_BV4@@YAHAEBVBox@Gu@physx@@AEBVPxVec3@3@MAEBVBV4Tree@23@PEIAVSweepHit@23@I@Z 00000001800bdd00 f   GuBV4_OBBSweep.obj
 0001:000bed90       ?BV4_RaycastCB@@YAXAEBVPxVec3@physx@@0AEBVBV4Tree@Gu@2@PEIBVPxMat44@2@MMIP6A?AW4HitCode@42@PEAX000IMMM@Z3@Z 00000001800bfd90 f   GuBV4_Raycast.obj
 0001:000bf1b0       ?BV4_RaycastSingle@@YAHAEBVPxVec3@physx@@0AEBVBV4Tree@Gu@2@PEIBVPxMat44@2@PEIAUPxRaycastHit@2@MMIV?$PxFlags@W4Enum@PxHitFlag@physx@@G@2@@Z 00000001800c01b0 f   GuBV4_Raycast.obj
 0001:000c0f60       ?BV4_OverlapSphereAll@@YAIAEBVSphere@Gu@physx@@AEBVBV4Tree@23@PEIBVPxMat44@3@PEAIIAEA_N@Z 00000001800c1f60 f   GuBV4_SphereOverlap.obj
 0001:000c1280       ?BV4_OverlapSphereAny@@YAHAEBVSphere@Gu@physx@@AEBVBV4Tree@23@PEIBVPxMat44@3@@Z 00000001800c2280 f   GuBV4_SphereOverlap.obj
 0001:000c30d0       ?BV4_GenericSweepCB_Old@@YAXAEBVPxVec3@physx@@00MAEBVBV4Tree@Gu@2@PEIBVPxMat44@2@P6A_NPEAX000IAEAM@Z3@Z 00000001800c40d0 f   GuBV4_SphereSweep.obj
 0001:000c34d0       ?BV4_SphereSweepSingle@@YAHAEBVSphere@Gu@physx@@AEBVPxVec3@3@MAEBVBV4Tree@23@PEIBVPxMat44@3@PEIAVSweepHit@23@I@Z 00000001800c44d0 f   GuBV4_SphereSweep.obj
 0001:000c47f0       ?computeSweepData@physx@@YAMAEBVPxTriangleMeshGeometry@1@AEAVPxVec3@1@11M@Z 00000001800c57f0 f i GuMidphaseBV4.obj
 0001:000c5cc0       ?intersectBoxVsMesh_BV4@Gu@physx@@YA_NAEBVBox@12@AEBVTriangleMesh@12@AEBVPxTransform@2@AEBVPxMeshScale@2@PEAULimitedResults@12@@Z 00000001800c6cc0 f   GuMidphaseBV4.obj
 0001:000c67e0       ?intersectCapsuleVsMesh_BV4@Gu@physx@@YA_NAEBVCapsule@12@AEBVTriangleMesh@12@AEBVPxTransform@2@AEBVPxMeshScale@2@PEAULimitedResults@12@@Z 00000001800c77e0 f   GuMidphaseBV4.obj
 0001:000c7020       ?intersectOBB_BV4@Gu@physx@@YAXPEBVTriangleMesh@12@AEBVBox@12@AEAU?$MeshHitCallback@UPxRaycastHit@physx@@@12@_N3@Z 00000001800c8020 f   GuMidphaseBV4.obj
 0001:000c7040       ?intersectSphereVsMesh_BV4@Gu@physx@@YA_NAEBVSphere@12@AEBVTriangleMesh@12@AEBVPxTransform@2@AEBVPxMeshScale@2@PEAULimitedResults@12@@Z 00000001800c8040 f   GuMidphaseBV4.obj
 0001:000c7780       ?raycast_triangleMesh_BV4@Gu@physx@@YAIPEBVTriangleMesh@12@AEBVPxTriangleMeshGeometry@2@AEBVPxTransform@2@AEBVPxVec3@2@3MV?$PxFlags@W4Enum@PxHitFlag@physx@@G@2@IPEIAUPxRaycastHit@2@@Z 00000001800c8780 f   GuMidphaseBV4.obj
 0001:000c8580       ?sweepBox_MeshGeom_BV4@Gu@physx@@YA_NPEBVTriangleMesh@12@AEBVPxTriangleMeshGeometry@2@AEBVPxTransform@2@AEBVBox@12@AEBVPxVec3@2@MAEAUPxSweepHit@2@V?$PxFlags@W4Enum@PxHitFlag@physx@@G@2@M@Z 00000001800c9580 f   GuMidphaseBV4.obj
 0001:000c9cc0       ?sweepCapsule_MeshGeom_BV4@Gu@physx@@YA_NPEBVTriangleMesh@12@AEBVPxTriangleMeshGeometry@2@AEBVPxTransform@2@AEBVCapsule@12@AEBVPxVec3@2@MAEAUPxSweepHit@2@V?$PxFlags@W4Enum@PxHitFlag@physx@@G@2@M@Z 00000001800cacc0 f   GuMidphaseBV4.obj
 0001:000ca800       ?sweepConvex_MeshGeom_BV4@Gu@physx@@YAXPEBVTriangleMesh@12@AEBVBox@12@AEBVPxVec3@2@MAEAUSweepConvexMeshHitCallback@12@_N@Z 00000001800cb800 f   GuMidphaseBV4.obj
 0001:000ca840       ?transform@PxMeshScale@physx@@QEBA?AVPxVec3@2@AEBV32@@Z 00000001800cb840 f i GuMidphaseBV4.obj
 0001:000caa80       ?findOverlapHeightField@PxMeshQuery@physx@@SAIAEBVPxGeometry@2@AEBVPxTransform@2@AEBVPxHeightFieldGeometry@2@1PEAIIIAEA_N@Z 00000001800cba80 f   GuMeshQuery.obj
 0001:000cb1a0       ?findOverlapTriangleMesh@PxMeshQuery@physx@@SAIAEBVPxGeometry@2@AEBVPxTransform@2@AEBVPxTriangleMeshGeometry@2@1PEAIIIAEA_N@Z 00000001800cc1a0 f   GuMeshQuery.obj
 0001:000cb490       ?getTriangle@PxMeshQuery@physx@@SAXAEBVPxHeightFieldGeometry@2@AEBVPxTransform@2@IAEAVPxTriangle@2@PEAI3@Z 00000001800cc490 f   GuMeshQuery.obj
 0001:000cb510       ?getTriangle@PxMeshQuery@physx@@SAXAEBVPxTriangleMeshGeometry@2@AEBVPxTransform@2@IAEAVPxTriangle@2@PEAI3@Z 00000001800cc510 f   GuMeshQuery.obj
 0001:000cba20       ?sweep@PxMeshQuery@physx@@SA_NAEBVPxVec3@2@MAEBVPxGeometry@2@AEBVPxTransform@2@IPEBVPxTriangle@2@AEAUPxSweepHit@2@V?$PxFlags@W4Enum@PxHitFlag@physx@@G@2@PEBIM_N@Z 00000001800cca20 f   GuMeshQuery.obj
 0001:000cbc60       ??$collide@$00$00@MeshRayCollider@@SAXAEBVPxVec3@physx@@0M_NPEBVRTreeTriangleMesh@Gu@2@AEAU?$MeshHitCallback@UPxRaycastHit@physx@@@42@PEBV12@@Z 00000001800ccc60 f i GuMidphaseRTree.obj
 0001:000cc090       ??$collide@$00$0A@@MeshRayCollider@@SAXAEBVPxVec3@physx@@0M_NPEBVRTreeTriangleMesh@Gu@2@AEAU?$MeshHitCallback@UPxRaycastHit@physx@@@42@PEBV12@@Z 00000001800cd090 f i GuMidphaseRTree.obj
 0001:000cc4b0       ??$collide@$0A@$00@MeshRayCollider@@SAXAEBVPxVec3@physx@@0M_NPEBVRTreeTriangleMesh@Gu@2@AEAU?$MeshHitCallback@UPxRaycastHit@physx@@@42@PEBV12@@Z 00000001800cd4b0 f i GuMidphaseRTree.obj
 0001:000ce900       ??1?$RayRTreeCallback@$00$00@@UEAA@XZ 00000001800cf900 f i GuMidphaseRTree.obj
 0001:000ce990       ??1?$RayRTreeCallback@$00$0A@@@UEAA@XZ 00000001800cf990 f i GuMidphaseRTree.obj
 0001:000cea20       ??1?$RayRTreeCallback@$0A@$00@@UEAA@XZ 00000001800cfa20 f i GuMidphaseRTree.obj
 0001:000ceab0       ??1?$RayRTreeCallback@$0A@$0A@@@UEAA@XZ 00000001800cfab0 f i GuMidphaseRTree.obj
 0001:000ceb38       ??_E?$RayRTreeCallback@$00$00@@W7EAAPEAXI@Z 00000001800cfb38 f i GuMidphaseRTree.obj
 0001:000ceb44       ??_E?$RayRTreeCallback@$00$0A@@@W7EAAPEAXI@Z 00000001800cfb44 f i GuMidphaseRTree.obj
 0001:000ceb50       ??_E?$RayRTreeCallback@$0A@$00@@W7EAAPEAXI@Z 00000001800cfb50 f i GuMidphaseRTree.obj
 0001:000ceb5c       ??_E?$RayRTreeCallback@$0A@$0A@@@W7EAAPEAXI@Z 00000001800cfb5c f i GuMidphaseRTree.obj
 0001:000cebd0       ??_G?$RayRTreeCallback@$00$00@@UEAAPEAXI@Z 00000001800cfbd0 f i GuMidphaseRTree.obj
 0001:000cebd0       ??_E?$RayRTreeCallback@$00$00@@UEAAPEAXI@Z 00000001800cfbd0 f i GuMidphaseRTree.obj
 0001:000cec10       ??_E?$RayRTreeCallback@$00$0A@@@UEAAPEAXI@Z 00000001800cfc10 f i GuMidphaseRTree.obj
 0001:000cec10       ??_G?$RayRTreeCallback@$00$0A@@@UEAAPEAXI@Z 00000001800cfc10 f i GuMidphaseRTree.obj
 0001:000cec50       ??_E?$RayRTreeCallback@$0A@$00@@UEAAPEAXI@Z 00000001800cfc50 f i GuMidphaseRTree.obj
 0001:000cec50       ??_G?$RayRTreeCallback@$0A@$00@@UEAAPEAXI@Z 00000001800cfc50 f i GuMidphaseRTree.obj
 0001:000cec90       ??_G?$RayRTreeCallback@$0A@$0A@@@UEAAPEAXI@Z 00000001800cfc90 f i GuMidphaseRTree.obj
 0001:000cec90       ??_E?$RayRTreeCallback@$0A@$0A@@@UEAAPEAXI@Z 00000001800cfc90 f i GuMidphaseRTree.obj
 0001:000cecd0       ??_GCallback@RTree@Gu@physx@@UEAAPEAXI@Z 00000001800cfcd0 f i GuMidphaseRTree.obj
 0001:000cecd0       ??_ECallback@RTree@Gu@physx@@UEAAPEAXI@Z 00000001800cfcd0 f i GuMidphaseRTree.obj
 0001:000ced00       ??_ECallbackRaycast@RTree@Gu@physx@@UEAAPEAXI@Z 00000001800cfd00 f i GuMidphaseRTree.obj
 0001:000ced00       ??_GCallbackRaycast@RTree@Gu@physx@@UEAAPEAXI@Z 00000001800cfd00 f i GuMidphaseRTree.obj
 0001:000ced30       ??_ERayMeshColliderCallback@@UEAAPEAXI@Z 00000001800cfd30 f i GuMidphaseRTree.obj
 0001:000ced30       ??_GRayMeshColliderCallback@@UEAAPEAXI@Z 00000001800cfd30 f i GuMidphaseRTree.obj
 0001:000ced60       ?collideOBB@MeshRayCollider@@SAXAEBVBox@Gu@physx@@_NPEBVRTreeTriangleMesh@34@AEAU?$MeshHitCallback@UPxRaycastHit@physx@@@34@1@Z 00000001800cfd60 f   GuMidphaseRTree.obj
 0001:000cf290       ?intersectBoxVsMesh_RTREE@Gu@physx@@YA_NAEBVBox@12@AEBVTriangleMesh@12@AEBVPxTransform@2@AEBVPxMeshScale@2@PEAULimitedResults@12@@Z 00000001800d0290 f   GuMidphaseRTree.obj
 0001:000cf300       ?intersectCapsuleVsMesh_RTREE@Gu@physx@@YA_NAEBVCapsule@12@AEBVTriangleMesh@12@AEBVPxTransform@2@AEBVPxMeshScale@2@PEAULimitedResults@12@@Z 00000001800d0300 f   GuMidphaseRTree.obj
 0001:000cf380       ?intersectOBB_RTREE@Gu@physx@@YAXPEBVTriangleMesh@12@AEBVBox@12@AEAU?$MeshHitCallback@UPxRaycastHit@physx@@@12@_N3@Z 00000001800d0380 f   GuMidphaseRTree.obj
 0001:000cf3b0       ?intersectSphereVsMesh_RTREE@Gu@physx@@YA_NAEBVSphere@12@AEBVTriangleMesh@12@AEBVPxTransform@2@AEBVPxMeshScale@2@PEAULimitedResults@12@@Z 00000001800d03b0 f   GuMidphaseRTree.obj
 0001:000d01d0       ?processHit@RayMeshColliderCallback@@UEAA_NAEBUPxRaycastHit@physx@@AEBVPxVec3@3@11AEAMPEBI@Z 00000001800d11d0 f i GuMidphaseRTree.obj
 0001:000d0950       ?processResults@?$RayRTreeCallback@$00$00@@UEAA_NIPEAI@Z 00000001800d1950 f i GuMidphaseRTree.obj
 0001:000d0d10       ?processResults@?$RayRTreeCallback@$00$00@@UEAA_NIPEAIAEAM@Z 00000001800d1d10 f i GuMidphaseRTree.obj
 0001:000d10d0       ?processResults@?$RayRTreeCallback@$00$0A@@@UEAA_NIPEAI@Z 00000001800d20d0 f i GuMidphaseRTree.obj
 0001:000d10d0       ?processResults@?$RayRTreeCallback@$0A@$0A@@@UEAA_NIPEAI@Z 00000001800d20d0 f i GuMidphaseRTree.obj
 0001:000d1390       ?processResults@?$RayRTreeCallback@$0A@$0A@@@UEAA_NIPEAIAEAM@Z 00000001800d2390 f i GuMidphaseRTree.obj
 0001:000d1390       ?processResults@?$RayRTreeCallback@$00$0A@@@UEAA_NIPEAIAEAM@Z 00000001800d2390 f i GuMidphaseRTree.obj
 0001:000d1650       ?processResults@?$RayRTreeCallback@$0A@$00@@UEAA_NIPEAI@Z 00000001800d2650 f i GuMidphaseRTree.obj
 0001:000d1cc0       ?processResults@?$RayRTreeCallback@$0A@$00@@UEAA_NIPEAIAEAM@Z 00000001800d2cc0 f i GuMidphaseRTree.obj
 0001:000d2360       ?raycast_triangleMesh_RTREE@Gu@physx@@YAIPEBVTriangleMesh@12@AEBVPxTriangleMeshGeometry@2@AEBVPxTransform@2@AEBVPxVec3@2@3MV?$PxFlags@W4Enum@PxHitFlag@physx@@G@2@IPEIAUPxRaycastHit@2@@Z 00000001800d3360 f   GuMidphaseRTree.obj
 0001:000d2ae0       ?sweepBox_MeshGeom_RTREE@Gu@physx@@YA_NPEBVTriangleMesh@12@AEBVPxTriangleMeshGeometry@2@AEBVPxTransform@2@AEBVBox@12@AEBVPxVec3@2@MAEAUPxSweepHit@2@V?$PxFlags@W4Enum@PxHitFlag@physx@@G@2@M@Z 00000001800d3ae0 f   GuMidphaseRTree.obj
 0001:000d4070       ?sweepCapsule_MeshGeom_RTREE@Gu@physx@@YA_NPEBVTriangleMesh@12@AEBVPxTriangleMeshGeometry@2@AEBVPxTransform@2@AEBVCapsule@12@AEBVPxVec3@2@MAEAUPxSweepHit@2@V?$PxFlags@W4Enum@PxHitFlag@physx@@G@2@M@Z 00000001800d5070 f   GuMidphaseRTree.obj
 0001:000d4880       ?sweepConvex_MeshGeom_RTREE@Gu@physx@@YAXPEBVTriangleMesh@12@AEBVBox@12@AEBVPxVec3@2@MAEAUSweepConvexMeshHitCallback@12@_N@Z 00000001800d5880 f   GuMidphaseRTree.obj
 0001:000d48d0       ??$gjk@U?$RelativeConvex@VTriangleV@Gu@physx@@@Gu@physx@@U?$LocalConvex@VConvexHullV@Gu@physx@@@23@@Gu@physx@@YA?AW4GjkStatus@01@AEBU?$RelativeConvex@VTriangleV@Gu@physx@@@01@AEBU?$LocalConvex@VConvexHullV@Gu@physx@@@01@AEBT__m128@@2AEAT5@333@Z 00000001800d58d0 f i GuOverlapTestsMesh.obj
 0001:000d57a0       ??0ConvexVsMeshOverlapCallback@@QEAA@AEBVConvexMesh@Gu@physx@@AEBVPxMeshScale@3@AEBVFastVertex2ShapeScaling@Cm@3@AEBVPxTransform@3@3_NAEBVBox@23@@Z 00000001800d67a0 f i GuOverlapTestsMesh.obj
 0001:000d6050       ??_EConvexVsMeshOverlapCallback@@UEAAPEAXI@Z 00000001800d7050 f i GuOverlapTestsMesh.obj
 0001:000d6050       ??_GConvexVsMeshOverlapCallback@@UEAAPEAXI@Z 00000001800d7050 f i GuOverlapTestsMesh.obj
 0001:000d6080       ?GeomOverlapCallback_BoxMesh@@YA_NAEBVPxGeometry@physx@@AEBVPxTransform@2@01PEAUTriggerCache@Gu@2@@Z 00000001800d7080 f   GuOverlapTestsMesh.obj
 0001:000d6190       ?GeomOverlapCallback_CapsuleMesh@@YA_NAEBVPxGeometry@physx@@AEBVPxTransform@2@01PEAUTriggerCache@Gu@2@@Z 00000001800d7190 f   GuOverlapTestsMesh.obj
 0001:000d62a0       ?GeomOverlapCallback_ConvexMesh@@YA_NAEBVPxGeometry@physx@@AEBVPxTransform@2@01PEAUTriggerCache@Gu@2@@Z 00000001800d72a0 f   GuOverlapTestsMesh.obj
 0001:000d6880       ?GeomOverlapCallback_SphereMesh@@YA_NAEBVPxGeometry@physx@@AEBVPxTransform@2@01PEAUTriggerCache@Gu@2@@Z 00000001800d7880 f   GuOverlapTestsMesh.obj
 0001:000d68f0       ?checkOverlapAABB_triangleGeom@Gu@physx@@YA_NAEBVPxGeometry@2@AEBVPxTransform@2@AEBVPxBounds3@2@@Z 00000001800d78f0 f   GuOverlapTestsMesh.obj
 0001:000d69f0       ?processHit@ConvexVsMeshOverlapCallback@@UEAA_NAEBUPxRaycastHit@physx@@AEBVPxVec3@3@11AEAMPEBI@Z 00000001800d79f0 f i GuOverlapTestsMesh.obj
 0001:000d6db0       ??0RTree@Gu@physx@@QEAA@W4PxEMPTY@2@@Z 00000001800d7db0 f   GuRTree.obj
 0001:000d6dc0       ?exportExtraData@RTree@Gu@physx@@QEAAXAEAVPxSerializationContext@3@@Z 00000001800d7dc0 f   GuRTree.obj
 0001:000d6e00       ?importExtraData@RTree@Gu@physx@@QEAAXAEAVPxDeserializationContext@3@@Z 00000001800d7e00 f   GuRTree.obj
 0001:000d6e30       ?load@RTree@Gu@physx@@QEAA_NAEAVPxInputStream@3@I_N@Z 00000001800d7e30 f   GuRTree.obj
 0001:000d7130       ?refitAllStaticTree@RTree@Gu@physx@@QEAAXAEAUCallbackRefit@123@PEAVPxBounds3@3@@Z 00000001800d8130 f   GuRTree.obj
 0001:000d7690       ?validate@RTree@Gu@physx@@QEAAXPEAUCallbackRefit@123@@Z 00000001800d8690 f   GuRTree.obj
 0001:000d78d0       ?validateRecursive@RTree@Gu@physx@@IEAAXIURTreeNodeQ@23@PEAURTreePage@23@PEAUCallbackRefit@123@@Z 00000001800d88d0 f   GuRTree.obj
 0001:000d7a90       ??$traverseRay@$00@RTree@Gu@physx@@QEBAXAEBVPxVec3@2@0IPEAIPEAUCallbackRaycast@012@PEBV32@M@Z 00000001800d8a90 f i GuRTreeQueries.obj
 0001:000d7e40       ??$traverseRay@$0A@@RTree@Gu@physx@@QEBAXAEBVPxVec3@2@0IPEAIPEAUCallbackRaycast@012@PEBV32@M@Z 00000001800d8e40 f i GuRTreeQueries.obj
 0001:000d8190       ?traverseAABB@RTree@Gu@physx@@QEBAXAEBVPxVec3@3@0IPEAIPEAUCallback@123@@Z 00000001800d9190 f   GuRTreeQueries.obj
 0001:000d8380       ?traverseOBB@RTree@Gu@physx@@QEBAXAEBVBox@23@IPEAIPEAUCallback@123@@Z 00000001800d9380 f   GuRTreeQueries.obj
 0001:000d8c80       ??0SweepBoxMeshHitCallback@Gu@physx@@QEAA@W4Enum@CallbackMode@12@AEBVMatrix34Padded@12@M_NAEBVBox@12@AEBVPxVec3@2@44AEBV?$PxFlags@W4Enum@PxHitFlag@physx@@G@2@M2M@Z 00000001800d9c80 f   GuSweepsMesh.obj
 0001:000d8d90       ??0SweepCapsuleMeshHitCallback@Gu@physx@@QEAA@AEAUPxSweepHit@2@AEBVMatrix34@Cm@2@M_NAEBVCapsule@12@AEBVPxVec3@2@AEBV?$PxFlags@W4Enum@PxHitFlag@physx@@G@2@2M@Z 00000001800d9d90 f   GuSweepsMesh.obj
 0001:000d8e60       ??0SweepConvexMeshHitCallback@Gu@physx@@QEAA@AEBUConvexHullData@12@AEBVPxMeshScale@2@AEBVFastVertex2ShapeScaling@Cm@2@AEBVPxTransform@2@3AEBVPxVec3@2@MV?$PxFlags@W4Enum@PxHitFlag@physx@@G@2@_NM6M@Z 00000001800d9e60 f   GuSweepsMesh.obj
 0001:000d9810       ??_ESweepBoxMeshHitCallback@Gu@physx@@UEAAPEAXI@Z 00000001800da810 f i GuSweepsMesh.obj
 0001:000d9810       ??_GSweepBoxMeshHitCallback@Gu@physx@@UEAAPEAXI@Z 00000001800da810 f i GuSweepsMesh.obj
 0001:000d9840       ??_ESweepCapsuleMeshHitCallback@Gu@physx@@UEAAPEAXI@Z 00000001800da840 f i GuSweepsMesh.obj
 0001:000d9840       ??_GSweepCapsuleMeshHitCallback@Gu@physx@@UEAAPEAXI@Z 00000001800da840 f i GuSweepsMesh.obj
 0001:000d9870       ??_ESweepConvexMeshHitCallback@Gu@physx@@UEAAPEAXI@Z 00000001800da870 f i GuSweepsMesh.obj
 0001:000d9870       ??_GSweepConvexMeshHitCallback@Gu@physx@@UEAAPEAXI@Z 00000001800da870 f i GuSweepsMesh.obj
 0001:000d98a0       ??_ESweepShapeMeshHitCallback@Gu@physx@@UEAAPEAXI@Z 00000001800da8a0 f i GuSweepsMesh.obj
 0001:000d98a0       ??_GSweepShapeMeshHitCallback@Gu@physx@@UEAAPEAXI@Z 00000001800da8a0 f i GuSweepsMesh.obj
 0001:000d98d0       ?finalizeHit@SweepBoxMeshHitCallback@Gu@physx@@QEBA_NAEAUPxSweepHit@3@AEBVPxTriangleMeshGeometry@3@AEBVPxTransform@3@2AEBVPxVec3@3@_N4@Z 00000001800da8d0 f   GuSweepsMesh.obj
 0001:000d9fa0       ?finalizeHit@SweepCapsuleMeshHitCallback@Gu@physx@@QEBA_NAEAUPxSweepHit@3@AEBVCapsule@23@AEBVPxTriangleMeshGeometry@3@AEBVPxTransform@3@_N@Z 00000001800dafa0 f   GuSweepsMesh.obj
 0001:000da150       ?finalizeHit@SweepConvexMeshHitCallback@Gu@physx@@QEAA_NAEAUPxSweepHit@3@AEBVPxTriangleMeshGeometry@3@AEBVPxTransform@3@AEBVPxConvexMeshGeometry@3@2AEBVPxVec3@3@M_N555@Z 00000001800db150 f   GuSweepsMesh.obj
 0001:000da630       ?processHit@SweepBoxMeshHitCallback@Gu@physx@@UEAA_NAEBUPxRaycastHit@3@AEBVPxVec3@3@11AEAMPEBI@Z 00000001800db630 f   GuSweepsMesh.obj
 0001:000dae40       ?processHit@SweepCapsuleMeshHitCallback@Gu@physx@@UEAA_NAEBUPxRaycastHit@3@AEBVPxVec3@3@11AEAMPEBI@Z 00000001800dbe40 f   GuSweepsMesh.obj
 0001:000db380       ?processHit@SweepConvexMeshHitCallback@Gu@physx@@UEAA_NAEBUPxRaycastHit@3@AEBVPxVec3@3@11AEAMPEBI@Z 00000001800dc380 f   GuSweepsMesh.obj
 0001:000dbb10       ?sweepBox_MeshGeom@@YA_NAEBVPxGeometry@physx@@AEBVPxTransform@2@AEBVPxBoxGeometry@2@1AEBVBox@Gu@2@AEBVPxVec3@2@MAEAUPxSweepHit@2@V?$PxFlags@W4Enum@PxHitFlag@physx@@G@2@M@Z 00000001800dcb10 f   GuSweepsMesh.obj
 0001:000dbba0       ?sweepCapsule_MeshGeom@@YA_NAEBVPxGeometry@physx@@AEBVPxTransform@2@AEBVPxCapsuleGeometry@2@1AEBVCapsule@Gu@2@AEBVPxVec3@2@MAEAUPxSweepHit@2@V?$PxFlags@W4Enum@PxHitFlag@physx@@G@2@M@Z 00000001800dcba0 f   GuSweepsMesh.obj
 0001:000dbc30       ?sweepConvex_MeshGeom@@YA_NAEBVPxGeometry@physx@@AEBVPxTransform@2@AEBVPxConvexMeshGeometry@2@1AEBVPxVec3@2@MAEAUPxSweepHit@2@V?$PxFlags@W4Enum@PxHitFlag@physx@@G@2@M@Z 00000001800dcc30 f   GuSweepsMesh.obj
 0001:000dc890       ??0TriangleMesh@Gu@physx@@QEAA@AEAVGuMeshFactory@2@AEAVTriangleMeshData@12@@Z 00000001800dd890 f   GuTriangleMesh.obj
 0001:000dca20       ??1TriangleMesh@Gu@physx@@UEAA@XZ 00000001800dda20 f   GuTriangleMesh.obj
 0001:000dcbd8       ??_ETriangleMesh@Gu@physx@@WBA@EAAPEAXI@Z 00000001800ddbd8 f i GuTriangleMesh.obj
 0001:000dcbf0       ??_ETriangleMesh@Gu@physx@@UEAAPEAXI@Z 00000001800ddbf0 f i GuTriangleMesh.obj
 0001:000dcbf0       ??_GTriangleMesh@Gu@physx@@UEAAPEAXI@Z 00000001800ddbf0 f i GuTriangleMesh.obj
 0001:000dcc60       ?exportExtraData@TriangleMesh@Gu@physx@@UEAAXAEAVPxSerializationContext@3@@Z 00000001800ddc60 f   GuTriangleMesh.obj
 0001:000dcda0       ?getLocalBounds@TriangleMesh@Gu@physx@@UEBA?AVPxBounds3@3@XZ 00000001800ddda0 f i GuTriangleMesh.obj
 0001:000dce30       ?getNbVertices@TriangleMesh@Gu@physx@@UEBAIXZ 00000001800dde30 f i GuTriangleMesh.obj
 0001:000dce40       ?getTriangleMaterialIndex@TriangleMesh@Gu@physx@@UEBAGI@Z 00000001800dde40 f i GuTriangleMesh.obj
 0001:000dce60       ?getTriangleMeshFlags@TriangleMesh@Gu@physx@@UEBA?AV?$PxFlags@W4Enum@PxTriangleMeshFlag@physx@@E@3@XZ 00000001800dde60 f i GuTriangleMesh.obj
 0001:000dce70       ?getTrianglesRemap@TriangleMesh@Gu@physx@@UEBAPEBIXZ 00000001800dde70 f i GuTriangleMesh.obj
 0001:000dce80       ?getVertices@TriangleMesh@Gu@physx@@UEBAPEBVPxVec3@3@XZ 00000001800dde80 f i GuTriangleMesh.obj
 0001:000dce90       ?getVerticesForModification@TriangleMesh@Gu@physx@@UEAAPEAVPxVec3@3@XZ 00000001800dde90 f   GuTriangleMesh.obj
 0001:000dced0       ?importExtraData@TriangleMesh@Gu@physx@@QEAAXAEAVPxDeserializationContext@3@@Z 00000001800dded0 f   GuTriangleMesh.obj
 0001:000dcfe0       ?isKindOf@PxTriangleMesh@physx@@MEBA_NPEBD@Z 00000001800ddfe0 f i GuTriangleMesh.obj
 0001:000dd030       ?onRefCountZero@TriangleMesh@Gu@physx@@UEAAXXZ 00000001800de030 f   GuTriangleMesh.obj
 0001:000dd0d0       ?refitBVH@TriangleMesh@Gu@physx@@UEAA?AVPxBounds3@3@XZ 00000001800de0d0 f   GuTriangleMesh.obj
 0001:000dd1a0       ??0BV4TriangleMesh@Gu@physx@@QEAA@AEAVGuMeshFactory@2@AEAVTriangleMeshData@12@@Z 00000001800de1a0 f   GuTriangleMeshBV4.obj
 0001:000dd23c       ??_EBV4TriangleMesh@Gu@physx@@WBA@EAAPEAXI@Z 00000001800de23c f i GuTriangleMeshBV4.obj
 0001:000dd250       ??_GBV4TriangleMesh@Gu@physx@@UEAAPEAXI@Z 00000001800de250 f i GuTriangleMeshBV4.obj
 0001:000dd250       ??_EBV4TriangleMesh@Gu@physx@@UEAAPEAXI@Z 00000001800de250 f i GuTriangleMeshBV4.obj
 0001:000dd2e0       ?createObject@BV4TriangleMesh@Gu@physx@@SAPEAVTriangleMesh@23@AEAPEAEAEAVPxDeserializationContext@3@@Z 00000001800de2e0 f   GuTriangleMeshBV4.obj
 0001:000dd3b0       ?exportExtraData@BV4TriangleMesh@Gu@physx@@UEAAXAEAVPxSerializationContext@3@@Z 00000001800de3b0 f   GuTriangleMeshBV4.obj
 0001:000dd3f0       ?getConcreteTypeName@BV4TriangleMesh@Gu@physx@@UEBAPEBDXZ 00000001800de3f0 f i GuTriangleMeshBV4.obj
 0001:000dd400       ?getMidphaseID@BV4TriangleMesh@Gu@physx@@UEBA?AW4Enum@PxMeshMidPhase@3@XZ 00000001800de400 f i GuTriangleMeshBV4.obj
 0001:000dd410       ??0RTreeTriangleMesh@Gu@physx@@QEAA@AEAVGuMeshFactory@2@AEAVTriangleMeshData@12@@Z 00000001800de410 f   GuTriangleMeshRTree.obj
 0001:000dd590       ??1?$RefitCallback@G@physx@@UEAA@XZ 00000001800de590 f i GuTriangleMeshRTree.obj
 0001:000dd590       ??1?$RefitCallback@I@physx@@UEAA@XZ 00000001800de590 f i GuTriangleMeshRTree.obj
 0001:000dd59c       ??_ERTreeTriangleMesh@Gu@physx@@WBA@EAAPEAXI@Z 00000001800de59c f i GuTriangleMeshRTree.obj
 0001:000dd5b0       ??_E?$RefitCallback@G@physx@@UEAAPEAXI@Z 00000001800de5b0 f i GuTriangleMeshRTree.obj
 0001:000dd5b0       ??_G?$RefitCallback@G@physx@@UEAAPEAXI@Z 00000001800de5b0 f i GuTriangleMeshRTree.obj
 0001:000dd5b0       ??_G?$RefitCallback@I@physx@@UEAAPEAXI@Z 00000001800de5b0 f i GuTriangleMeshRTree.obj
 0001:000dd5b0       ??_E?$RefitCallback@I@physx@@UEAAPEAXI@Z 00000001800de5b0 f i GuTriangleMeshRTree.obj
 0001:000dd5e0       ??_GCallbackRefit@RTree@Gu@physx@@UEAAPEAXI@Z 00000001800de5e0 f i GuTriangleMeshRTree.obj
 0001:000dd5e0       ??_ECallbackRefit@RTree@Gu@physx@@UEAAPEAXI@Z 00000001800de5e0 f i GuTriangleMeshRTree.obj
 0001:000dd610       ??_GRTreeTriangleMesh@Gu@physx@@UEAAPEAXI@Z 00000001800de610 f i GuTriangleMeshRTree.obj
 0001:000dd610       ??_ERTreeTriangleMesh@Gu@physx@@UEAAPEAXI@Z 00000001800de610 f i GuTriangleMeshRTree.obj
 0001:000dd6d0       ?createObject@RTreeTriangleMesh@Gu@physx@@SAPEAVTriangleMesh@23@AEAPEAEAEAVPxDeserializationContext@3@@Z 00000001800de6d0 f   GuTriangleMeshRTree.obj
 0001:000dd760       ?exportExtraData@RTreeTriangleMesh@Gu@physx@@UEAAXAEAVPxSerializationContext@3@@Z 00000001800de760 f   GuTriangleMeshRTree.obj
 0001:000dd7a0       ?getConcreteTypeName@RTreeTriangleMesh@Gu@physx@@UEBAPEBDXZ 00000001800de7a0 f i GuTriangleMeshRTree.obj
 0001:000dd7b0       ?getMidphaseID@RTreeTriangleMesh@Gu@physx@@UEBA?AW4Enum@PxMeshMidPhase@3@XZ 00000001800de7b0 f i GuTriangleMeshRTree.obj
 0001:000dd7c0       ?getVerticesForModification@RTreeTriangleMesh@Gu@physx@@UEAAPEAVPxVec3@3@XZ 00000001800de7c0 f   GuTriangleMeshRTree.obj
 0001:000dd7d0       ?recomputeBounds@?$RefitCallback@G@physx@@UEAAXIAEAT__m128@@0@Z 00000001800de7d0 f i GuTriangleMeshRTree.obj
 0001:000ddb00       ?recomputeBounds@?$RefitCallback@I@physx@@UEAAXIAEAT__m128@@0@Z 00000001800deb00 f i GuTriangleMeshRTree.obj
 0001:000dde20       ?refitBVH@RTreeTriangleMesh@Gu@physx@@UEAA?AVPxBounds3@3@XZ 00000001800dee20 f   GuTriangleMeshRTree.obj
 0001:000de050       ??0BV32Tree@Gu@physx@@QEAA@PEAVSourceMesh@12@AEBVPxBounds3@2@@Z 00000001800df050 f   GuBV32.obj
 0001:000de110       ??0BV32Tree@Gu@physx@@QEAA@XZ 00000001800df110 f   GuBV32.obj
 0001:000de140       ??1BV32Tree@Gu@physx@@QEAA@XZ 00000001800df140 f   GuBV32.obj
 0001:000de150       ?calculateLeafNode@BV32Tree@Gu@physx@@QEAAXAEAUBV32Data@23@@Z 00000001800df150 f   GuBV32.obj
 0001:000de390       ?createSOAformatNode@BV32Tree@Gu@physx@@QEAAXAEAUBV32DataPacked@23@AEBUBV32Data@23@IAEAI2@Z 00000001800df390 f   GuBV32.obj
 0001:000de800       ?load@BV32Tree@Gu@physx@@QEAA_NAEAVPxInputStream@3@_N@Z 00000001800df800 f   GuBV32.obj
 0001:000dea20       ?release@BV32Tree@Gu@physx@@QEAAXXZ 00000001800dfa20 f   GuBV32.obj
 0001:000deab0       ??0BV32Node@@QEAA@XZ       00000001800dfab0 f i GuBV32Build.obj
 0001:000dedd0       ?BuildBV32Ex@Gu@physx@@YA_NAEAVBV32Tree@12@AEAVSourceMesh@12@MI@Z 00000001800dfdd0 f   GuBV32Build.obj
 0001:000e25b0       ?pcmContactBoxBox@Gu@physx@@YA_NAEBVGeometryUnion@12@0AEBVPxTransform@2@1AEBUNarrowPhaseParams@12@AEAUCache@12@AEAVContactBuffer@12@PEAVRenderOutput@Cm@2@@Z 00000001800e35b0 f   GuPCMContactBoxBox.obj
 0001:000e33d0       ??$gjkPenetration@U?$RelativeConvex@VBoxV@Gu@physx@@@Gu@physx@@U?$LocalConvex@VConvexHullNoScaleV@Gu@physx@@@23@@Gu@physx@@YA?AW4GjkStatus@01@AEBU?$RelativeConvex@VBoxV@Gu@physx@@@01@AEBU?$LocalConvex@VConvexHullNoScaleV@Gu@physx@@@01@AEBT__m128@@2_NPEIAE4AEAEAEAUGjkOutput@01@@Z 00000001800e43d0 f i GuPCMContactBoxConvex.obj
 0001:000e51d0       ?pcmContactBoxConvex@Gu@physx@@YA_NAEBVGeometryUnion@12@0AEBVPxTransform@2@1AEBUNarrowPhaseParams@12@AEAUCache@12@AEAVContactBuffer@12@PEAVRenderOutput@Cm@2@@Z 00000001800e61d0 f   GuPCMContactBoxConvex.obj
 0001:000e60c0       ?support@?$LocalConvex@VConvexHullNoScaleV@Gu@physx@@@Gu@physx@@UEBA?AT__m128@@AEBT4@@Z 00000001800e70c0 f i GuPCMContactBoxConvex.obj
 0001:000e6110       ?support@?$LocalConvex@VConvexHullNoScaleV@Gu@physx@@@Gu@physx@@UEBA?AT__m128@@AEBT4@AEAH@Z 00000001800e7110 f i GuPCMContactBoxConvex.obj
 0001:000e6170       ?supportPoint@?$LocalConvex@VConvexHullNoScaleV@Gu@physx@@@Gu@physx@@UEBA?AT__m128@@H@Z 00000001800e7170 f i GuPCMContactBoxConvex.obj
 0001:000e61a0       ?pcmContactCapsuleBox@Gu@physx@@YA_NAEBVGeometryUnion@12@0AEBVPxTransform@2@1AEBUNarrowPhaseParams@12@AEAUCache@12@AEAVContactBuffer@12@PEAVRenderOutput@Cm@2@@Z 00000001800e71a0 f   GuPCMContactCapsuleBox.obj
 0001:000e71a0       ?pcmContactCapsuleCapsule@Gu@physx@@YA_NAEBVGeometryUnion@12@0AEBVPxTransform@2@1AEBUNarrowPhaseParams@12@AEAUCache@12@AEAVContactBuffer@12@PEAVRenderOutput@Cm@2@@Z 00000001800e81a0 f   GuPCMContactCapsuleCapsule.obj
 0001:000e7a30       ??$gjkPenetration@U?$LocalConvex@VCapsuleV@Gu@physx@@@Gu@physx@@U?$LocalConvex@VConvexHullNoScaleV@Gu@physx@@@23@@Gu@physx@@YA?AW4GjkStatus@01@AEBU?$LocalConvex@VCapsuleV@Gu@physx@@@01@AEBU?$LocalConvex@VConvexHullNoScaleV@Gu@physx@@@01@AEBT__m128@@2_NPEIAE4AEAEAEAUGjkOutput@01@@Z 00000001800e8a30 f i GuPCMContactCapsuleConvex.obj
 0001:000e93e0       ?pcmContactCapsuleConvex@Gu@physx@@YA_NAEBVGeometryUnion@12@0AEBVPxTransform@2@1AEBUNarrowPhaseParams@12@AEAUCache@12@AEAVContactBuffer@12@PEAVRenderOutput@Cm@2@@Z 00000001800ea3e0 f   GuPCMContactCapsuleConvex.obj
 0001:000ea650       ??0PCMMeshContactGeneration@Gu@physx@@QEAA@AEBT__m128@@0AEBVPsTransformV@aos@shdfnd@2@1AEAVMultiplePersistentContactManifold@12@AEAVContactBuffer@12@PEAV?$InlineArray@I$0EEA@V?$ReflectionAllocator@I@shdfnd@physx@@@62@PEAVRenderOutput@Cm@2@@Z 00000001800eb650 f i GuPCMContactCapsuleHeightField.obj
 0001:000eaf70       ??_G?$PCMHeightfieldContactGenerationCallback@UPCMConvexVsHeightfieldContactGenerationCallback@physx@@@Gu@physx@@UEAAPEAXI@Z 00000001800ebf70 f i GuPCMContactConvexHeightField.obj
 0001:000eaf70       ??_E?$PCMHeightfieldContactGenerationCallback@UPCMSphereVsHeightfieldContactGenerationCallback@physx@@@Gu@physx@@UEAAPEAXI@Z 00000001800ebf70 f i GuPCMContactSphereHeightField.obj
 0001:000eaf70       ??_E?$PCMHeightfieldContactGenerationCallback@UPCMConvexVsHeightfieldContactGenerationCallback@physx@@@Gu@physx@@UEAAPEAXI@Z 00000001800ebf70 f i GuPCMContactConvexHeightField.obj
 0001:000eaf70       ??_G?$PCMHeightfieldContactGenerationCallback@UPCMSphereVsHeightfieldContactGenerationCallback@physx@@@Gu@physx@@UEAAPEAXI@Z 00000001800ebf70 f i GuPCMContactSphereHeightField.obj
 0001:000eaf70       ??_E?$PCMHeightfieldContactGenerationCallback@UPCMCapsuleVsHeightfieldContactGenerationCallback@physx@@@Gu@physx@@UEAAPEAXI@Z 00000001800ebf70 f i GuPCMContactCapsuleHeightField.obj
 0001:000eaf70       ??_G?$PCMHeightfieldContactGenerationCallback@UPCMCapsuleVsHeightfieldContactGenerationCallback@physx@@@Gu@physx@@UEAAPEAXI@Z 00000001800ebf70 f i GuPCMContactCapsuleHeightField.obj
 0001:000eafa0       ??_GPCMCapsuleVsHeightfieldContactGenerationCallback@physx@@UEAAPEAXI@Z 00000001800ebfa0 f i GuPCMContactCapsuleHeightField.obj
 0001:000eafa0       ??_EPCMCapsuleVsHeightfieldContactGenerationCallback@physx@@UEAAPEAXI@Z 00000001800ebfa0 f i GuPCMContactCapsuleHeightField.obj
 0001:000eafd0       ?onEvent@?$PCMHeightfieldContactGenerationCallback@UPCMCapsuleVsHeightfieldContactGenerationCallback@physx@@@Gu@physx@@UEAA_NIPEAI@Z 00000001800ebfd0 f i GuPCMContactCapsuleHeightField.obj
 0001:000eb590       ?pcmContactCapsuleHeightField@Gu@physx@@YA_NAEBVGeometryUnion@12@0AEBVPxTransform@2@1AEBUNarrowPhaseParams@12@AEAUCache@12@AEAVContactBuffer@12@PEAVRenderOutput@Cm@2@@Z 00000001800ec590 f   GuPCMContactCapsuleHeightField.obj
 0001:000ec310       ??$processTriangleCache@$0BA@@PCMCapsuleVsMeshContactGenerationCallback@physx@@QEAAXAEAU?$TriangleCache@$0BA@@Gu@1@@Z 00000001800ed310 f i GuPCMContactCapsuleMesh.obj
 0001:000ec3a0       ??_EPCMCapsuleVsMeshContactGenerationCallback@physx@@UEAAPEAXI@Z 00000001800ed3a0 f i GuPCMContactCapsuleMesh.obj
 0001:000ec3a0       ??_GPCMCapsuleVsMeshContactGenerationCallback@physx@@UEAAPEAXI@Z 00000001800ed3a0 f i GuPCMContactCapsuleMesh.obj
 0001:000ec3d0       ?pcmContactCapsuleMesh@Gu@physx@@YA_NAEBVGeometryUnion@12@0AEBVPxTransform@2@1AEBUNarrowPhaseParams@12@AEAUCache@12@AEAVContactBuffer@12@PEAVRenderOutput@Cm@2@@Z 00000001800ed3d0 f   GuPCMContactCapsuleMesh.obj
 0001:000ed310       ?processHit@?$PCMMeshContactGenerationCallback@UPCMCapsuleVsMeshContactGenerationCallback@physx@@@Gu@physx@@UEAA_NAEBUPxRaycastHit@3@AEBVPxVec3@3@11AEAMPEBI@Z 00000001800ee310 f i GuPCMContactCapsuleMesh.obj
 0001:000ed700       ??$sort@USortedTriangle@Gu@physx@@U?$Less@USortedTriangle@Gu@physx@@@shdfnd@3@V?$ReflectionAllocator@USortedTriangle@Gu@physx@@@53@@shdfnd@physx@@YAXPEAUSortedTriangle@Gu@1@IAEBU?$Less@USortedTriangle@Gu@physx@@@01@AEBV?$ReflectionAllocator@USortedTriangle@Gu@physx@@@01@I@Z 00000001800ee700 f i GuPCMContactConvexCommon.obj
 0001:000edbd0       ??1?$Stack@V?$ReflectionAllocator@USortedTriangle@Gu@physx@@@shdfnd@physx@@@internal@shdfnd@physx@@QEAA@XZ 00000001800eebd0 f i GuPCMContactConvexCommon.obj
 0001:000edc00       ?addContactsToPatch@PCMConvexVsMeshContactGeneration@Gu@physx@@QEAAXAEBT__m128@@I@Z 00000001800eec00 f   GuPCMContactConvexCommon.obj
 0001:000ee540       ?addToPatch@PCMSphereVsMeshContactGeneration@Gu@physx@@QEAAXAEBT__m128@@0T4@I@Z 00000001800ef540 f   GuPCMContactConvexCommon.obj
 0001:000eec00       ?allocate@?$ReflectionAllocator@USortedTriangle@Gu@physx@@@shdfnd@physx@@QEAAPEAX_KPEBDH@Z 00000001800efc00 f i GuPCMContactConvexCommon.obj
 0001:000eeca0       ?doSupport@?$SupportLocalImpl@VTriangleV@Gu@physx@@@Gu@physx@@UEBA?AT__m128@@AEBT4@@Z 00000001800efca0 f i GuPCMContactConvexCommon.obj
 0001:000eed30       ?doSupport@?$SupportLocalImpl@VTriangleV@Gu@physx@@@Gu@physx@@UEBAXAEBT__m128@@AEAT4@1@Z 00000001800efd30 f i GuPCMContactConvexCommon.obj
 0001:000eeda0       ?generateContacts@PCMCapsuleVsMeshContactGeneration@Gu@physx@@SA_NAEBT__m128@@0000I000PEAVMeshPersistentContact@23@AEAI@Z 00000001800efda0 f   GuPCMContactConvexCommon.obj
 0001:000ef1d0       ?generateEE@PCMCapsuleVsMeshContactGeneration@Gu@physx@@QEAAXAEBT__m128@@000I00PEAVMeshPersistentContact@23@AEAI@Z 00000001800f01d0 f   GuPCMContactConvexCommon.obj
 0001:000ef450       ?generateEEMTD@PCMCapsuleVsMeshContactGeneration@Gu@physx@@SAXAEBT__m128@@000I00PEAVMeshPersistentContact@23@AEAI@Z 00000001800f0450 f   GuPCMContactConvexCommon.obj
 0001:000ef6a0       ?generateLastContacts@PCMConvexVsMeshContactGeneration@Gu@physx@@QEAAXXZ 00000001800f06a0 f   GuPCMContactConvexCommon.obj
 0001:000efc20       ?generateLastContacts@PCMSphereVsMeshContactGeneration@Gu@physx@@QEAAXXZ 00000001800f0c20 f   GuPCMContactConvexCommon.obj
 0001:000f0020       ?growAndPushBack@?$Array@USortedTriangle@Gu@physx@@V?$InlineAllocator@$0IAA@V?$ReflectionAllocator@USortedTriangle@Gu@physx@@@shdfnd@physx@@@shdfnd@3@@shdfnd@physx@@IEAAAEAUSortedTriangle@Gu@3@AEBU453@@Z 00000001800f1020 f i GuPCMContactConvexCommon.obj
 0001:000f06a0       ?pcmDistanceSegmentTriangleSquared@Gu@physx@@YA?AT__m128@@AEBT3@0000AEAT3@11@Z 00000001800f16a0 f   GuPCMContactConvexCommon.obj
 0001:000f0fe0       ?populateVerts@?$SupportLocalImpl@VTriangleV@Gu@physx@@@Gu@physx@@UEBAXPEBEIPEBVPxVec3@3@PEAT__m128@@@Z 00000001800f1fe0 f i GuPCMContactConvexCommon.obj
 0001:000f1120       ?processTriangle@PCMCapsuleVsMeshContactGeneration@Gu@physx@@QEAA_NPEBVPxVec3@3@IEPEBI@Z 00000001800f2120 f   GuPCMContactConvexCommon.obj
 0001:000f1d10       ?processTriangle@PCMCapsuleVsMeshContactGeneration@Gu@physx@@SA_NAEBVTriangleV@23@IAEBVCapsuleV@23@AEBT__m128@@EPEAVMeshPersistentContact@23@AEAI@Z 00000001800f2d10 f   GuPCMContactConvexCommon.obj
 0001:000f2050       ?processTriangle@PCMConvexVsMeshContactGeneration@Gu@physx@@QEAA_NPEBVPxVec3@3@IEPEBI@Z 00000001800f3050 f   GuPCMContactConvexCommon.obj
 0001:000f2590       ?processTriangle@PCMConvexVsMeshContactGeneration@Gu@physx@@SA_NAEBUPolygonalData@23@PEAVSupportLocal@23@PEBVPxVec3@3@IEAEBT__m128@@_NAEBVPsTransformV@aos@shdfnd@3@AEBVPsMatTransformV@9shdfnd@3@PEAVMeshPersistentContact@23@AEAI@Z 00000001800f3590 f   GuPCMContactConvexCommon.obj
 0001:000f2870       ?processTriangle@PCMSphereVsMeshContactGeneration@Gu@physx@@QEAA_NPEBVPxVec3@3@IEPEBI@Z 00000001800f3870 f   GuPCMContactConvexCommon.obj
 0001:000f2c80       ??$gjkPenetration@U?$RelativeConvex@VConvexHullNoScaleV@Gu@physx@@@Gu@physx@@U?$LocalConvex@VConvexHullNoScaleV@Gu@physx@@@23@@Gu@physx@@YA?AW4GjkStatus@01@AEBU?$RelativeConvex@VConvexHullNoScaleV@Gu@physx@@@01@AEBU?$LocalConvex@VConvexHullNoScaleV@Gu@physx@@@01@AEBT__m128@@2_NPEIAE4AEAEAEAUGjkOutput@01@@Z 00000001800f3c80 f i GuPCMContactConvexConvex.obj
 0001:000f4410       ??$gjkPenetration@U?$RelativeConvex@VConvexHullNoScaleV@Gu@physx@@@Gu@physx@@U?$LocalConvex@VConvexHullV@Gu@physx@@@23@@Gu@physx@@YA?AW4GjkStatus@01@AEBU?$RelativeConvex@VConvexHullNoScaleV@Gu@physx@@@01@AEBU?$LocalConvex@VConvexHullV@Gu@physx@@@01@AEBT__m128@@2_NPEIAE4AEAEAEAUGjkOutput@01@@Z 00000001800f5410 f i GuPCMContactConvexConvex.obj
 0001:000f5bf0       ??$gjkPenetration@U?$RelativeConvex@VConvexHullV@Gu@physx@@@Gu@physx@@U?$LocalConvex@VConvexHullNoScaleV@Gu@physx@@@23@@Gu@physx@@YA?AW4GjkStatus@01@AEBU?$RelativeConvex@VConvexHullV@Gu@physx@@@01@AEBU?$LocalConvex@VConvexHullNoScaleV@Gu@physx@@@01@AEBT__m128@@2_NPEIAE4AEAEAEAUGjkOutput@01@@Z 00000001800f6bf0 f i GuPCMContactConvexConvex.obj
 0001:000f7ee0       ?pcmContactConvexConvex@Gu@physx@@YA_NAEBVGeometryUnion@12@0AEBVPxTransform@2@1AEBUNarrowPhaseParams@12@AEAUCache@12@AEAVContactBuffer@12@PEAVRenderOutput@Cm@2@@Z 00000001800f8ee0 f   GuPCMContactConvexConvex.obj
 0001:000f9070       ?support@?$RelativeConvex@VConvexHullNoScaleV@Gu@physx@@@Gu@physx@@UEBA?AT__m128@@AEBT4@@Z 00000001800fa070 f i GuPCMContactConvexConvex.obj
 0001:000f9120       ?support@?$RelativeConvex@VConvexHullNoScaleV@Gu@physx@@@Gu@physx@@UEBA?AT__m128@@AEBT4@AEAH@Z 00000001800fa120 f i GuPCMContactConvexConvex.obj
 0001:000f91e0       ?supportPoint@?$RelativeConvex@VConvexHullNoScaleV@Gu@physx@@@Gu@physx@@UEBA?AT__m128@@H@Z 00000001800fa1e0 f i GuPCMContactConvexConvex.obj
 0001:000f9240       ??_GPCMConvexVsHeightfieldContactGenerationCallback@physx@@UEAAPEAXI@Z 00000001800fa240 f i GuPCMContactConvexHeightField.obj
 0001:000f9240       ??_EPCMConvexVsHeightfieldContactGenerationCallback@physx@@UEAAPEAXI@Z 00000001800fa240 f i GuPCMContactConvexHeightField.obj
 0001:000f9270       ?PCMContactConvexHeightfield@Gu@physx@@YA_NAEBUPolygonalData@12@PEAVSupportLocal@12@AEBT__m128@@AEBVPxBounds3@2@AEBVPxHeightFieldGeometry@2@AEBVPxTransform@2@5MAEAVContactBuffer@12@AEBVFastVertex2ShapeScaling@Cm@2@_NAEAVMultiplePersistentContactManifold@12@PEAVRenderOutput@Cm@2@@Z 00000001800fa270 f   GuPCMContactConvexHeightField.obj
 0001:000f9d40       ?onEvent@?$PCMHeightfieldContactGenerationCallback@UPCMConvexVsHeightfieldContactGenerationCallback@physx@@@Gu@physx@@UEAA_NIPEAI@Z 00000001800fad40 f i GuPCMContactConvexHeightField.obj
 0001:000fa300       ?pcmContactBoxHeightField@Gu@physx@@YA_NAEBVGeometryUnion@12@0AEBVPxTransform@2@1AEBUNarrowPhaseParams@12@AEAUCache@12@AEAVContactBuffer@12@PEAVRenderOutput@Cm@2@@Z 00000001800fb300 f   GuPCMContactConvexHeightField.obj
 0001:000fa5d0       ?pcmContactConvexHeightField@Gu@physx@@YA_NAEBVGeometryUnion@12@0AEBVPxTransform@2@1AEBUNarrowPhaseParams@12@AEAUCache@12@AEAVContactBuffer@12@PEAVRenderOutput@Cm@2@@Z 00000001800fb5d0 f   GuPCMContactConvexHeightField.obj
 0001:000face0       ??$processTriangleCache@$0BA@@PCMConvexVsMeshContactGenerationCallback@physx@@QEAAXAEAU?$TriangleCache@$0BA@@Gu@1@@Z 00000001800fbce0 f i GuPCMContactConvexMesh.obj
 0001:000fad70       ??1PCMConvexVsMeshContactGenerationCallback@physx@@UEAA@XZ 00000001800fbd70 f i GuPCMContactConvexMesh.obj
 0001:000fad80       ??_GPCMConvexVsMeshContactGenerationCallback@physx@@UEAAPEAXI@Z 00000001800fbd80 f i GuPCMContactConvexMesh.obj
 0001:000fad80       ??_EPCMConvexVsMeshContactGenerationCallback@physx@@UEAAPEAXI@Z 00000001800fbd80 f i GuPCMContactConvexMesh.obj
 0001:000fadb0       ?PCMContactConvexMesh@Gu@physx@@YA_NAEBUPolygonalData@12@PEAVSupportLocal@12@AEBT__m128@@AEBVPxBounds3@2@AEBUPxTriangleMeshGeometryLL@2@AEBVPxTransform@2@5MAEAVContactBuffer@12@AEBVFastVertex2ShapeScaling@Cm@2@7_N8AEAVMultiplePersistentContactManifold@12@PEAVRenderOutput@Cm@2@@Z 00000001800fbdb0 f   GuPCMContactConvexMesh.obj
 0001:000fb990       ?pcmContactBoxMesh@Gu@physx@@YA_NAEBVGeometryUnion@12@0AEBVPxTransform@2@1AEBUNarrowPhaseParams@12@AEAUCache@12@AEAVContactBuffer@12@PEAVRenderOutput@Cm@2@@Z 00000001800fc990 f   GuPCMContactConvexMesh.obj
 0001:000fbce0       ?pcmContactConvexMesh@Gu@physx@@YA_NAEBVGeometryUnion@12@0AEBVPxTransform@2@1AEBUNarrowPhaseParams@12@AEAUCache@12@AEAVContactBuffer@12@PEAVRenderOutput@Cm@2@@Z 00000001800fcce0 f   GuPCMContactConvexMesh.obj
 0001:000fc4e0       ?processHit@?$PCMMeshContactGenerationCallback@UPCMConvexVsMeshContactGenerationCallback@physx@@@Gu@physx@@UEAA_NAEBUPxRaycastHit@3@AEBVPxVec3@3@11AEAMPEBI@Z 00000001800fd4e0 f i GuPCMContactConvexMesh.obj
 0001:000fc900       ?addGJKEPAContacts@Gu@physx@@YA_NPEBUGjkConvex@12@0AEBVPsMatTransformV@aos@shdfnd@2@W4GjkStatus@12@PEAVPersistentContact@12@T__m128@@4AEAUGjkOutput@12@AEAVPersistentContactManifold@12@@Z 00000001800fd900 f   GuPCMContactGenBoxConvex.obj
 0001:000fcb00       ?buildPartialHull@Gu@physx@@YAXAEBUPolygonalData@12@PEAVSupportLocal@12@AEAVSeparatingAxes@12@AEBT__m128@@3@Z 00000001800fdb00 f   GuPCMContactGenBoxConvex.obj
 0001:000fcde0       ?computeMTD@Gu@physx@@YA_NAEAUPolygonalData@12@0PEAVSupportLocal@12@1AEAT__m128@@2@Z 00000001800fdde0 f   GuPCMContactGenBoxConvex.obj
 0001:000fd440       ?generateFullContactManifold@Gu@physx@@YA_NAEAUPolygonalData@12@0PEAVSupportLocal@12@1PEAVPersistentContact@12@AEAIAEBT__m128@@444MM_NPEAVRenderOutput@Cm@2@M@Z 00000001800fe440 f   GuPCMContactGenBoxConvex.obj
 0001:000ff030       ?generatedContacts@Gu@physx@@YAXAEAUPolygonalData@12@0AEBUHullPolygonData@12@1PEAVSupportLocal@12@2AEBVPsMatTransformV@aos@shdfnd@2@PEAVPersistentContact@12@AEAIAEBT__m128@@PEAVRenderOutput@Cm@2@@Z 0000000180100030 f   GuPCMContactGenBoxConvex.obj
 0001:00100770       ?computeMTD@Gu@physx@@YA_NAEBVCapsuleV@12@AEAUPolygonalData@12@PEAVSupportLocal@12@AEAT__m128@@3@Z 0000000180101770 f   GuPCMContactGenSphereCapsule.obj
 0001:00100860       ?generateCapsuleBoxFullContactManifold@Gu@physx@@YA_NAEBVCapsuleV@12@AEAUPolygonalData@12@PEAVSupportLocal@12@AEBVPsMatTransformV@aos@shdfnd@2@PEAVPersistentContact@12@AEAIAEBT__m128@@AEAT__m128@@6M_NMPEAVRenderOutput@Cm@2@@Z 0000000180101860 f   GuPCMContactGenSphereCapsule.obj
 0001:00101120       ?generateFullContactManifold@Gu@physx@@YA_NAEBVCapsuleV@12@AEAUPolygonalData@12@PEAVSupportLocal@12@AEBVPsMatTransformV@aos@shdfnd@2@PEAVPersistentContact@12@AEAIAEBT__m128@@AEAT__m128@@6M_NM@Z 0000000180102120 f   GuPCMContactGenSphereCapsule.obj
 0001:00101a60       ?generateSphereFullContactManifold@Gu@physx@@YA_NAEBVCapsuleV@12@AEAUPolygonalData@12@PEAVSupportLocal@12@PEAVPersistentContact@12@AEAIAEBT__m128@@AEAT7@_N@Z 0000000180102a60 f   GuPCMContactGenSphereCapsule.obj
 0001:00101ec0       ?generatedCapsuleBoxFaceContacts@Gu@physx@@YAXAEBVCapsuleV@12@AEAUPolygonalData@12@AEBUHullPolygonData@12@PEAVSupportLocal@12@AEBVPsMatTransformV@aos@shdfnd@2@PEAVPersistentContact@12@AEAIAEBT__m128@@7@Z 0000000180102ec0 f   GuPCMContactGenSphereCapsule.obj
 0001:00102680       ?generatedContactsEEContacts@Gu@physx@@YAXAEBVCapsuleV@12@AEAUPolygonalData@12@AEBUHullPolygonData@12@PEAVSupportLocal@12@AEBVPsMatTransformV@aos@shdfnd@2@PEAVPersistentContact@12@AEAIAEBT__m128@@7@Z 0000000180103680 f   GuPCMContactGenSphereCapsule.obj
 0001:00103330       ?pcmContactPlaneBox@Gu@physx@@YA_NAEBVGeometryUnion@12@0AEBVPxTransform@2@1AEBUNarrowPhaseParams@12@AEAUCache@12@AEAVContactBuffer@12@PEAVRenderOutput@Cm@2@@Z 0000000180104330 f   GuPCMContactPlaneBox.obj
 0001:00103f00       ?pcmContactPlaneCapsule@Gu@physx@@YA_NAEBVGeometryUnion@12@0AEBVPxTransform@2@1AEBUNarrowPhaseParams@12@AEAUCache@12@AEAVContactBuffer@12@PEAVRenderOutput@Cm@2@@Z 0000000180104f00 f   GuPCMContactPlaneCapsule.obj
 0001:001046c0       ?pcmContactPlaneConvex@Gu@physx@@YA_NAEBVGeometryUnion@12@0AEBVPxTransform@2@1AEBUNarrowPhaseParams@12@AEAUCache@12@AEAVContactBuffer@12@PEAVRenderOutput@Cm@2@@Z 00000001801056c0 f   GuPCMContactPlaneConvex.obj
 0001:00105040       ?pcmContactSphereBox@Gu@physx@@YA_NAEBVGeometryUnion@12@0AEBVPxTransform@2@1AEBUNarrowPhaseParams@12@AEAUCache@12@AEAVContactBuffer@12@PEAVRenderOutput@Cm@2@@Z 0000000180106040 f   GuPCMContactSphereBox.obj
 0001:001054b0       ?pcmContactSphereCapsule@Gu@physx@@YA_NAEBVGeometryUnion@12@0AEBVPxTransform@2@1AEBUNarrowPhaseParams@12@AEAUCache@12@AEAVContactBuffer@12@PEAVRenderOutput@Cm@2@@Z 00000001801064b0 f   GuPCMContactSphereCapsule.obj
 0001:00105950       ?pcmContactSphereConvex@Gu@physx@@YA_NAEBVGeometryUnion@12@0AEBVPxTransform@2@1AEBUNarrowPhaseParams@12@AEAUCache@12@AEAVContactBuffer@12@PEAVRenderOutput@Cm@2@@Z 0000000180106950 f   GuPCMContactSphereConvex.obj
 0001:00106720       ??1PCMSphereVsHeightfieldContactGenerationCallback@physx@@UEAA@XZ 0000000180107720 f i GuPCMContactSphereHeightField.obj
 0001:00106790       ??_GPCMSphereVsHeightfieldContactGenerationCallback@physx@@UEAAPEAXI@Z 0000000180107790 f i GuPCMContactSphereHeightField.obj
 0001:00106790       ??_EPCMSphereVsHeightfieldContactGenerationCallback@physx@@UEAAPEAXI@Z 0000000180107790 f i GuPCMContactSphereHeightField.obj
 0001:001067d0       ?onEvent@?$PCMHeightfieldContactGenerationCallback@UPCMSphereVsHeightfieldContactGenerationCallback@physx@@@Gu@physx@@UEAA_NIPEAI@Z 00000001801077d0 f i GuPCMContactSphereHeightField.obj
 0001:00106d90       ?pcmContactSphereHeightField@Gu@physx@@YA_NAEBVGeometryUnion@12@0AEBVPxTransform@2@1AEBUNarrowPhaseParams@12@AEAUCache@12@AEAVContactBuffer@12@PEAVRenderOutput@Cm@2@@Z 0000000180107d90 f   GuPCMContactSphereHeightField.obj
 0001:00107860       ??$processTriangleCache@$0BA@@PCMSphereVsMeshContactGenerationCallback@physx@@QEAAXAEAU?$TriangleCache@$0BA@@Gu@1@@Z 0000000180108860 f i GuPCMContactSphereMesh.obj
 0001:001078f0       ??1PCMSphereVsMeshContactGenerationCallback@physx@@UEAA@XZ 00000001801088f0 f i GuPCMContactSphereMesh.obj
 0001:00107960       ??_GPCMSphereVsMeshContactGenerationCallback@physx@@UEAAPEAXI@Z 0000000180108960 f i GuPCMContactSphereMesh.obj
 0001:00107960       ??_EPCMSphereVsMeshContactGenerationCallback@physx@@UEAAPEAXI@Z 0000000180108960 f i GuPCMContactSphereMesh.obj
 0001:001079a0       ?pcmContactSphereMesh@Gu@physx@@YA_NAEBVGeometryUnion@12@0AEBVPxTransform@2@1AEBUNarrowPhaseParams@12@AEAUCache@12@AEAVContactBuffer@12@PEAVRenderOutput@Cm@2@@Z 00000001801089a0 f   GuPCMContactSphereMesh.obj
 0001:001085d0       ?processHit@?$PCMMeshContactGenerationCallback@UPCMSphereVsMeshContactGenerationCallback@physx@@@Gu@physx@@UEAA_NAEBUPxRaycastHit@3@AEBVPxVec3@3@11AEAMPEBI@Z 00000001801095d0 f i GuPCMContactSphereMesh.obj
 0001:001089c0       ?pcmContactSpherePlane@Gu@physx@@YA_NAEBVGeometryUnion@12@0AEBVPxTransform@2@1AEBUNarrowPhaseParams@12@AEAUCache@12@AEAVContactBuffer@12@PEAVRenderOutput@Cm@2@@Z 00000001801099c0 f   GuPCMContactSpherePlane.obj
 0001:00108b50       ?pcmContactSphereSphere@Gu@physx@@YA_NAEBVGeometryUnion@12@0AEBVPxTransform@2@1AEBUNarrowPhaseParams@12@AEAUCache@12@AEAVContactBuffer@12@PEAVRenderOutput@Cm@2@@Z 0000000180109b50 f   GuPCMContactSphereSphere.obj
 0001:00108c30       ?getPCMConvexData@Gu@physx@@YAXAEBVConvexHullV@12@_NAEAUPolygonalData@12@@Z 0000000180109c30 f   GuPCMShapeConvex.obj
 0001:00108d90       ?getPCMConvexData@Gu@physx@@YA_NAEBVGeometryUnion@12@AEAVFastVertex2ShapeScaling@Cm@2@AEAVPxBounds3@2@AEAUPolygonalData@12@@Z 0000000180109d90 f   GuPCMShapeConvex.obj
 0001:00109150       ?getPolygonalData@PCMPolygonalBox@Gu@physx@@QEBAXPEIAUPolygonalData@23@@Z 000000018010a150 f   GuPCMShapeConvex.obj
 0001:001091a0       ?generatePolyDataContactManifold@PCMConvexVsMeshContactGeneration@Gu@physx@@QEAA_NAEAVTriangleV@23@IIEPEAVMeshPersistentContact@23@AEAIAEBT__m128@@AEAT6@@Z 000000018010a1a0 f   GuPCMTriangleContactGen.obj
 0001:001092c0       ?generateTriangleFullContactManifold@PCMConvexVsMeshContactGeneration@Gu@physx@@QEAA_NAEAVTriangleV@23@IPEBIEAEBUPolygonalData@23@PEAV?$SupportLocalImpl@VTriangleV@Gu@physx@@@23@PEAVSupportLocal@23@PEAVMeshPersistentContact@23@AEAIAEBT__m128@@AEAT9@@Z 000000018010a2c0 f   GuPCMTriangleContactGen.obj
 0001:00109bc0       ?generateTriangleFullContactManifold@PCMConvexVsMeshContactGeneration@Gu@physx@@SA_NAEAVTriangleV@23@IEAEBUPolygonalData@23@PEAV?$SupportLocalImpl@VTriangleV@Gu@physx@@@23@PEAVSupportLocal@23@PEAVMeshPersistentContact@23@AEAIAEBT__m128@@AEAT9@PEAVRenderOutput@Cm@3@@Z 000000018010abc0 f   GuPCMTriangleContactGen.obj
 0001:0010c2e0       ?addBatchManifoldContacts2@PersistentContactManifold@Gu@physx@@QEAAXPEBVPersistentContact@23@I@Z 000000018010d2e0 f   GuPersistentContactManifold.obj
 0001:0010c350       ?addBatchManifoldContacts@PersistentContactManifold@Gu@physx@@QEAAXPEBVPersistentContact@23@IM@Z 000000018010d350 f   GuPersistentContactManifold.obj
 0001:0010c3d0       ?addBatchManifoldContactsCluster@PersistentContactManifold@Gu@physx@@QEAAXPEBVPersistentContact@23@I@Z 000000018010d3d0 f   GuPersistentContactManifold.obj
 0001:0010c650       ?addManifoldContactPoints@MultiplePersistentContactManifold@Gu@physx@@QEAAXPEAVMeshPersistentContact@23@IPEAPEAUPCMContactPatch@23@IAEBT__m128@@2E@Z 000000018010d650 f   GuPersistentContactManifold.obj
 0001:0010ca50       ?addManifoldContactsToContactBuffer@MultiplePersistentContactManifold@Gu@physx@@QEAA_NAEAVContactBuffer@23@AEBVPsTransformV@aos@shdfnd@3@1AEBT__m128@@@Z 000000018010da50 f   GuPersistentContactManifold.obj
 0001:0010cd10       ?addManifoldContactsToContactBuffer@MultiplePersistentContactManifold@Gu@physx@@QEAA_NAEAVContactBuffer@23@AEBVPsTransformV@aos@shdfnd@3@@Z 000000018010dd10 f   GuPersistentContactManifold.obj
 0001:0010cfa0       ?addManifoldContactsToContactBuffer@PersistentContactManifold@Gu@physx@@QEAAXAEAVContactBuffer@23@AEBT__m128@@1AEBVPsTransformV@aos@shdfnd@3@11@Z 000000018010dfa0 f   GuPersistentContactManifold.obj
 0001:0010d130       ?addManifoldContactsToContactBuffer@PersistentContactManifold@Gu@physx@@QEAAXAEAVContactBuffer@23@AEBT__m128@@AEBVPsMatTransformV@aos@shdfnd@3@@Z 000000018010e130 f   GuPersistentContactManifold.obj
 0001:0010d1d0       ?addManifoldContactsToContactBuffer@PersistentContactManifold@Gu@physx@@QEAAXAEAVContactBuffer@23@AEBT__m128@@AEBVPsTransformV@aos@shdfnd@3@1@Z 000000018010e1d0 f   GuPersistentContactManifold.obj
 0001:0010d330       ?addManifoldPoint2@PersistentContactManifold@Gu@physx@@QEAAIAEBT__m128@@000@Z 000000018010e330 f   GuPersistentContactManifold.obj
 0001:0010d460       ?addManifoldPoint@Gu@physx@@YAXPEAVPersistentContact@12@AEAVPersistentContactManifold@12@AEAUGjkOutput@12@AEBVPsMatTransformV@aos@shdfnd@2@T__m128@@@Z 000000018010e460 f   GuPersistentContactManifold.obj
 0001:0010d610       ?addManifoldPoint@PersistentContactManifold@Gu@physx@@QEAAIAEBT__m128@@000@Z 000000018010e610 f   GuPersistentContactManifold.obj
 0001:0010da60       ?drawLine@MultiplePersistentContactManifold@Gu@physx@@SAXAEAVRenderOutput@Cm@3@AEBT__m128@@1I@Z 000000018010ea60 f   GuPersistentContactManifold.obj
 0001:0010db20       ?drawLine@MultiplePersistentContactManifold@Gu@physx@@SAXAEAVRenderOutput@Cm@3@VPxVec3@3@1I@Z 000000018010eb20 f   GuPersistentContactManifold.obj
 0001:0010dbe0       ?drawManifold@MultiplePersistentContactManifold@Gu@physx@@QEAAXAEAVRenderOutput@Cm@3@AEBVPsTransformV@aos@shdfnd@3@1@Z 000000018010ebe0 f   GuPersistentContactManifold.obj
 0001:0010e390       ?drawPoint@MultiplePersistentContactManifold@Gu@physx@@SAXAEAVRenderOutput@Cm@3@AEBT__m128@@MI@Z 000000018010f390 f   GuPersistentContactManifold.obj
 0001:0010e570       ?drawPolygon@MultiplePersistentContactManifold@Gu@physx@@SAXAEAVRenderOutput@Cm@3@AEBVPsTransformV@aos@shdfnd@3@PEAT__m128@@II@Z 000000018010f570 f   GuPersistentContactManifold.obj
 0001:0010e7e0       ?findRotationMatrixFromZAxis@Gu@physx@@YA?AUMat33V@aos@shdfnd@2@AEBT__m128@@@Z 000000018010f7e0 f   GuPersistentContactManifold.obj
 0001:0010ea60       ?fromBuffer@MultiplePersistentContactManifold@Gu@physx@@QEAAXPEIAE@Z 000000018010fa60 f   GuPersistentContactManifold.obj
 0001:0010ebb0       ?reduceBatchContacts2@PersistentContactManifold@Gu@physx@@QEAAXPEBVPersistentContact@23@I@Z 000000018010fbb0 f   GuPersistentContactManifold.obj
 0001:0010edc0       ?reduceBatchContacts@PersistentContactManifold@Gu@physx@@QEAAXPEBVPersistentContact@23@IM@Z 000000018010fdc0 f   GuPersistentContactManifold.obj
 0001:0010f290       ?reduceBatchContactsCapsule@SinglePersistentContactManifold@Gu@physx@@QEAA?AT__m128@@PEBVMeshPersistentContact@23@IAEAUPCMContactPatch@23@@Z 0000000180110290 f   GuPersistentContactManifold.obj
 0001:0010f540       ?reduceBatchContactsCluster@PersistentContactManifold@Gu@physx@@QEAAXPEBVPersistentContact@23@I@Z 0000000180110540 f   GuPersistentContactManifold.obj
 0001:0010f9e0       ?reduceBatchContactsConvex@SinglePersistentContactManifold@Gu@physx@@QEAA?AT__m128@@PEBVMeshPersistentContact@23@IAEAUPCMContactPatch@23@@Z 00000001801109e0 f   GuPersistentContactManifold.obj
 0001:0010ffd0       ?reduceContacts@SinglePersistentContactManifold@Gu@physx@@SAIPEAVMeshPersistentContact@23@I@Z 0000000180110fd0 f   GuPersistentContactManifold.obj
 0001:001104e0       ?reduceContactsForPCM@PersistentContactManifold@Gu@physx@@QEAAIAEBT__m128@@00@Z 00000001801114e0 f   GuPersistentContactManifold.obj
 0001:00110a70       ?refreshContactPoints@SinglePersistentContactManifold@Gu@physx@@QEAA?AT__m128@@AEBVPsMatTransformV@aos@shdfnd@3@AEBT4@1@Z 0000000180111a70 f   GuPersistentContactManifold.obj
 0001:00110bc0       ?replaceManifoldPoint@PersistentContactManifold@Gu@physx@@QEAA_NAEBT__m128@@000@Z 0000000180111bc0 f   GuPersistentContactManifold.obj
 0001:00110c80       ?sweepBoxBox@Gu@physx@@YA_NAEBVBox@12@0AEBVPxVec3@2@MV?$PxFlags@W4Enum@PxHitFlag@physx@@G@2@AEAUPxSweepHit@2@@Z 0000000180111c80 f   GuSweepBoxBox.obj
 0001:00112250       ?sweepBoxSphere@Gu@physx@@YA_NAEBVBox@12@MAEBVPxVec3@2@1MAEAMAEAV42@V?$PxFlags@W4Enum@PxHitFlag@physx@@G@2@@Z 0000000180113250 f   GuSweepBoxSphere.obj
 0001:00112ee0       ?sweepBoxTriangle@Gu@physx@@YA_NAEBVPxTriangle@2@AEBVPxBounds3@2@AEBVPxVec3@2@2AEAV52@3AEAM_N@Z 0000000180113ee0 f   GuSweepBoxTriangle_FeatureBased.obj
 0001:00114590       ?triBoxSweepTestBoxSpace@Gu@physx@@YAHAEBVPxTriangle@2@AEBVPxVec3@2@11MAEAM_N@Z 0000000180115590 f   GuSweepBoxTriangle_SAT.obj
 0001:00115f10       ?sweepCapsuleBox@Gu@physx@@YA_NAEBVCapsule@12@AEBVPxTransform@2@AEBVPxVec3@2@2MAEAV52@AEAM3V?$PxFlags@W4Enum@PxHitFlag@physx@@G@2@@Z 0000000180116f10 f   GuSweepCapsuleBox.obj
 0001:001162a0       ?distancePointSegmentSquared@Gu@physx@@YAMAEBVSegment@12@AEBVPxVec3@2@PEAM@Z 00000001801172a0 f i GuSweepCapsuleCapsule.obj
 0001:00116620       ?sweepCapsuleCapsule@Gu@physx@@YA_NAEBVCapsule@12@0AEBVPxVec3@2@MAEAMAEAV42@3IAEAG@Z 0000000180117620 f   GuSweepCapsuleCapsule.obj
 0001:00117490       ?sweepCapsuleTriangles_Precise@Gu@physx@@YA_NIPEIBVPxTriangle@2@AEBVCapsule@12@AEBVPxVec3@2@MPEIBIAEAUPxSweepHit@2@AEAV52@V?$PxFlags@W4Enum@PxHitFlag@physx@@G@2@_NPEBVBoxPadded@12@@Z 0000000180118490 f   GuSweepCapsuleTriangle.obj
 0001:00119570       ?sweepSphereCapsule@Gu@physx@@YA_NAEBVSphere@12@AEBVCapsule@12@AEBVPxVec3@2@MAEAMAEAV52@4V?$PxFlags@W4Enum@PxHitFlag@physx@@G@2@@Z 000000018011a570 f   GuSweepSphereCapsule.obj
 0001:00119c10       ?sweepSphereSphere@Gu@physx@@YA_NAEBVPxVec3@2@M0M0AEAMAEAV32@@Z 000000018011ac10 f   GuSweepSphereSphere.obj
 0001:00119e80       ?sweepSphereTriangles@Gu@physx@@YA_NIPEIBVPxTriangle@2@AEBVPxVec3@2@M1MPEIBIAEAUPxSweepHit@2@AEAV42@_N555@Z 000000018011ae80 f   GuSweepSphereTriangle.obj
 0001:0011a750       ?sweepSphereVSQuad@Gu@physx@@YA_NPEIBVPxVec3@2@AEBV32@1M1AEAM@Z 000000018011b750 f   GuSweepSphereTriangle.obj
 0001:0011bc30       ?sweepSphereVSTri@Gu@physx@@YA_NPEIBVPxVec3@2@AEBV32@1M1AEAMAEA_N_N@Z 000000018011cc30 f   GuSweepSphereTriangle.obj
 0001:0011cb10       ??$gjk@U?$LocalConvex@VTriangleV@Gu@physx@@@Gu@physx@@U?$LocalConvex@VBoxV@Gu@physx@@@23@@Gu@physx@@YA?AW4GjkStatus@01@AEBU?$LocalConvex@VTriangleV@Gu@physx@@@01@AEBU?$LocalConvex@VBoxV@Gu@physx@@@01@AEBT__m128@@2AEAT5@333@Z 000000018011db10 f i GuSweepTriangleUtils.obj
 0001:0011d860       ?computeBoxTriImpactData@Gu@physx@@YAXAEAVPxVec3@2@0AEBV32@1AEBVPxTriangle@2@M@Z 000000018011e860 f   GuSweepTriangleUtils.obj
 0001:0011daf0       ?computeEdgeEdgeNormal@Gu@physx@@YAXAEAVPxVec3@2@AEBV32@1111M@Z 000000018011eaf0 f   GuSweepTriangleUtils.obj
 0001:0011ddb0       ?computeSphereTriImpactData@Gu@physx@@YAXAEAVPxVec3@2@0AEBV32@1MAEBVPxTriangle@2@@Z 000000018011edb0 f   GuSweepTriangleUtils.obj
 0001:0011e30d       __imp_load_PxGetFoundation 000000018011f30d f   PhysXFoundation_64:PhysXFoundation_64.dll
 0001:0011e319       __tailMerge_physxfoundation_64_dll 000000018011f319     PhysXFoundation_64:PhysXFoundation_64.dll
 0001:0011e392       __imp_load_?getAllocator@shdfnd@physx@@YAAEAVPxAllocatorCallback@2@XZ 000000018011f392 f   PhysXFoundation_64:PhysXFoundation_64.dll
 0001:0011e39e       __imp_load_?getInstance@Foundation@shdfnd@physx@@SAAEAV123@XZ 000000018011f39e f   PhysXFoundation_64:PhysXFoundation_64.dll
 0001:0011e3aa       __imp_load_?error@Foundation@shdfnd@physx@@QEAAXW4Enum@PxErrorCode@3@PEBDH1ZZ 000000018011f3aa f   PhysXFoundation_64:PhysXFoundation_64.dll
 0001:0011e3b6       __imp_load_?vsnprintf@shdfnd@physx@@YAHPEAD_KPEBD0@Z 000000018011f3b6 f   PhysXFoundation_64:PhysXFoundation_64.dll
 0001:0011e3c2       __imp_load_??0MutexImpl@shdfnd@physx@@QEAA@XZ 000000018011f3c2 f   PhysXFoundation_64:PhysXFoundation_64.dll
 0001:0011e3ce       __imp_load_??1MutexImpl@shdfnd@physx@@QEAA@XZ 000000018011f3ce f   PhysXFoundation_64:PhysXFoundation_64.dll
 0001:0011e3da       __imp_load_?lock@MutexImpl@shdfnd@physx@@QEAAXXZ 000000018011f3da f   PhysXFoundation_64:PhysXFoundation_64.dll
 0001:0011e3e6       __imp_load_?unlock@MutexImpl@shdfnd@physx@@QEAAXXZ 000000018011f3e6 f   PhysXFoundation_64:PhysXFoundation_64.dll
 0001:0011e3f2       __imp_load_?getSize@MutexImpl@shdfnd@physx@@SAIXZ 000000018011f3f2 f   PhysXFoundation_64:PhysXFoundation_64.dll
 0001:0011e3fe       __imp_load_?atomicDecrement@shdfnd@physx@@YAHPECH@Z 000000018011f3fe f   PhysXFoundation_64:PhysXFoundation_64.dll
 0001:0011e40a       __imp_load_?PxTransformFromSegment@physx@@YA?AVPxTransform@1@AEBVPxVec3@1@0PEAM@Z 000000018011f40a f   PhysXFoundation_64:PhysXFoundation_64.dll
 0001:0011e416       __imp_load_?optimizeBoundingBox@shdfnd@physx@@YA?AVPxVec3@2@AEAVPxMat33@2@@Z 000000018011f416 f   PhysXFoundation_64:PhysXFoundation_64.dll
 0001:0011e422       __imp_load_?allocate@TempAllocator@shdfnd@physx@@QEAAPEAX_KPEBDH@Z 000000018011f422 f   PhysXFoundation_64:PhysXFoundation_64.dll
 0001:0011e42e       __imp_load_?deallocate@TempAllocator@shdfnd@physx@@QEAAXPEAX@Z 000000018011f42e f   PhysXFoundation_64:PhysXFoundation_64.dll
 0001:0011e43a       __imp_load_?atomicIncrement@shdfnd@physx@@YAHPECH@Z 000000018011f43a f   PhysXFoundation_64:PhysXFoundation_64.dll
 0001:0011e448       ?DloadAcquireSectionWriteAccess@@YAXXZ 000000018011f448 f i Delayimp:delayhlp.obj
 0001:0011e4f4       ?DloadGetSRWLockFunctionPointers@@YAEXZ 000000018011f4f4 f i Delayimp:delayhlp.obj
 0001:0011e594       ?DloadMakePermanentImageCommit@@YAXPEAX_K@Z 000000018011f594 f i Delayimp:delayhlp.obj
 0001:0011e62c       ?DloadObtainSection@@YAPEAXPEAK0@Z 000000018011f62c f i Delayimp:delayhlp.obj
 0001:0011e6c8       ?DloadProtectSection@@YAXKPEAK@Z 000000018011f6c8 f i Delayimp:delayhlp.obj
 0001:0011e758       ?DloadReleaseSectionWriteAccess@@YAXXZ 000000018011f758 f i Delayimp:delayhlp.obj
 0001:0011e7ec       __delayLoadHelper2         000000018011f7ec f   Delayimp:delayhlp.obj
 0001:0011eac4       ??3@YAXPEAX_K@Z            000000018011fac4 f   MSVCRT:delete_scalar_size.obj
 0001:0011eac4       ??_V@YAXPEAX@Z             000000018011fac4 f   MSVCRT:delete_array.obj
 0001:0011eacc       ??_Etype_info@@UEAAPEAXI@Z 000000018011facc f i MSVCRT:std_type_info_static.obj
 0001:0011eacc       ??_Gtype_info@@UEAAPEAXI@Z 000000018011facc f i MSVCRT:std_type_info_static.obj
 0001:0011eaf8       ?__scrt_initialize_type_info@@YAXXZ 000000018011faf8 f   MSVCRT:tncleanup.obj
 0001:0011eb08       ?__scrt_uninitialize_type_info@@YAXXZ 000000018011fb08 f   MSVCRT:tncleanup.obj
 0001:0011eb14       ??_M@YAXPEAX_K1P6AX0@Z@Z   000000018011fb14 f   MSVCRT:ehvecdtr.obj
 0001:0011eb80       ?__ArrayUnwind@@YAXPEAX_K1P6AX0@Z@Z 000000018011fb80 f   MSVCRT:ehvecdtr.obj
 0001:0011ebe4       ??_V@YAXPEAX_K@Z           000000018011fbe4 f   MSVCRT:delete_array_size.obj
 0001:0011ebec       __GSHandlerCheck           000000018011fbec f   MSVCRT:gshandler.obj
 0001:0011ec0c       __GSHandlerCheckCommon     000000018011fc0c f   MSVCRT:gshandler.obj
 0001:0011ec80       __chkstk                   000000018011fc80 f   MSVCRT:chkstk.obj
 0001:0011ec80       _alloca_probe              000000018011fc80 f   MSVCRT:chkstk.obj
 0001:0011ece0       __security_check_cookie    000000018011fce0 f   MSVCRT:amdsecgs.obj
 0001:0011ed00       __vdecl_sinf4              000000018011fd00 f   MSVCRT:svml_ssinf4_dispatch.obj
 0001:0011ed20       __libm_sse2_sincosf_       000000018011fd20 f   MSVCRT:svml_ssinf4_dispatch.obj
 0001:0011ed63       __libm_sse2_sincosf4_      000000018011fd63 f   MSVCRT:svml_ssinf4_dispatch.obj
 0001:0011ed70       ??3@YAXPEAX@Z              000000018011fd70 f   MSVCRT:delete_scalar.obj
 0001:0011ed78       __GSHandlerCheck_EH4       000000018011fd78 f   MSVCRT:gshandlereh4.obj
 0001:0011edf8       ??_L@YAXPEAX_K1P6AX0@Z2@Z  000000018011fdf8 f   MSVCRT:ehvecctr.obj
 0001:0011ee68       __raise_securityfailure    000000018011fe68 f   MSVCRT:gs_report.obj
 0001:0011ee9c       __report_gsfailure         000000018011fe9c f   MSVCRT:gs_report.obj
 0001:0011ef70       __report_rangecheckfailure 000000018011ff70 f   MSVCRT:gs_report.obj
 0001:0011ef84       __report_securityfailure   000000018011ff84 f   MSVCRT:gs_report.obj
 0001:0011f424       _DllMainCRTStartup         0000000180120424 f   MSVCRT:dll_dllmain.obj
 0001:0011f464       _guard_check_icall_nop     0000000180120464 f i MSVCRT:guard_support.obj
 0001:0011f468       __isa_available_init       0000000180120468 f   MSVCRT:cpu_disp.obj
 0001:0011f620       __sse2_sinf4@@16           0000000180120620 f   MSVCRT:svml_ssinf4_sse2.obj
 0001:0011ff60       __sse4_sinf4@@16           0000000180120f60 f   MSVCRT:svml_ssinf4_sse4.obj
 0001:001206d4       __security_init_cookie     00000001801216d4 f   MSVCRT:gs_support.obj
 0001:00120780       DllMain                    0000000180121780 f   MSVCRT:dll_dllmain_stub.obj
 0001:001207a4       __local_stdio_printf_options 00000001801217a4 f i MSVCRT:default_local_stdio_options.obj
 0001:001207ac       __local_stdio_scanf_options 00000001801217ac f i MSVCRT:default_local_stdio_options.obj
 0001:001207b4       __scrt_initialize_default_local_stdio_options 00000001801217b4 f   MSVCRT:default_local_stdio_options.obj
 0001:001207d0       __scrt_acquire_startup_lock 00000001801217d0 f   MSVCRT:utility.obj
 0001:0012080c       __scrt_dllmain_after_initialize_c 000000018012180c f   MSVCRT:utility.obj
 0001:00120840       __scrt_dllmain_before_initialize_c 0000000180121840 f   MSVCRT:utility.obj
 0001:00120858       __scrt_dllmain_crt_thread_attach 0000000180121858 f   MSVCRT:utility.obj
 0001:00120880       __scrt_dllmain_crt_thread_detach 0000000180121880 f   MSVCRT:utility.obj
 0001:00120898       __scrt_dllmain_exception_filter 0000000180121898 f   MSVCRT:utility.obj
 0001:001208f8       __scrt_dllmain_uninitialize_c 00000001801218f8 f   MSVCRT:utility.obj
 0001:00120928       __scrt_dllmain_uninitialize_critical 0000000180121928 f   MSVCRT:utility.obj
 0001:0012093c       __scrt_initialize_crt      000000018012193c f   MSVCRT:utility.obj
 0001:00120988       __scrt_initialize_onexit_tables 0000000180121988 f   MSVCRT:utility.obj
 0001:00120a14       __scrt_is_nonwritable_in_current_image 0000000180121a14 f   MSVCRT:utility.obj
 0001:00120aac       __scrt_release_startup_lock 0000000180121aac f   MSVCRT:utility.obj
 0001:00120ad0       __scrt_uninitialize_crt    0000000180121ad0 f   MSVCRT:utility.obj
 0001:00120afc       __scrt_get_dyn_tls_init_callback 0000000180121afc f   MSVCRT:dyn_tls_init.obj
 0001:00120b04       __crt_debugger_hook        0000000180121b04 f   MSVCRT:utility_desktop.obj
 0001:00120b0c       __scrt_fastfail            0000000180121b0c f   MSVCRT:utility_desktop.obj
 0001:00120c58       _RTC_Initialize            0000000180121c58 f   MSVCRT:initsect.obj
 0001:00120c94       _RTC_Terminate             0000000180121c94 f   MSVCRT:initsect.obj
 0001:00120cd0       __common_ssin_cout_rare    0000000180121cd0 f   MSVCRT:svml_s_sin_cout.obj
 0001:00120d40       _get_startup_argv_mode     0000000180121d40 f   MSVCRT:argv_mode.obj
 0001:00120d48       __scrt_is_ucrt_dll_in_use  0000000180121d48 f   MSVCRT:ucrt_detection.obj
 0001:00120d54       _purecall                  0000000180121d54 f   vcruntime:VCRUNTIME140.dll
 0001:00120d5a       __std_terminate            0000000180121d5a f   vcruntime:VCRUNTIME140.dll
 0001:00120d60       __std_type_info_name       0000000180121d60 f   vcruntime:VCRUNTIME140.dll
 0001:00120d66       __CxxFrameHandler4         0000000180121d66 f   vcruntime:VCRUNTIME140_1.dll
 0001:00120d6c       memcpy                     0000000180121d6c f   vcruntime:VCRUNTIME140.dll
 0001:00120d72       memset                     0000000180121d72 f   vcruntime:VCRUNTIME140.dll
 0001:00120d78       strstr                     0000000180121d78 f   vcruntime:VCRUNTIME140.dll
 0001:00120d7e       __std_type_info_destroy_list 0000000180121d7e f   vcruntime:VCRUNTIME140.dll
 0001:00120d84       __current_exception        0000000180121d84 f   vcruntime:VCRUNTIME140.dll
 0001:00120d8a       __current_exception_context 0000000180121d8a f   vcruntime:VCRUNTIME140.dll
 0001:00120d90       __C_specific_handler       0000000180121d90 f   vcruntime:VCRUNTIME140.dll
 0001:00120d96       tanf                       0000000180121d96 f   ucrt:api-ms-win-crt-math-l1-1-0.dll
 0001:00120d9c       strcmp                     0000000180121d9c f   ucrt:api-ms-win-crt-string-l1-1-0.dll
 0001:00120da2       acosf                      0000000180121da2 f   ucrt:api-ms-win-crt-math-l1-1-0.dll
 0001:00120da8       terminate                  0000000180121da8 f   ucrt:api-ms-win-crt-runtime-l1-1-0.dll
 0001:00120dae       free                       0000000180121dae f   ucrt:api-ms-win-crt-heap-l1-1-0.dll
 0001:00120db4       _initterm                  0000000180121db4 f   ucrt:api-ms-win-crt-runtime-l1-1-0.dll
 0001:00120dba       _initterm_e                0000000180121dba f   ucrt:api-ms-win-crt-runtime-l1-1-0.dll
 0001:00120dc0       _seh_filter_dll            0000000180121dc0 f   ucrt:api-ms-win-crt-runtime-l1-1-0.dll
 0001:00120dc6       _configure_narrow_argv     0000000180121dc6 f   ucrt:api-ms-win-crt-runtime-l1-1-0.dll
 0001:00120dcc       _initialize_narrow_environment 0000000180121dcc f   ucrt:api-ms-win-crt-runtime-l1-1-0.dll
 0001:00120dd2       _initialize_onexit_table   0000000180121dd2 f   ucrt:api-ms-win-crt-runtime-l1-1-0.dll
 0001:00120dd8       _execute_onexit_table      0000000180121dd8 f   ucrt:api-ms-win-crt-runtime-l1-1-0.dll
 0001:00120dde       _cexit                     0000000180121dde f   ucrt:api-ms-win-crt-runtime-l1-1-0.dll
 0001:00120de4       __vcrt_initialize          0000000180121de4 f   MSVCRT:ucrt_stubs.obj
 0001:00120de4       __acrt_thread_detach       0000000180121de4 f   MSVCRT:ucrt_stubs.obj
 0001:00120de4       __vcrt_thread_detach       0000000180121de4 f   MSVCRT:ucrt_stubs.obj
 0001:00120de4       __acrt_uninitialize        0000000180121de4 f   MSVCRT:ucrt_stubs.obj
 0001:00120de4       __acrt_initialize          0000000180121de4 f   MSVCRT:ucrt_stubs.obj
 0001:00120de4       __scrt_stub_for_acrt_uninitialize_critical 0000000180121de4 f   MSVCRT:ucrt_stubs.obj
 0001:00120de4       __scrt_stub_for_acrt_thread_detach 0000000180121de4 f   MSVCRT:ucrt_stubs.obj
 0001:00120de4       __vcrt_uninitialize_critical 0000000180121de4 f   MSVCRT:ucrt_stubs.obj
 0001:00120de4       __scrt_stub_for_acrt_thread_attach 0000000180121de4 f   MSVCRT:ucrt_stubs.obj
 0001:00120de4       __acrt_uninitialize_critical 0000000180121de4 f   MSVCRT:ucrt_stubs.obj
 0001:00120de4       __scrt_stub_for_acrt_initialize 0000000180121de4 f   MSVCRT:ucrt_stubs.obj
 0001:00120de4       __acrt_thread_attach       0000000180121de4 f   MSVCRT:ucrt_stubs.obj
 0001:00120de4       __vcrt_thread_attach       0000000180121de4 f   MSVCRT:ucrt_stubs.obj
 0001:00120de4       __scrt_stub_for_acrt_uninitialize 0000000180121de4 f   MSVCRT:ucrt_stubs.obj
 0001:00120de4       __vcrt_uninitialize        0000000180121de4 f   MSVCRT:ucrt_stubs.obj
 0001:00120de8       _is_c_termination_complete 0000000180121de8 f   MSVCRT:ucrt_stubs.obj
 0001:00120de8       __scrt_stub_for_is_c_termination_complete 0000000180121de8 f   MSVCRT:ucrt_stubs.obj
 0001:00120e00       _guard_dispatch_icall_nop  0000000180121e00 f   MSVCRT:guard_dispatch.obj
 0001:00120e20       _guard_xfg_dispatch_icall_nop 0000000180121e20 f   MSVCRT:guard_xfg_dispatch.obj
 0002:00000000       __imp_FreeLibrary          0000000180123000     kernel32:KERNEL32.dll
 0002:00000008       __imp_GetProcAddress       0000000180123008     kernel32:KERNEL32.dll
 0002:00000010       __imp_LoadLibraryA         0000000180123010     kernel32:KERNEL32.dll
 0002:00000018       __imp_IsDebuggerPresent    0000000180123018     kernel32:KERNEL32.dll
 0002:00000020       __imp_DisableThreadLibraryCalls 0000000180123020     kernel32:KERNEL32.dll
 0002:00000028       __imp_GetSystemTimeAsFileTime 0000000180123028     kernel32:KERNEL32.dll
 0002:00000030       __imp_GetCurrentThreadId   0000000180123030     kernel32:KERNEL32.dll
 0002:00000038       __imp_GetCurrentProcessId  0000000180123038     kernel32:KERNEL32.dll
 0002:00000040       __imp_QueryPerformanceCounter 0000000180123040     kernel32:KERNEL32.dll
 0002:00000048       __imp_IsProcessorFeaturePresent 0000000180123048     kernel32:KERNEL32.dll
 0002:00000050       __imp_TerminateProcess     0000000180123050     kernel32:KERNEL32.dll
 0002:00000058       __imp_GetCurrentProcess    0000000180123058     kernel32:KERNEL32.dll
 0002:00000060       __imp_SetUnhandledExceptionFilter 0000000180123060     kernel32:KERNEL32.dll
 0002:00000068       __imp_UnhandledExceptionFilter 0000000180123068     kernel32:KERNEL32.dll
 0002:00000070       __imp_RtlVirtualUnwind     0000000180123070     kernel32:KERNEL32.dll
 0002:00000078       __imp_RtlLookupFunctionEntry 0000000180123078     kernel32:KERNEL32.dll
 0002:00000080       __imp_RtlCaptureContext    0000000180123080     kernel32:KERNEL32.dll
 0002:00000088       __imp_InitializeSListHead  0000000180123088     kernel32:KERNEL32.dll
 0002:00000090       __imp_LoadLibraryExA       0000000180123090     kernel32:KERNEL32.dll
 0002:00000098       __imp_GetModuleHandleW     0000000180123098     kernel32:KERNEL32.dll
 0002:000000a0       __imp_VirtualQuery         00000001801230a0     kernel32:KERNEL32.dll
 0002:000000a8       __imp_VirtualProtect       00000001801230a8     kernel32:KERNEL32.dll
 0002:000000b0       __imp_GetSystemInfo        00000001801230b0     kernel32:KERNEL32.dll
 0002:000000b8       __imp_GetLastError         00000001801230b8     kernel32:KERNEL32.dll
 0002:000000c0       __imp_RaiseException       00000001801230c0     kernel32:KERNEL32.dll
 0002:000000c8       \177KERNEL32_NULL_THUNK_DATA 00000001801230c8     kernel32:KERNEL32.dll
 0002:000000d0       __imp___std_type_info_name 00000001801230d0     vcruntime:VCRUNTIME140.dll
 0002:000000d8       __imp__purecall            00000001801230d8     vcruntime:VCRUNTIME140.dll
 0002:000000e0       __imp_memcpy               00000001801230e0     vcruntime:VCRUNTIME140.dll
 0002:000000e8       __imp_memset               00000001801230e8     vcruntime:VCRUNTIME140.dll
 0002:000000f0       __imp_strstr               00000001801230f0     vcruntime:VCRUNTIME140.dll
 0002:000000f8       __imp___std_type_info_destroy_list 00000001801230f8     vcruntime:VCRUNTIME140.dll
 0002:00000100       __imp___current_exception  0000000180123100     vcruntime:VCRUNTIME140.dll
 0002:00000108       __imp___current_exception_context 0000000180123108     vcruntime:VCRUNTIME140.dll
 0002:00000110       __imp___C_specific_handler 0000000180123110     vcruntime:VCRUNTIME140.dll
 0002:00000118       __imp___std_terminate      0000000180123118     vcruntime:VCRUNTIME140.dll
 0002:00000120       \177VCRUNTIME140_NULL_THUNK_DATA 0000000180123120     vcruntime:VCRUNTIME140.dll
 0002:00000128       __imp___CxxFrameHandler4   0000000180123128     vcruntime:VCRUNTIME140_1.dll
 0002:00000130       \177VCRUNTIME140_1_NULL_THUNK_DATA 0000000180123130     vcruntime:VCRUNTIME140_1.dll
 0002:00000138       __imp_free                 0000000180123138     ucrt:api-ms-win-crt-heap-l1-1-0.dll
 0002:00000140       \177api-ms-win-crt-heap-l1-1-0_NULL_THUNK_DATA 0000000180123140     ucrt:api-ms-win-crt-heap-l1-1-0.dll
 0002:00000148       __imp_acosf                0000000180123148     ucrt:api-ms-win-crt-math-l1-1-0.dll
 0002:00000150       __imp__fpclass             0000000180123150     ucrt:api-ms-win-crt-math-l1-1-0.dll
 0002:00000158       __imp_tanf                 0000000180123158     ucrt:api-ms-win-crt-math-l1-1-0.dll
 0002:00000160       \177api-ms-win-crt-math-l1-1-0_NULL_THUNK_DATA 0000000180123160     ucrt:api-ms-win-crt-math-l1-1-0.dll
 0002:00000168       __imp_terminate            0000000180123168     ucrt:api-ms-win-crt-runtime-l1-1-0.dll
 0002:00000170       __imp__cexit               0000000180123170     ucrt:api-ms-win-crt-runtime-l1-1-0.dll
 0002:00000178       __imp__execute_onexit_table 0000000180123178     ucrt:api-ms-win-crt-runtime-l1-1-0.dll
 0002:00000180       __imp__initterm            0000000180123180     ucrt:api-ms-win-crt-runtime-l1-1-0.dll
 0002:00000188       __imp__initialize_onexit_table 0000000180123188     ucrt:api-ms-win-crt-runtime-l1-1-0.dll
 0002:00000190       __imp__initialize_narrow_environment 0000000180123190     ucrt:api-ms-win-crt-runtime-l1-1-0.dll
 0002:00000198       __imp__configure_narrow_argv 0000000180123198     ucrt:api-ms-win-crt-runtime-l1-1-0.dll
 0002:000001a0       __imp__seh_filter_dll      00000001801231a0     ucrt:api-ms-win-crt-runtime-l1-1-0.dll
 0002:000001a8       __imp__initterm_e          00000001801231a8     ucrt:api-ms-win-crt-runtime-l1-1-0.dll
 0002:000001b0       \177api-ms-win-crt-runtime-l1-1-0_NULL_THUNK_DATA 00000001801231b0     ucrt:api-ms-win-crt-runtime-l1-1-0.dll
 0002:000001b8       __imp_strcmp               00000001801231b8     ucrt:api-ms-win-crt-string-l1-1-0.dll
 0002:000001c0       \177api-ms-win-crt-string-l1-1-0_NULL_THUNK_DATA 00000001801231c0     ucrt:api-ms-win-crt-string-l1-1-0.dll
 0002:000001c8       __guard_check_icall_fptr   00000001801231c8     MSVCRT:guard_support.obj
 0002:000001d0       __guard_xfg_check_icall_fptr 00000001801231d0     MSVCRT:guard_support.obj
 0002:000001d8       __guard_dispatch_icall_fptr 00000001801231d8     MSVCRT:guard_support.obj
 0002:000001e0       __guard_xfg_dispatch_icall_fptr 00000001801231e0     MSVCRT:guard_support.obj
 0002:000001e8       __guard_xfg_table_dispatch_icall_fptr 00000001801231e8     MSVCRT:guard_support.obj
 0002:000001f0       __castguard_check_failure_os_handled_fptr 00000001801231f0     MSVCRT:guard_support.obj
 0002:000001f8       __guard_memcpy_fptr        00000001801231f8     vcruntime:softmemtag.obj
 0002:00000200       __xc_a                     0000000180123200     MSVCRT:initializers.obj
 0002:00001630       __xc_z                     0000000180124630     MSVCRT:initializers.obj
 0002:00001638       __xi_a                     0000000180124638     MSVCRT:initializers.obj
 0002:00001640       __xi_z                     0000000180124640     MSVCRT:initializers.obj
 0002:00001648       __xp_a                     0000000180124648     MSVCRT:initializers.obj
 0002:00001650       __xp_z                     0000000180124650     MSVCRT:initializers.obj
 0002:00001658       __xt_a                     0000000180124658     MSVCRT:initializers.obj
 0002:00001660       __xt_z                     0000000180124660     MSVCRT:initializers.obj
 0002:00001678       ??_7PxCollection@physx@@6B@ 0000000180124678     CmCollection.obj
 0002:000016f8       ??_C@_0BA@DLCJDKDM@NonTrackedAlloc@ 00000001801246f8     CmCollection.obj
 0002:00001710       ??_7Collection@Cm@physx@@6B@ 0000000180124710     CmCollection.obj
 0002:00001790       ??_C@_0GE@GBACBMOC@PxCollection?3?3add?5called?5for?5an@ 0000000180124790     CmCollection.obj
 0002:00001800       ??_C@_0GO@LGBEGJMP@C?3?2C?$CL?$CL?2GitHub?2vcpkg?2buildtrees?2@ 0000000180124800     CmCollection.obj
 0002:00001870       ??_C@_0EM@OMMGDOMK@PxCollection?3?3add?5called?5with?5a@ 0000000180124870     CmCollection.obj
 0002:000018c0       ??_C@_0HH@IHGOKCBP@C?3?2C?$CL?$CL?2GitHub?2vcpkg?2buildtrees?2@ 00000001801248c0     CmCollection.obj
 0002:00001938       ??_C@_0BM@OIFKLHDN@?$DMallocation?5names?5disabled?$DO@ 0000000180124938     CmCollection.obj
 0002:00001958       ??_C@_08MDGMHCHN@PtrTable@ 0000000180124958     CmPtrTable.obj
 0002:00001964       ??_C@_04GKJNKENE@void@     0000000180124964     CmPtrTable.obj
 0002:00001970       ??_C@_07DFEBJDHE@mSingle@  0000000180124970     CmPtrTable.obj
 0002:00001978       ??_C@_05NLHHBMOH@PxU16@    0000000180124978     CmPtrTable.obj
 0002:00001980       ??_C@_06EPKHJPIM@mCount@   0000000180124980     CmPtrTable.obj
 0002:00001988       ??_C@_04DDKJGDCM@bool@     0000000180124988     CmPtrTable.obj
 0002:00001990       ??_C@_0M@DAGELID@mOwnsMemory@ 0000000180124990     CmPtrTable.obj
 0002:000019a0       ??_C@_0M@MMPOMMLP@mBufferUsed@ 00000001801249a0     CmPtrTable.obj
 0002:000019b8       ??_7RadixSort@Cm@physx@@6B@ 00000001801249b8     CmRadixSort.obj
 0002:000019c0       __xmm@00000001000000010000000100000001 00000001801249c0     CmRadixSort.obj
 0002:000019d0       __xmm@00000003000000020000000100000000 00000001801249d0     CmRadixSort.obj
 0002:000019e8       ??_7RadixSortBuffered@Cm@physx@@6B@ 00000001801249e8     CmRadixSortBuffered.obj
 0002:000019f0       ??_C@_0HF@MMCDMNLI@C?3?2C?$CL?$CL?2GitHub?2vcpkg?2buildtrees?2@ 00000001801249f0     CmRadixSortBuffered.obj
 0002:00001a68       ?sBufferSize@DebugText@Cm@physx@@2HB 0000000180124a68     CmRenderOutput.obj
 0002:00001a70       ??_C@_0GP@HFLMPNJG@C?3?2C?$CL?$CL?2GitHub?2vcpkg?2buildtrees?2@ 0000000180124a70     CmRenderOutput.obj
 0002:00001ae0       __real@3e19999a            0000000180124ae0     CmRenderOutput.obj
 0002:00001ae4       __real@3e800000            0000000180124ae4     CmRenderOutput.obj
 0002:00001ae8       __real@3f3504f3            0000000180124ae8     CmRenderOutput.obj
 0002:00001aec       __real@3f800000            0000000180124aec     CmRenderOutput.obj
 0002:00001af0       __real@3fddb3d7            0000000180124af0     CmRenderOutput.obj
 0002:00001af4       __real@40c90fdb            0000000180124af4     CmRenderOutput.obj
 0002:00001b00       __xmm@7fffffff7fffffff7fffffff7fffffff 0000000180124b00     CmRenderOutput.obj
 0002:00001b10       __xmm@80000000800000008000000080000000 0000000180124b10     CmRenderOutput.obj
 0002:00001b20       __real@3d4ccccd            0000000180124b20     CmVisualization.obj
 0002:00001b24       __real@3e490fdb            0000000180124b24     CmVisualization.obj
 0002:00001b28       __real@3e99999a            0000000180124b28     CmVisualization.obj
 0002:00001b2c       __real@3f000000            0000000180124b2c     CmVisualization.obj
 0002:00001b30       __real@3fc00000            0000000180124b30     CmVisualization.obj
 0002:00001b34       __real@c0000000            0000000180124b34     CmVisualization.obj
 0002:00001b40       __xmm@3f800000000000000000000000000000 0000000180124b40     CmVisualization.obj
 0002:00001b50       ??_C@_0BB@CPDDPFKD@GetUpdatedModule@ 0000000180124b50     CmWindowsModuleUpdateLoader.obj
 0002:00001b68       ??_C@_0BA@EGLNOO@PhysXFoundation@ 0000000180124b68     CmWindowsDelayLoadHook.obj
 0002:00001b78       ??_C@_0M@ILKNCJKN@PhysXCommon@ 0000000180124b78     CmWindowsDelayLoadHook.obj
 0002:00001bb0       ??_C@_06EJKDJEDO@PxBase@   0000000180124bb0     GuBounds.obj
 0002:00001bb8       ??_C@_0N@CDGINLLF@PxConvexMesh@ 0000000180124bb8     GuBounds.obj
 0002:00001bc8       ??_C@_0O@PBAKPCEC@PxHeightField@ 0000000180124bc8     GuBounds.obj
 0002:00001be0       ??_7PxBase@physx@@6B@      0000000180124be0     GuBounds.obj
 0002:00001c08       ??_C@_0DG@DFOCGHP@Gu?3?3GeometryUnion?3?3computeBound@ 0000000180124c08     GuBounds.obj
 0002:00001c40       ??_C@_0GN@HBNPOGA@C?3?2C?$CL?$CL?2GitHub?2vcpkg?2buildtrees?2@ 0000000180124c40     GuBounds.obj
 0002:00001cb0       __real@358637bd            0000000180124cb0     GuBounds.obj
 0002:00001cb4       __real@3f400000            0000000180124cb4     GuBounds.obj
 0002:00001cb8       __real@3f7fffef            0000000180124cb8     GuBounds.obj
 0002:00001cbc       __real@3f8147ae            0000000180124cbc     GuBounds.obj
 0002:00001cc0       __real@7e7fffff            0000000180124cc0     GuBounds.obj
 0002:00001cc4       __real@7f7fffff            0000000180124cc4     GuBounds.obj
 0002:00001cc8       __real@fe7fffff            0000000180124cc8     GuBounds.obj
 0002:00001cd0       __xmm@000000003a83126f3a83126f3a83126f 0000000180124cd0     GuBounds.obj
 0002:00001ce0       __xmm@00000000ba83126fba83126fba83126f 0000000180124ce0     GuBounds.obj
 0002:00001cf0       __xmm@3a83126f3a83126f3a83126f3a83126f 0000000180124cf0     GuBounds.obj
 0002:00001d00       __xmm@3f0000003f0000003f0000003f000000 0000000180124d00     GuBounds.obj
 0002:00001d10       __xmm@3f8147ae3f8147ae3f8147ae3f8147ae 0000000180124d10     GuBounds.obj
 0002:00001d20       __xmm@ba83126fba83126fba83126fba83126f 0000000180124d20     GuBounds.obj
 0002:00001d50       __real@3f7ff972            0000000180124d50     GuBox.obj
 0002:00001d88       ??_7?$EntityReport@I@Gu@physx@@6B@ 0000000180124d88     GuCCTSweepTests.obj
 0002:00001db0       __real@3b03126f            0000000180124db0     GuCCTSweepTests.obj
 0002:00001db4       __real@40000000            0000000180124db4     GuCCTSweepTests.obj
 0002:00001de0       __real@38d1b717            0000000180124de0     GuGeometryQuery.obj
 0002:00001de4       __real@49742400            0000000180124de4     GuGeometryQuery.obj
 0002:00001de8       __real@bf800000            0000000180124de8     GuGeometryQuery.obj
 0002:00001e10       ??_C@_0HC@GOJFFCBL@C?3?2C?$CL?$CL?2GitHub?2vcpkg?2buildtrees?2@ 0000000180124e10     GuGeometryUnion.obj
 0002:00001ed8       ??_7GuMeshFactory@physx@@6B@ 0000000180124ed8     GuMeshFactory.obj
 0002:00001ee8       ??_7MeshDataBase@Gu@physx@@6B@ 0000000180124ee8     GuMeshFactory.obj
 0002:00001ef0       ??_C@_0HC@GINABNLB@C?3?2C?$CL?$CL?2GitHub?2vcpkg?2buildtrees?2@ 0000000180124ef0     GuMeshFactory.obj
 0002:00001f70       ??_7TriangleMeshData@Gu@physx@@6B@ 0000000180124f70     GuMeshFactory.obj
 0002:00001f80       ??_7RTreeTriangleData@Gu@physx@@6B@ 0000000180124f80     GuMeshFactory.obj
 0002:00001f90       ??_7BV4TriangleData@Gu@physx@@6B@ 0000000180124f90     GuMeshFactory.obj
 0002:00001fa0       ??_C@_0HC@IGAGBDDG@C?3?2C?$CL?$CL?2GitHub?2vcpkg?2buildtrees?2@ 0000000180124fa0     GuMeshFactory.obj
 0002:00002020       ??_C@_0GP@NHELMDAL@Loading?5triangle?5mesh?5failed?3?5D@ 0000000180125020     GuMeshFactory.obj
 0002:00002090       ??_C@_0BP@CDOKDACA@RTree?5binary?5image?5load?5error?4@ 0000000180125090     GuMeshFactory.obj
 0002:000020b0       ??_C@_0BN@MJPNIELF@BV4?5binary?5image?5load?5error?4@ 00000001801250b0     GuMeshFactory.obj
 0002:000020d0       ??_C@_0BO@JDPABAOF@BV32?5binary?5image?5load?5error?4@ 00000001801250d0     GuMeshFactory.obj
 0002:000020f0       ??_C@_0GP@HMNBPEOP@C?3?2C?$CL?$CL?2GitHub?2vcpkg?2buildtrees?2@ 00000001801250f0     GuMeshFactory.obj
 0002:00002180       ??_C@_0P@GGNFNHKF@PxTriangleMesh@ 0000000180125180     GuMetaData.obj
 0002:00002190       ??_C@_07GFCEJNGM@Valency@  0000000180125190     GuMetaData.obj
 0002:00002198       ??_C@_07NHGKEEIN@mOffset@  0000000180125198     GuMetaData.obj
 0002:000021a0       ??_C@_0BB@BAGHBMNJ@BigConvexRawData@ 00000001801251a0     GuMetaData.obj
 0002:000021b8       ??_C@_07PBDEJAAC@mSubdiv@  00000001801251b8     GuMetaData.obj
 0002:000021c0       ??_C@_0L@HNPACPGH@mNbSamples@ 00000001801251c0     GuMetaData.obj
 0002:000021cc       ??_C@_04NCKNBPPK@PxU8@     00000001801251cc     GuMetaData.obj
 0002:000021d8       ??_C@_08DEPEKJNI@mSamples@ 00000001801251d8     GuMetaData.obj
 0002:000021e4       ??_C@_05LMJPANIN@PxU32@    00000001801251e4     GuMetaData.obj
 0002:000021f0       ??_C@_08IJDNJBMI@mNbVerts@ 00000001801251f0     GuMetaData.obj
 0002:00002200       ??_C@_0M@MMKMIJAF@mNbAdjVerts@ 0000000180125200     GuMetaData.obj
 0002:00002210       ??_C@_0L@EOKMNILC@mValencies@ 0000000180125210     GuMetaData.obj
 0002:00002220       ??_C@_0P@DLGEAMHJ@mAdjacentVerts@ 0000000180125220     GuMetaData.obj
 0002:00002230       ??_C@_0O@PFOPBKAM@BigConvexData@ 0000000180125230     GuMetaData.obj
 0002:00002240       ??_C@_05PLKALGFN@mData@    0000000180125240     GuMetaData.obj
 0002:00002248       ??_C@_08PEMCLHEM@mVBuffer@ 0000000180125248     GuMetaData.obj
 0002:00002258       ??_C@_09FBMAGD@Alignment@  0000000180125258     GuMetaData.obj
 0002:00002268       ??_C@_0BE@KFHIBEEA@InternalObjectsData@ 0000000180125268     GuMetaData.obj
 0002:0000227c       ??_C@_06GIEBFILM@PxReal@   000000018012527c     GuMetaData.obj
 0002:00002288       ??_C@_07NKGFFIBH@mRadius@  0000000180125288     GuMetaData.obj
 0002:00002290       ??_C@_08EHFCACAE@mExtents@ 0000000180125290     GuMetaData.obj
 0002:000022a0       ??_C@_0BA@LFMGGCBK@HullPolygonData@ 00000001801252a0     GuMetaData.obj
 0002:000022b0       ??_C@_06BOHHGLB@mPlane@    00000001801252b0     GuMetaData.obj
 0002:000022b8       ??_C@_06EHMLHGLN@mVRef8@   00000001801252b8     GuMetaData.obj
 0002:000022c0       ??_C@_09BAHHHINI@mMinIndex@ 00000001801252c0     GuMetaData.obj
 0002:000022d0       ??_C@_0P@GBLBPIPB@ConvexHullData@ 00000001801252d0     GuMetaData.obj
 0002:000022e0       ??_C@_09JDCJAPKD@PxBounds3@ 00000001801252e0     GuMetaData.obj
 0002:000022ec       ??_C@_05NDNHIFA@mAABB@     00000001801252ec     GuMetaData.obj
 0002:000022f4       ??_C@_06KDGGGLIJ@PxVec3@   00000001801252f4     GuMetaData.obj
 0002:00002300       ??_C@_0O@LNOGEMJI@mCenterOfMass@ 0000000180125300     GuMetaData.obj
 0002:00002310       ??_C@_09CNMCBBKH@mPolygons@ 0000000180125310     GuMetaData.obj
 0002:00002320       ??_C@_0BC@KKPDCFJC@mBigConvexRawData@ 0000000180125320     GuMetaData.obj
 0002:00002338       ??_C@_08ELDMKGKH@mNbEdges@ 0000000180125338     GuMetaData.obj
 0002:00002348       ??_C@_0BA@CGLOHBAC@mNbHullVertices@ 0000000180125348     GuMetaData.obj
 0002:00002358       ??_C@_0M@HGFFLLDM@mNbPolygons@ 0000000180125358     GuMetaData.obj
 0002:00002368       ??_C@_09BHJEMDGO@mInternal@ 0000000180125368     GuMetaData.obj
 0002:00002378       ??_C@_0L@GMFHOMKA@ConvexMesh@ 0000000180125378     GuMetaData.obj
 0002:00002388       ??_C@_0N@KECKKFLK@RefCountable@ 0000000180125388     GuMetaData.obj
 0002:00002398       ??_C@_09ILEBDLJH@mHullData@ 0000000180125398     GuMetaData.obj
 0002:000023a4       ??_C@_03DKDIKGNC@mNb@      00000001801253a4     GuMetaData.obj
 0002:000023a8       ??_C@_0P@ENLHFHMD@mBigConvexData@ 00000001801253a8     GuMetaData.obj
 0002:000023b8       ??_C@_05ILALLCHK@mMass@    00000001801253b8     GuMetaData.obj
 0002:000023c0       ??_C@_07DBPDADGB@PxMat33@  00000001801253c0     GuMetaData.obj
 0002:000023c8       ??_C@_08FNBHNDBI@mInertia@ 00000001801253c8     GuMetaData.obj
 0002:000023d8       ??_C@_0O@FCKNKLMJ@GuMeshFactory@ 00000001801253d8     GuMetaData.obj
 0002:000023e8       ??_C@_0N@EGBCLMAK@mMeshFactory@ 00000001801253e8     GuMetaData.obj
 0002:000023f8       ??_C@_0BE@CJJAMAMK@PxHeightFieldSample@ 00000001801253f8     GuMetaData.obj
 0002:0000240c       ??_C@_05MBLIPEMA@PxI16@    000000018012540c     GuMetaData.obj
 0002:00002414       ??_C@_06LNLHEAAG@height@   0000000180125414     GuMetaData.obj
 0002:00002420       ??_C@_0N@HHDGHJN@PxBitAndByte@ 0000000180125420     GuMetaData.obj
 0002:00002430       ??_C@_0P@MBBMLBO@materialIndex0@ 0000000180125430     GuMetaData.obj
 0002:00002440       ??_C@_0P@BFAKPKFP@materialIndex1@ 0000000180125440     GuMetaData.obj
 0002:00002450       ??_C@_0BD@EBLPJEOE@PxHeightFieldFlags@ 0000000180125450     GuMetaData.obj
 0002:00002468       ??_C@_0BK@FNNCFFCN@PxHeightFieldFormat?3?3Enum@ 0000000180125468     GuMetaData.obj
 0002:00002488       ??_C@_0BA@CLNFMAAA@HeightFieldData@ 0000000180125488     GuMetaData.obj
 0002:00002498       ??_C@_04IMCGAIPI@rows@     0000000180125498     GuMetaData.obj
 0002:000024a0       ??_C@_07HIFEPIJN@columns@  00000001801254a0     GuMetaData.obj
 0002:000024a8       ??_C@_08MOAGOABI@rowLimit@ 00000001801254a8     GuMetaData.obj
 0002:000024b8       ??_C@_08BAGEHOBO@colLimit@ 00000001801254b8     GuMetaData.obj
 0002:000024c8       ??_C@_09LKDBLADF@nbColumns@ 00000001801254c8     GuMetaData.obj
 0002:000024d8       ??_C@_07ODIFGGLK@samples@  00000001801254d8     GuMetaData.obj
 0002:000024e0       ??_C@_0BE@POHEGOJG@convexEdgeThreshold@ 00000001801254e0     GuMetaData.obj
 0002:000024f4       ??_C@_05GECEPKB@flags@     00000001801254f4     GuMetaData.obj
 0002:000024fc       ??_C@_06DLEPGFEF@format@   00000001801254fc     GuMetaData.obj
 0002:00002508       ??_C@_0BF@MOGDNMPL@PxMaterialTableIndex@ 0000000180125508     GuMetaData.obj
 0002:00002520       ??_C@_0M@JMJICJJO@HeightField@ 0000000180125520     GuMetaData.obj
 0002:00002530       ??_C@_0O@ENGHMLJP@mSampleStride@ 0000000180125530     GuMetaData.obj
 0002:00002540       ??_C@_0L@EBEEMFFB@mMinHeight@ 0000000180125540     GuMetaData.obj
 0002:00002550       ??_C@_0L@EAEIFPOF@mMaxHeight@ 0000000180125550     GuMetaData.obj
 0002:00002560       ??_C@_0N@FEFJOKKE@mModifyCount@ 0000000180125560     GuMetaData.obj
 0002:00002570       ??_C@_09PHDKHCK@RTreePage@ 0000000180125570     GuMetaData.obj
 0002:0000257c       ??_C@_04LLPOBGED@minx@     000000018012557c     GuMetaData.obj
 0002:00002584       ??_C@_04KCOFCHAC@miny@     0000000180125584     GuMetaData.obj
 0002:0000258c       ??_C@_04IJMIHEMB@minz@     000000018012558c     GuMetaData.obj
 0002:00002594       ??_C@_04GGOBOBGO@maxx@     0000000180125594     GuMetaData.obj
 0002:0000259c       ??_C@_04HPPKNACP@maxy@     000000018012559c     GuMetaData.obj
 0002:000025a4       ??_C@_04FENHIDOM@maxz@     00000001801255a4     GuMetaData.obj
 0002:000025ac       ??_C@_04HHDFEJON@ptrs@     00000001801255ac     GuMetaData.obj
 0002:000025b4       ??_C@_05FFEIGAJF@RTree@    00000001801255b4     GuMetaData.obj
 0002:000025bc       ??_C@_06OMCHPNEO@PxVec4@   00000001801255bc     GuMetaData.obj
 0002:000025c8       ??_C@_0L@NBIFEFLN@mBoundsMin@ 00000001801255c8     GuMetaData.obj
 0002:000025d8       ??_C@_0L@MDAOKBNC@mBoundsMax@ 00000001801255d8     GuMetaData.obj
 0002:000025e8       ??_C@_0N@NJEHLCOF@mInvDiagonal@ 00000001801255e8     GuMetaData.obj
 0002:000025f8       ??_C@_0BA@BEFIGPFG@mDiagonalScaler@ 00000001801255f8     GuMetaData.obj
 0002:00002608       ??_C@_09DICGGKGO@mPageSize@ 0000000180125608     GuMetaData.obj
 0002:00002618       ??_C@_0O@BOFFCNOL@mNumRootPages@ 0000000180125618     GuMetaData.obj
 0002:00002628       ??_C@_0L@JKLGBKAE@mNumLevels@ 0000000180125628     GuMetaData.obj
 0002:00002638       ??_C@_0M@PHDOHJGK@mTotalNodes@ 0000000180125638     GuMetaData.obj
 0002:00002648       ??_C@_0M@GDGHALAO@mTotalPages@ 0000000180125648     GuMetaData.obj
 0002:00002654       ??_C@_06MHCBBJGP@mFlags@   0000000180125654     GuMetaData.obj
 0002:0000265c       ??_C@_06MMNBLHOK@mPages@   000000018012565c     GuMetaData.obj
 0002:00002668       ??_C@_0L@LEOGNOEC@SourceMesh@ 0000000180125668     GuMetaData.obj
 0002:00002674       ??_C@_06JFCLJMNN@mVerts@   0000000180125674     GuMetaData.obj
 0002:00002680       ??_C@_07MPIKOOAP@mNbTris@  0000000180125680     GuMetaData.obj
 0002:00002688       ??_C@_0N@FBMOMEHF@mTriangles32@ 0000000180125688     GuMetaData.obj
 0002:00002698       ??_C@_0N@DGCGNFBP@mTriangles16@ 0000000180125698     GuMetaData.obj
 0002:000026a8       ??_C@_06DHAAKLFK@mRemap@   00000001801256a8     GuMetaData.obj
 0002:000026b0       ??_C@_0O@NLNHFNO@QuantizedAABB@ 00000001801256b0     GuMetaData.obj
 0002:000026c0       ??_C@_0BC@OOGBEMHH@mData?$FL0?$FN?4mExtents@ 00000001801256c0     GuMetaData.obj
 0002:000026d8       ??_C@_0BB@OCEDKIEF@mData?$FL0?$FN?4mCenter@ 00000001801256d8     GuMetaData.obj
 0002:000026f0       ??_C@_0BC@HFMEAABI@mData?$FL1?$FN?4mExtents@ 00000001801256f0     GuMetaData.obj
 0002:00002708       ??_C@_0BB@CDMNHHIF@mData?$FL1?$FN?4mCenter@ 0000000180125708     GuMetaData.obj
 0002:00002720       ??_C@_0BC@CFKNCOI@mData?$FL2?$FN?4mExtents@ 0000000180125720     GuMetaData.obj
 0002:00002738       ??_C@_0BB@LKCPBBIE@mData?$FL2?$FN?4mCenter@ 0000000180125738     GuMetaData.obj
 0002:00002750       ??_C@_0O@MJJKKPFN@BVDataPackedQ@ 0000000180125750     GuMetaData.obj
 0002:00002760       ??_C@_0M@PNCEBOG@LocalBounds@ 0000000180125760     GuMetaData.obj
 0002:00002770       ??_C@_07GNKDIIKJ@mCenter@  0000000180125770     GuMetaData.obj
 0002:00002778       ??_C@_05KNFBNCOH@float@    0000000180125778     GuMetaData.obj
 0002:00002780       ??_C@_0BC@LADJKHPL@mExtentsMagnitude@ 0000000180125780     GuMetaData.obj
 0002:00002798       ??_C@_07HELIOLAF@BV4Tree@  0000000180125798     GuMetaData.obj
 0002:000027a0       ??_C@_0P@EMMDNPMH@mMeshInterface@ 00000001801257a0     GuMetaData.obj
 0002:000027b0       ??_C@_0N@DCKMHLCL@mLocalBounds@ 00000001801257b0     GuMetaData.obj
 0002:000027c0       ??_C@_08EEJOMIJL@mNbNodes@ 00000001801257c0     GuMetaData.obj
 0002:000027d0       ??_C@_09FGKNPI@mInitData@  00000001801257d0     GuMetaData.obj
 0002:000027e0       ??_C@_0BC@CLDEHKCO@mCenterOrMinCoeff@ 00000001801257e0     GuMetaData.obj
 0002:000027f8       ??_C@_0BD@LAOLBNJ@mExtentsOrMaxCoeff@ 00000001801257f8     GuMetaData.obj
 0002:00002810       ??_C@_0P@JEECKKBL@mUserAllocated@ 0000000180125810     GuMetaData.obj
 0002:00002820       ??_C@_0L@GLIMNECG@mQuantized@ 0000000180125820     GuMetaData.obj
 0002:00002830       ??_C@_08BNDBAGDH@mPadding@ 0000000180125830     GuMetaData.obj
 0002:00002840       ??_C@_0N@OJNNNLIB@TriangleMesh@ 0000000180125840     GuMetaData.obj
 0002:00002850       ??_C@_0M@OGEDMEAL@mNbVertices@ 0000000180125850     GuMetaData.obj
 0002:00002860       ??_C@_0N@MGGDNHNI@mNbTriangles@ 0000000180125860     GuMetaData.obj
 0002:00002870       ??_C@_09LNNEGOJA@mVertices@ 0000000180125870     GuMetaData.obj
 0002:00002880       ??_C@_0L@KBOFAKLO@mTriangles@ 0000000180125880     GuMetaData.obj
 0002:00002890       ??_C@_0P@MHDFIHLD@mExtraTrigData@ 0000000180125890     GuMetaData.obj
 0002:000028a0       ??_C@_0N@MGIKKCI@mGeomEpsilon@ 00000001801258a0     GuMetaData.obj
 0002:000028b0       ??_C@_0BB@IFLOOCNA@mMaterialIndices@ 00000001801258b0     GuMetaData.obj
 0002:000028c8       ??_C@_0L@OPJMBFMI@mFaceRemap@ 00000001801258c8     GuMetaData.obj
 0002:000028d8       ??_C@_0N@BIOECAPM@mAdjacencies@ 00000001801258d8     GuMetaData.obj
 0002:000028e8       ??_C@_0BA@OCOIGPII@mGRB_triIndices@ 00000001801258e8     GuMetaData.obj
 0002:000028f8       ??_C@_0BE@JPINNDAH@mGRB_triAdjacencies@ 00000001801258f8     GuMetaData.obj
 0002:00002910       ??_C@_0P@EDFJJHEF@mGRB_faceRemap@ 0000000180125910     GuMetaData.obj
 0002:00002920       ??_C@_0O@CKMBAIFN@mGRB_BV32Tree@ 0000000180125920     GuMetaData.obj
 0002:00002930       ??_C@_0BC@IFGECKF@RTreeTriangleMesh@ 0000000180125930     GuMetaData.obj
 0002:00002944       ??_C@_06JDIHDDGN@mRTree@   0000000180125944     GuMetaData.obj
 0002:00002950       ??_C@_0BA@LNNFPOKA@BV4TriangleMesh@ 0000000180125950     GuMetaData.obj
 0002:00002960       ??_C@_08FKLPEGDB@mBV4Tree@ 0000000180125960     GuMetaData.obj
 0002:00002970       ??_C@_0BG@EAPGHGEI@MaterialIndicesStruct@ 0000000180125970     GuMetaData.obj
 0002:00002988       ??_C@_07OKCKIPNN@indices@  0000000180125988     GuMetaData.obj
 0002:00002990       ??_C@_0L@KCBHBGBP@numIndices@ 0000000180125990     GuMetaData.obj
 0002:0000299c       ??_C@_03PNAAIPML@pad@      000000018012599c     GuMetaData.obj
 0002:000029a0       ??_C@_05MOMFAHOB@pad64@    00000001801259a0     GuMetaData.obj
 0002:000029a8       ??_C@_0BK@GNJGHDGO@PxConvexMeshGeometryFlags@ 00000001801259a8     GuMetaData.obj
 0002:000029c8       ??_C@_0BJ@LIOOOKID@ShadowConvexMeshGeometry@ 00000001801259c8     GuMetaData.obj
 0002:000029e8       ??_C@_0BF@PJFPGDNP@PxGeometryType?3?3Enum@ 00000001801259e8     GuMetaData.obj
 0002:00002a00       ??_C@_05GNIIDDHH@mType@    0000000180125a00     GuMetaData.obj
 0002:00002a08       ??_C@_0M@JFNDEGCE@PxMeshScale@ 0000000180125a08     GuMetaData.obj
 0002:00002a14       ??_C@_05MHMEBBGO@scale@    0000000180125a14     GuMetaData.obj
 0002:00002a20       ??_C@_0L@OKMLGDHH@convexMesh@ 0000000180125a20     GuMetaData.obj
 0002:00002a30       ??_C@_09PLMNFMJI@meshFlags@ 0000000180125a30     GuMetaData.obj
 0002:00002a40       ??_C@_0BB@EINMAHMD@paddingFromFlags@ 0000000180125a40     GuMetaData.obj
 0002:00002a58       ??_C@_08CICKEKCM@hullData@ 0000000180125a58     GuMetaData.obj
 0002:00002a68       ??_C@_0O@EOELHBFF@gpuCompatible@ 0000000180125a68     GuMetaData.obj
 0002:00002a78       ??_C@_0BE@FFPGAPHN@PxMeshGeometryFlags@ 0000000180125a78     GuMetaData.obj
 0002:00002a90       ??_C@_0BL@KABFLNEB@ShadowTriangleMeshGeometry@ 0000000180125a90     GuMetaData.obj
 0002:00002ab0       ??_C@_0N@FKKDJAHE@triangleMesh@ 0000000180125ab0     GuMetaData.obj
 0002:00002ac0       ??_C@_08BEABJAHJ@meshData@ 0000000180125ac0     GuMetaData.obj
 0002:00002ad0       ??_C@_0BA@NGIONHFJ@materialIndices@ 0000000180125ad0     GuMetaData.obj
 0002:00002ae0       ??_C@_09JGGNEAGH@materials@ 0000000180125ae0     GuMetaData.obj
 0002:00002af0       ??_C@_0BK@OIFEOHNJ@ShadowHeightFieldGeometry@ 0000000180125af0     GuMetaData.obj
 0002:00002b10       ??_C@_0M@IEKJPCGG@heightField@ 0000000180125b10     GuMetaData.obj
 0002:00002b20       ??_C@_0M@LHLNPPJ@heightScale@ 0000000180125b20     GuMetaData.obj
 0002:00002b30       ??_C@_08GJPCBGLE@rowScale@ 0000000180125b30     GuMetaData.obj
 0002:00002b40       ??_C@_0M@HHBHEPCE@columnScale@ 0000000180125b40     GuMetaData.obj
 0002:00002b50       ??_C@_0BB@PMIIHDKK@heightFieldFlags@ 0000000180125b50     GuMetaData.obj
 0002:00002b68       ??_C@_0BA@DMOKLLHN@heightFieldData@ 0000000180125b68     GuMetaData.obj
 0002:00002b78       ??_C@_0BE@IKADPPC@ShadowPlaneGeometry@ 0000000180125b78     GuMetaData.obj
 0002:00002b90       ??_C@_0BF@PIKLLBGN@ShadowSphereGeometry@ 0000000180125b90     GuMetaData.obj
 0002:00002ba8       ??_C@_06KGHINEPG@radius@   0000000180125ba8     GuMetaData.obj
 0002:00002bb0       ??_C@_0BG@OBHJHKMO@ShadowCapsuleGeometry@ 0000000180125bb0     GuMetaData.obj
 0002:00002bc8       ??_C@_0L@PMAANELH@halfHeight@ 0000000180125bc8     GuMetaData.obj
 0002:00002bd8       ??_C@_0BC@DMJNHLLO@ShadowBoxGeometry@ 0000000180125bd8     GuMetaData.obj
 0002:00002bf0       ??_C@_0M@CMAEPJOI@halfExtents@ 0000000180125bf0     GuMetaData.obj
 0002:00002c00       ??_C@_0BH@PKALDLFA@PxConvexMeshGeometryLL@ 0000000180125c00     GuMetaData.obj
 0002:00002c18       ??_C@_0BJ@GAFBNAAE@PxTriangleMeshGeometryLL@ 0000000180125c18     GuMetaData.obj
 0002:00002c38       ??_C@_0BI@IIFLCNOC@PxHeightFieldGeometryLL@ 0000000180125c38     GuMetaData.obj
 0002:00002c50       ??_C@_0BA@NAHKMBFO@PxPlaneGeometry@ 0000000180125c50     GuMetaData.obj
 0002:00002c60       ??_C@_0BB@CHBDIEFA@PxSphereGeometry@ 0000000180125c60     GuMetaData.obj
 0002:00002c78       ??_C@_0BC@LJMOIOOK@PxCapsuleGeometry@ 0000000180125c78     GuMetaData.obj
 0002:00002c90       ??_C@_0O@OEDJDNFP@PxBoxGeometry@ 0000000180125c90     GuMetaData.obj
 0002:00002ca0       ??_C@_0BC@ICOOCLFG@Gu?3?3GeometryUnion@ 0000000180125ca0     GuMetaData.obj
 0002:00002cc0       ??_7?$SupportLocalImpl@VBoxV@Gu@physx@@@Gu@physx@@6B@ 0000000180125cc0     GuMTD.obj
 0002:00002ce8       ??_7SupportLocal@Gu@physx@@6B@ 0000000180125ce8     GuMTD.obj
 0002:00002d38       ??_7?$SupportLocalImpl@VConvexHullV@Gu@physx@@@Gu@physx@@6B@ 0000000180125d38     GuMTD.obj
 0002:00002d60       ??_7?$SupportLocalImpl@VConvexHullNoScaleV@Gu@physx@@@Gu@physx@@6B@ 0000000180125d60     GuMTD.obj
 0002:00002d80       ?absMask@?1??FAbs@aos@shdfnd@physx@@YA?AT__m128@@T5@@Z@4QBIB 0000000180125d80     GuMTD.obj
 0002:00002d98       ??_7GjkConvexBase@Gu@physx@@6B@ 0000000180125d98     GuMTD.obj
 0002:00002dd0       ??_7?$LocalConvex@VCapsuleV@Gu@physx@@@Gu@physx@@6B@ 0000000180125dd0     GuMTD.obj
 0002:00002e08       ??_7?$LocalConvex@VConvexHullV@Gu@physx@@@Gu@physx@@6B@ 0000000180125e08     GuMTD.obj
 0002:00002e38       __real@2edbe6ff            0000000180125e38     GuMTD.obj
 0002:00002e3c       __real@3ccccccd            0000000180125e3c     GuMTD.obj
 0002:00002e40       __real@3dcccccd            0000000180125e40     GuMTD.obj
 0002:00002e44       __real@ff7fffff            0000000180125e44     GuMTD.obj
 0002:00002e50       __xmm@0000000000000000000000003f800000 0000000180125e50     GuMTD.obj
 0002:00002e60       __xmm@00000000000000003f80000000000000 0000000180125e60     GuMTD.obj
 0002:00002e70       __xmm@000000003f8000000000000000000000 0000000180125e70     GuMTD.obj
 0002:00002e80       __xmm@000000003f8000003f8000003f800000 0000000180125e80     GuMTD.obj
 0002:00002e90       __xmm@00000000ffffffffffffffffffffffff 0000000180125e90     GuMTD.obj
 0002:00002ea0       __xmm@34000000340000003400000034000000 0000000180125ea0     GuMTD.obj
 0002:00002eb0       __xmm@358637bd358637bd358637bd358637bd 0000000180125eb0     GuMTD.obj
 0002:00002ec0       __xmm@3dcccccd3dcccccd3dcccccd3dcccccd 0000000180125ec0     GuMTD.obj
 0002:00002ed0       __xmm@3e4ccccd3e4ccccd3e4ccccd3e4ccccd 0000000180125ed0     GuMTD.obj
 0002:00002ee0       __xmm@3f7ff1413f7ff1413f7ff1413f7ff141 0000000180125ee0     GuMTD.obj
 0002:00002ef0       __xmm@3f7ff2e53f7ff2e53f7ff2e53f7ff2e5 0000000180125ef0     GuMTD.obj
 0002:00002f00       __xmm@3f8000003f8000003f8000003f800000 0000000180125f00     GuMTD.obj
 0002:00002f10       __xmm@7f7fffff7f7fffff7f7fffff7f7fffff 0000000180125f10     GuMTD.obj
 0002:00002f20       __xmm@bf000000bf000000bf000000bf000000 0000000180125f20     GuMTD.obj
 0002:00002f58       ??_7?$RelativeConvex@VBoxV@Gu@physx@@@Gu@physx@@6B@ 0000000180125f58     GuOverlapTests.obj
 0002:00002f90       ??_7?$RelativeConvex@VConvexHullV@Gu@physx@@@Gu@physx@@6B@ 0000000180125f90     GuOverlapTests.obj
 0002:00002fc0       ??_C@_0EC@MLIJOGHA@Height?5Field?5Overlap?5test?5calle@ 0000000180125fc0     GuOverlapTests.obj
 0002:00003010       ??_C@_0HD@LCCJEFDE@C?3?2C?$CL?$CL?2GitHub?2vcpkg?2buildtrees?2@ 0000000180126010     GuOverlapTests.obj
 0002:00003090       ??_C@_0EC@GJLDADPE@Height?5Field?5Raycast?5test?5calle@ 0000000180126090     GuRaycastTests.obj
 0002:000030e0       ??_C@_0HD@EBOEDCJO@C?3?2C?$CL?$CL?2GitHub?2vcpkg?2buildtrees?2@ 00000001801260e0     GuRaycastTests.obj
 0002:00003190       __real@1e3ce508            0000000180126190     GuRaycastTests.obj
 0002:00003194       __real@28800000            0000000180126194     GuRaycastTests.obj
 0002:00003198       __real@33d6bf95            0000000180126198     GuRaycastTests.obj
 0002:0000319c       __real@3727c5ac            000000018012619c     GuRaycastTests.obj
 0002:000031a0       __real@3f0147ae            00000001801261a0     GuRaycastTests.obj
 0002:000031a4       __real@3f7ffffe            00000001801261a4     GuRaycastTests.obj
 0002:000031a8       __real@3f800347            00000001801261a8     GuRaycastTests.obj
 0002:000031ac       __real@41200000            00000001801261ac     GuRaycastTests.obj
 0002:000031b0       __real@80000000            00000001801261b0     GuRaycastTests.obj
 0002:000031b4       __real@b3d6bf95            00000001801261b4     GuRaycastTests.obj
 0002:000031b8       __real@b8d1b717            00000001801261b8     GuRaycastTests.obj
 0002:000031bc       __real@c1200000            00000001801261bc     GuRaycastTests.obj
 0002:000031f8       ??_7?$MeshHitCallback@UPxRaycastHit@physx@@@Gu@physx@@6B@ 00000001801261f8     GuSweepMTD.obj
 0002:00003210       ??_7MeshMTDGenerationCallback@@6B@ 0000000180126210     GuSweepMTD.obj
 0002:00003228       ??_7MidPhaseQueryLocalReport@@6B@ 0000000180126228     GuSweepMTD.obj
 0002:00003238       __real@3f933333            0000000180126238     GuSweepMTD.obj
 0002:00003240       __xmm@00000000000000003f8000003f800000 0000000180126240     GuSweepMTD.obj
 0002:00003250       __xmm@3e19999a3e19999a3e19999a3e19999a 0000000180126250     GuSweepMTD.obj
 0002:00003260       __xmm@3e8000003e8000003e8000003e800000 0000000180126260     GuSweepMTD.obj
 0002:00003290       __real@3c23d70a            0000000180126290     GuSweepSharedTests.obj
 0002:00003294       __real@42c80000            0000000180126294     GuSweepSharedTests.obj
 0002:000032a0       __xmm@ffffffffffffffffffffffffffffffff 00000001801262a0     GuSweepSharedTests.obj
 0002:000032d0       ??_C@_0EA@GNDJNJGB@Height?5Field?5Sweep?5test?5called?5@ 00000001801262d0     GuSweepTests.obj
 0002:00003310       ??_C@_0HB@EFDGLJMN@C?3?2C?$CL?$CL?2GitHub?2vcpkg?2buildtrees?2@ 0000000180126310     GuSweepTests.obj
 0002:00003390       ??_7?$LocalConvex@VBoxV@Gu@physx@@@Gu@physx@@6B@ 0000000180126390     GuSweepTests.obj
 0002:000033c8       ??_7?$LocalConvex@VTriangleV@Gu@physx@@@Gu@physx@@6B@ 00000001801263c8     GuSweepTests.obj
 0002:00003400       __xmm@00000002000000020000000200000002 0000000180126400     GuSweepTests.obj
 0002:00003410       __xmm@3eaaaa9f3eaaaa9f3eaaaa9f3eaaaa9f 0000000180126410     GuSweepTests.obj
 0002:00003440       ??_C@_0HE@CALHDJEB@C?3?2C?$CL?$CL?2GitHub?2vcpkg?2buildtrees?2@ 0000000180126440     GuAABBTreeBuild.obj
 0002:000034e8       ??_7PxBVHStructure@physx@@6B@ 00000001801264e8     GuBVHStructure.obj
 0002:00003538       ??_C@_0P@CDPKBIIF@PxBVHStructure@ 0000000180126538     GuBVHStructure.obj
 0002:00003550       ??_7RefCountable@Cm@physx@@6B@ 0000000180126550     GuBVHStructure.obj
 0002:00003568       ??_7BVHStructure@Gu@physx@@6BPxBVHStructure@2@@ 0000000180126568     GuBVHStructure.obj
 0002:000035c0       ??_7BVHStructure@Gu@physx@@6BRefCountable@Cm@2@@ 00000001801265c0     GuBVHStructure.obj
 0002:000035d0       ??_C@_0HD@DGHJLMNG@C?3?2C?$CL?$CL?2GitHub?2vcpkg?2buildtrees?2@ 00000001801265d0     GuBVHStructure.obj
 0002:00003648       ??_C@_0DF@GMOKOMPK@Gu?3?3BVHStructure?3?3release?3?5doub@ 0000000180126648     GuBVHStructure.obj
 0002:000036f8       __real@00000000            00000001801266f8     GuCCDSweepConvexMesh.obj
 0002:000036fc       __real@3c343958            00000001801266fc     GuCCDSweepConvexMesh.obj
 0002:00003700       __real@3ca3d70a            0000000180126700     GuCCDSweepConvexMesh.obj
 0002:00003704       __real@3f0ccccd            0000000180126704     GuCCDSweepConvexMesh.obj
 0002:00003708       __real@3f8ccccd            0000000180126708     GuCCDSweepConvexMesh.obj
 0002:0000370c       __real@b58637bd            000000018012670c     GuCCDSweepConvexMesh.obj
 0002:00003710       __xmm@000000000000000000000000fe7fffff 0000000180126710     GuCCDSweepConvexMesh.obj
 0002:00003720       __xmm@fe7ffffffe7fffff7e7fffff7e7fffff 0000000180126720     GuCCDSweepConvexMesh.obj
 0002:00003758       ??_7?$RelativeConvex@VCapsuleV@Gu@physx@@@Gu@physx@@6B@ 0000000180126758     GuCCDSweepPrimitives.obj
 0002:00003790       ??_7?$RelativeConvex@VTriangleV@Gu@physx@@@Gu@physx@@6B@ 0000000180126790     GuCCDSweepPrimitives.obj
 0002:000037c0       __real@3ba3d70a            00000001801267c0     GuCCDSweepPrimitives.obj
 0002:000037c4       __real@501502f9            00000001801267c4     GuCCDSweepPrimitives.obj
 0002:000038d0       __real@3f7fbe77            00000001801268d0     GuContactBoxBox.obj
 0002:00003920       __real@3a83126f            0000000180126920     GuContactCapsuleCapsule.obj
 0002:00003924       __real@3f7ff2e5            0000000180126924     GuContactCapsuleCapsule.obj
 0002:000039c8       __real@358637be            00000001801269c8     GuContactCapsuleMesh.obj
 0002:000039cc       __real@3eaaaaab            00000001801269cc     GuContactCapsuleMesh.obj
 0002:000039d0       __real@3f8020c5            00000001801269d0     GuContactCapsuleMesh.obj
 0002:000039d4       __real@ba83126f            00000001801269d4     GuContactCapsuleMesh.obj
 0002:00003a38       ??_7ConvexMeshContactGenerationCallback@@6B@ 0000000180126a38     GuContactConvexMesh.obj
 0002:00003ac0       __real@3ec90fdb            0000000180126ac0     GuContactPolygonPolygon.obj
 0002:00003ac4       __real@3f490fdb            0000000180126ac4     GuContactPolygonPolygon.obj
 0002:00003ac8       __real@3f96cbe4            0000000180126ac8     GuContactPolygonPolygon.obj
 0002:00003acc       __real@3fc90fdb            0000000180126acc     GuContactPolygonPolygon.obj
 0002:00003ad0       __real@3ffb53d2            0000000180126ad0     GuContactPolygonPolygon.obj
 0002:00003ad4       __real@4016cbe4            0000000180126ad4     GuContactPolygonPolygon.obj
 0002:00003ad8       __real@402feddf            0000000180126ad8     GuContactPolygonPolygon.obj
 0002:00003ba0       ??_C@_0GO@HCCJAIBB@C?3?2C?$CL?$CL?2GitHub?2vcpkg?2buildtrees?2@ 0000000180126ba0     GuContactSphereMesh.obj
 0002:00003c50       __real@bf000000            0000000180126c50     GuContactSphereSphere.obj
 0002:00003c60       ??_C@_0HL@IFCKJGDH@C?3?2C?$CL?$CL?2GitHub?2vcpkg?2buildtrees?2@ 0000000180126c60     GuBigConvexData.obj
 0002:00003d08       ??_7PxConvexMesh@physx@@6B@ 0000000180126d08     GuConvexMesh.obj
 0002:00003d88       ??_7ConvexMesh@Gu@physx@@6BPxConvexMesh@2@@ 0000000180126d88     GuConvexMesh.obj
 0002:00003e18       ??_7ConvexMesh@Gu@physx@@6BRefCountable@Cm@2@@ 0000000180126e18     GuConvexMesh.obj
 0002:00003e30       ??_C@_0HI@GHIGODIJ@C?3?2C?$CL?$CL?2GitHub?2vcpkg?2buildtrees?2@ 0000000180126e30     GuConvexMesh.obj
 0002:00003ea8       ??_C@_0DM@NEJKOFIP@Loading?5convex?5mesh?5failed?3?5Dep@ 0000000180126ea8     GuConvexMesh.obj
 0002:00003ee8       ??_C@_0DD@GDAMDLJL@Gu?3?3ConvexMesh?3?3release?3?5double@ 0000000180126ee8     GuConvexMesh.obj
 0002:00003f40       __xmm@000000000000000000000000ffffffff 0000000180126f40     GuConvexSupportTable.obj
 0002:00003f50       __xmm@0000000000000000ffffffff00000000 0000000180126f50     GuConvexSupportTable.obj
 0002:00003f60       __xmm@0000000000000000ffffffffffffffff 0000000180126f60     GuConvexSupportTable.obj
 0002:00003f70       __xmm@00000000ffffffff0000000000000000 0000000180126f70     GuConvexSupportTable.obj
 0002:00003f80       __xmm@00000000ffffffff00000000ffffffff 0000000180126f80     GuConvexSupportTable.obj
 0002:00003f90       __xmm@00000000ffffffffffffffff00000000 0000000180126f90     GuConvexSupportTable.obj
 0002:00004040       __real@2b8cbccc            0000000180127040     GuDistanceSegmentTriangle.obj
 0002:00004050       __xmm@3f8000013f8000013f8000013f800001 0000000180127050     GuDistanceSegmentTriangle.obj
 0002:00004060       __xmm@b4000000b4000000b4000000b4000000 0000000180127060     GuDistanceSegmentTriangle.obj
 0002:000040c0       __xmm@38d1b71738d1b71738d1b71738d1b717 00000001801270c0     GuGJKSimplex.obj
 0002:000040d0       __xmm@b58637bdb58637bdb58637bdb58637bd 00000001801270d0     GuGJKSimplex.obj
 0002:00004108       ??_7PxHeightField@physx@@6B@ 0000000180127108     GuHeightField.obj
 0002:000041b0       ??_7HeightField@Gu@physx@@6BPxHeightField@2@@ 00000001801271b0     GuHeightField.obj
 0002:00004268       ??_7HeightField@Gu@physx@@6BRefCountable@Cm@2@@ 0000000180127268     GuHeightField.obj
 0002:00004278       ??_C@_0DL@DNGFPCEG@Gu?3?3HeightField?3?3onRefCountZero@ 0000000180127278     GuHeightField.obj
 0002:000042c0       ??_C@_0HF@PMCCOADG@C?3?2C?$CL?$CL?2GitHub?2vcpkg?2buildtrees?2@ 00000001801272c0     GuHeightField.obj
 0002:00004338       ??_C@_0CI@DMKEKGNK@Gu?3?3HeightField?3?3load?3?5PX_ALLOC@ 0000000180127338     GuHeightField.obj
 0002:00004360       ??_C@_0GI@MGNDMGBL@C?3?2C?$CL?$CL?2GitHub?2vcpkg?2buildtrees?2@ 0000000180127360     GuHeightField.obj
 0002:000043f0       __real@3a03126f            00000001801273f0     GuHeightFieldUtil.obj
 0002:000043f4       __real@3f19999a            00000001801273f4     GuHeightFieldUtil.obj
 0002:00004468       ??_7HeightFieldTraceSegmentReport@@6B@ 0000000180127468     GuSweepsHF.obj
 0002:00004480       ??_7CapsuleTraceSegmentReport@@6B@ 0000000180127480     GuSweepsHF.obj
 0002:00004498       ??_7ConvexTraceSegmentReport@@6B@ 0000000180127498     GuSweepsHF.obj
 0002:000044b0       ??_7BoxTraceSegmentReport@@6B@ 00000001801274b0     GuSweepsHF.obj
 0002:000044c0       __real@aedbe6ff            00000001801274c0     GuSweepsHF.obj
 0002:000044f0       __real@3089705f            00000001801274f0     GuIntersectionRayBox.obj
 0002:000044f4       __real@34000000            00000001801274f4     GuIntersectionRayBox.obj
 0002:000044f8       __real@b4000000            00000001801274f8     GuIntersectionRayBox.obj
 0002:00004500       __xmm@000000003089705f3089705f3089705f 0000000180127500     GuIntersectionRayBox.obj
 0002:00004510       __xmm@00000000bf800000bf800000bf800000 0000000180127510     GuIntersectionRayBox.obj
 0002:00004560       ??_C@_0GP@NEPPLDIH@C?3?2C?$CL?$CL?2GitHub?2vcpkg?2buildtrees?2@ 0000000180127560     GuBV4.obj
 0002:000045f0       ??_C@_0HE@DPIPCPNN@C?3?2C?$CL?$CL?2GitHub?2vcpkg?2buildtrees?2@ 00000001801275f0     GuBV4Build.obj
 0002:00004664       __real@38000100            0000000180127664     GuBV4Build.obj
 0002:00004668       __real@3e93cd3a            0000000180127668     GuBV4Build.obj
 0002:0000466c       __real@46fffe00            000000018012766c     GuBV4Build.obj
 0002:00004670       __real@be93cd3a            0000000180127670     GuBV4Build.obj
 0002:000046a0       __xmm@0000ffff0000ffff0000ffff0000ffff 00000001801276a0     GuBV4_AABBSweep.obj
 0002:000046b0       __xmm@3089705f3089705f3089705f3089705f 00000001801276b0     GuBV4_AABBSweep.obj
 0002:000046c0       __xmm@33d6bf9533d6bf9533d6bf9533d6bf95 00000001801276c0     GuBV4_AABBSweep.obj
 0002:000046d0       __xmm@40000000400000004000000040000000 00000001801276d0     GuBV4_AABBSweep.obj
 0002:000047a0       __real@40800000            00000001801277a0     GuBV4_SphereOverlap.obj
 0002:000047f0       __xmm@00000000000000007f7fffff00000000 00000001801277f0     GuMidphaseBV4.obj
 0002:00004870       ??_C@_0FD@EHCCILIF@Adjacency?5information?5not?5creat@ 0000000180127870     GuMeshQuery.obj
 0002:000048d0       ??_C@_0HF@PPMKBIFN@C?3?2C?$CL?$CL?2GitHub?2vcpkg?2buildtrees?2@ 00000001801278d0     GuMeshQuery.obj
 0002:00004948       __real@4cbebc20            0000000180127948     GuMeshQuery.obj
 0002:00004978       ??_7Callback@RTree@Gu@physx@@6B@ 0000000180127978     GuMidphaseRTree.obj
 0002:00004998       ??_7CallbackRaycast@RTree@Gu@physx@@6B@ 0000000180127998     GuMidphaseRTree.obj
 0002:000049b0       ??_7?$RayRTreeCallback@$0A@$0A@@@6BCallbackRaycast@RTree@Gu@physx@@@ 00000001801279b0     GuMidphaseRTree.obj
 0002:000049c8       ??_7?$RayRTreeCallback@$0A@$0A@@@6BCallback@RTree@Gu@physx@@@ 00000001801279c8     GuMidphaseRTree.obj
 0002:000049e8       ??_7RayMeshColliderCallback@@6B@ 00000001801279e8     GuMidphaseRTree.obj
 0002:00004a00       ??_7?$RayRTreeCallback@$00$0A@@@6BCallbackRaycast@RTree@Gu@physx@@@ 0000000180127a00     GuMidphaseRTree.obj
 0002:00004a18       ??_7?$RayRTreeCallback@$00$0A@@@6BCallback@RTree@Gu@physx@@@ 0000000180127a18     GuMidphaseRTree.obj
 0002:00004a38       ??_7?$RayRTreeCallback@$0A@$00@@6BCallbackRaycast@RTree@Gu@physx@@@ 0000000180127a38     GuMidphaseRTree.obj
 0002:00004a50       ??_7?$RayRTreeCallback@$0A@$00@@6BCallback@RTree@Gu@physx@@@ 0000000180127a50     GuMidphaseRTree.obj
 0002:00004a70       ??_7?$RayRTreeCallback@$00$00@@6BCallbackRaycast@RTree@Gu@physx@@@ 0000000180127a70     GuMidphaseRTree.obj
 0002:00004a88       ??_7?$RayRTreeCallback@$00$00@@6BCallback@RTree@Gu@physx@@@ 0000000180127a88     GuMidphaseRTree.obj
 0002:00004b98       ??_7ConvexVsMeshOverlapCallback@@6B@ 0000000180127b98     GuOverlapTestsMesh.obj
 0002:00004bd0       ?MN@RTreePage@Gu@physx@@2MB 0000000180127bd0     GuRTree.obj
 0002:00004bd4       ?MX@RTreePage@Gu@physx@@2MB 0000000180127bd4     GuRTree.obj
 0002:00004be0       ??_C@_0HB@OOBEAAKC@C?3?2C?$CL?$CL?2GitHub?2vcpkg?2buildtrees?2@ 0000000180127be0     GuRTree.obj
 0002:00004cd8       ??_7SweepShapeMeshHitCallback@Gu@physx@@6B@ 0000000180127cd8     GuSweepsMesh.obj
 0002:00004cf0       ??_7SweepCapsuleMeshHitCallback@Gu@physx@@6B@ 0000000180127cf0     GuSweepsMesh.obj
 0002:00004d08       ??_7SweepBoxMeshHitCallback@Gu@physx@@6B@ 0000000180127d08     GuSweepsMesh.obj
 0002:00004d20       ??_7SweepConvexMeshHitCallback@Gu@physx@@6B@ 0000000180127d20     GuSweepsMesh.obj
 0002:00004d58       ??_7PxTriangleMesh@physx@@6B@ 0000000180127d58     GuTriangleMesh.obj
 0002:00004de8       ??_7TriangleMesh@Gu@physx@@6BPxTriangleMesh@2@@ 0000000180127de8     GuTriangleMesh.obj
 0002:00004e90       ??_7TriangleMesh@Gu@physx@@6BRefCountable@Cm@2@@ 0000000180127e90     GuTriangleMesh.obj
 0002:00004ea0       ??_C@_0DF@DNLKAHAL@Gu?3?3TriangleMesh?3?3release?3?5doub@ 0000000180127ea0     GuTriangleMesh.obj
 0002:00004ee0       ??_C@_0HI@FJNGEMGI@C?3?2C?$CL?$CL?2GitHub?2vcpkg?2buildtrees?2@ 0000000180127ee0     GuTriangleMesh.obj
 0002:00004f60       ??_C@_0GH@IGKFPLIJ@PxTriangleMesh?3?3getVerticesForM@ 0000000180127f60     GuTriangleMesh.obj
 0002:00004fd0       ??_C@_0FF@LHAOBIMM@PxTriangleMesh?3?3refitBVH?$CI?$CJ?5is?5o@ 0000000180127fd0     GuTriangleMesh.obj
 0002:00005050       ??_C@_0BE@CNJKIINO@PxBVH34TriangleMesh@ 0000000180128050     GuTriangleMeshBV4.obj
 0002:00005070       ??_7BV4TriangleMesh@Gu@physx@@6BPxTriangleMesh@2@@ 0000000180128070     GuTriangleMeshBV4.obj
 0002:00005118       ??_7BV4TriangleMesh@Gu@physx@@6BRefCountable@Cm@2@@ 0000000180128118     GuTriangleMeshBV4.obj
 0002:00005150       ??_C@_0BE@EIFHCCBO@PxBVH33TriangleMesh@ 0000000180128150     GuTriangleMeshRTree.obj
 0002:00005170       ??_7CallbackRefit@RTree@Gu@physx@@6B@ 0000000180128170     GuTriangleMeshRTree.obj
 0002:00005188       ??_7RTreeTriangleMesh@Gu@physx@@6BPxTriangleMesh@2@@ 0000000180128188     GuTriangleMeshRTree.obj
 0002:00005230       ??_7RTreeTriangleMesh@Gu@physx@@6BRefCountable@Cm@2@@ 0000000180128230     GuTriangleMeshRTree.obj
 0002:00005248       ??_7?$RefitCallback@G@physx@@6B@ 0000000180128248     GuTriangleMeshRTree.obj
 0002:00005260       ??_7?$RefitCallback@I@physx@@6B@ 0000000180128260     GuTriangleMeshRTree.obj
 0002:00005270       __xmm@38383838383838383838383838383838 0000000180128270     GuTriangleMeshRTree.obj
 0002:00005280       ??_C@_0HA@PELAICB@C?3?2C?$CL?$CL?2GitHub?2vcpkg?2buildtrees?2@ 0000000180128280     GuBV32.obj
 0002:00005310       ??_C@_0HF@KKAAMGGI@C?3?2C?$CL?$CL?2GitHub?2vcpkg?2buildtrees?2@ 0000000180128310     GuBV32Build.obj
 0002:000053b0       __xmm@00000000358637bd358637bd358637bd 00000001801283b0     GuPCMContactBoxBox.obj
 0002:000053c0       __xmm@3d4ccccd3d4ccccd3d4ccccd3d4ccccd 00000001801283c0     GuPCMContactBoxBox.obj
 0002:000053d0       __xmm@3f4ccccd3f4ccccd3f4ccccd3f4ccccd 00000001801283d0     GuPCMContactBoxBox.obj
 0002:000053e0       __xmm@ffffffff00000000ffffffffffffffff 00000001801283e0     GuPCMContactBoxBox.obj
 0002:00005418       ??_7?$LocalConvex@VConvexHullNoScaleV@Gu@physx@@@Gu@physx@@6B@ 0000000180128418     GuPCMContactBoxConvex.obj
 0002:00005450       __xmm@3f3504f33f3504f33f3504f33f3504f3 0000000180128450     GuPCMContactBoxConvex.obj
 0002:000054a0       __xmm@ffffffffffffffffffffffff00000000 00000001801284a0     GuPCMContactCapsuleCapsule.obj
 0002:000054d0       __xmm@3fa000003fa000003fa000003fa00000 00000001801284d0     GuPCMContactCapsuleConvex.obj
 0002:00005508       ??_7?$PCMHeightfieldContactGenerationCallback@UPCMCapsuleVsHeightfieldContactGenerationCallback@physx@@@Gu@physx@@6B@ 0000000180128508     GuPCMContactCapsuleHeightField.obj
 0002:00005520       ??_7PCMCapsuleVsHeightfieldContactGenerationCallback@physx@@6B@ 0000000180128520     GuPCMContactCapsuleHeightField.obj
 0002:00005530       __real@3f7f3b64            0000000180128530     GuPCMContactCapsuleHeightField.obj
 0002:00005540       __xmm@3f7ef9db3f7ef9db3f7ef9db3f7ef9db 0000000180128540     GuPCMContactCapsuleHeightField.obj
 0002:00005588       ??_7PCMCapsuleVsMeshContactGenerationCallback@physx@@6B@ 0000000180128588     GuPCMContactCapsuleMesh.obj
 0002:000055c8       ??_7?$SupportLocalImpl@VTriangleV@Gu@physx@@@Gu@physx@@6B@ 00000001801285c8     GuPCMContactConvexCommon.obj
 0002:000055f0       ??_C@_0HH@GFFDFBBO@C?3?2C?$CL?$CL?2GitHub?2vcpkg?2buildtrees?2@ 00000001801285f0     GuPCMContactConvexCommon.obj
 0002:00005670       __xmm@3cf5c2803cf5c2803cf5c2803cf5c280 0000000180128670     GuPCMContactConvexCommon.obj
 0002:00005680       __xmm@3f7851ec3f7851ec3f7851ec3f7851ec 0000000180128680     GuPCMContactConvexCommon.obj
 0002:00005690       __xmm@3f7ff9723f7ff9723f7ff9723f7ff972 0000000180128690     GuPCMContactConvexCommon.obj
 0002:000056a0       __xmm@3f7fffef3f7fffef3f7fffef3f7fffef 00000001801286a0     GuPCMContactConvexCommon.obj
 0002:000056d8       ??_7?$RelativeConvex@VConvexHullNoScaleV@Gu@physx@@@Gu@physx@@6B@ 00000001801286d8     GuPCMContactConvexConvex.obj
 0002:00005738       ??_7?$PCMHeightfieldContactGenerationCallback@UPCMConvexVsHeightfieldContactGenerationCallback@physx@@@Gu@physx@@6B@ 0000000180128738     GuPCMContactConvexHeightField.obj
 0002:00005750       ??_7PCMConvexVsHeightfieldContactGenerationCallback@physx@@6B@ 0000000180128750     GuPCMContactConvexHeightField.obj
 0002:00005760       __xmm@3f19999a3f19999a3f19999a3f19999a 0000000180128760     GuPCMContactConvexHeightField.obj
 0002:000057a8       ??_7PCMConvexVsMeshContactGenerationCallback@physx@@6B@ 00000001801287a8     GuPCMContactConvexMesh.obj
 0002:000057e0       __xmm@3f34fdf43f34fdf43f34fdf43f34fdf4 00000001801287e0     GuPCMContactGenBoxConvex.obj
 0002:00005810       __xmm@3f80a3d73f80a3d73f80a3d73f80a3d7 0000000180128810     GuPCMContactGenSphereCapsule.obj
 0002:00005820       __xmm@bba3d70abba3d70abba3d70abba3d70a 0000000180128820     GuPCMContactGenSphereCapsule.obj
 0002:00005870       __real@3b23d70b            0000000180128870     GuPCMContactPlaneCapsule.obj
 0002:00005880       __xmm@3ca3d70a3ca3d70a3ca3d70a3ca3d70a 0000000180128880     GuPCMContactPlaneCapsule.obj
 0002:00005938       ??_7?$PCMHeightfieldContactGenerationCallback@UPCMSphereVsHeightfieldContactGenerationCallback@physx@@@Gu@physx@@6B@ 0000000180128938     GuPCMContactSphereHeightField.obj
 0002:00005950       ??_7PCMSphereVsHeightfieldContactGenerationCallback@physx@@6B@ 0000000180128950     GuPCMContactSphereHeightField.obj
 0002:00005998       ??_7PCMSphereVsMeshContactGenerationCallback@physx@@6B@ 0000000180128998     GuPCMContactSphereMesh.obj
 0002:000059f0       __xmm@3727c5ac3727c5ac3727c5ac3727c5ac 00000001801289f0     GuPCMContactSphereSphere.obj
 0002:00005a00       ?gPCMBoxPolygonData@Gu@physx@@3QBEB 0000000180128a00     GuPCMShapeConvex.obj
 0002:00005a60       ?invalidateThresholds@Gu@physx@@3QBMB 0000000180128a60     GuPersistentContactManifold.obj
 0002:00005a78       ?invalidateQuatThresholds@Gu@physx@@3QBMB 0000000180128a78     GuPersistentContactManifold.obj
 0002:00005a90       ?invalidateThresholds2@Gu@physx@@3QBMB 0000000180128a90     GuPersistentContactManifold.obj
 0002:00005aa0       ?invalidateQuatThresholds2@Gu@physx@@3QBMB 0000000180128aa0     GuPersistentContactManifold.obj
 0002:00005ad0       __xmm@000000003f8000003f80000000000000 0000000180128ad0     GuPersistentContactManifold.obj
 0002:00005ae0       __xmm@00000000bf8000003f80000000000000 0000000180128ae0     GuPersistentContactManifold.obj
 0002:00005af0       __xmm@ff7fffffff7fffffff7fffffff7fffff 0000000180128af0     GuPersistentContactManifold.obj
 0002:00005b00       __xmm@ffffffffffffffff00000000ffffffff 0000000180128b00     GuPersistentContactManifold.obj
 0002:00005b50       __real@b727c5ac            0000000180128b50     GuSweepBoxSphere.obj
 0002:00005bc0       ??_C@_0HM@OCGKIFBP@C?3?2C?$CL?$CL?2GitHub?2vcpkg?2buildtrees?2@ 0000000180128bc0     GuSweepCapsuleBox.obj
 0002:00005c60       __real@3f7fff58            0000000180128c60     GuSweepCapsuleTriangle.obj
 0002:00005cb0       __sz_PhysXFoundation_64_dll 0000000180128cb0     PhysXFoundation_64:PhysXFoundation_64.dll
 0002:00005cc8       ??_C@_1BK@DBDEIDLH@?$AAK?$AAE?$AAR?$AAN?$AAE?$AAL?$AA3?$AA2?$AA?4?$AAD?$AAL?$AAL@ 0000000180128cc8     Delayimp:delayhlp.obj
 0002:00005ce8       ??_C@_0BI@OMNLIJDB@AcquireSRWLockExclusive@ 0000000180128ce8     Delayimp:delayhlp.obj
 0002:00005d00       ??_C@_0BI@HMIEPCNJ@ReleaseSRWLockExclusive@ 0000000180128d00     Delayimp:delayhlp.obj
 0002:00005d18       __pfnDliFailureHook2       0000000180128d18     Delayimp:delayhk1.obj
 0002:00005d28       ??_7type_info@@6B@         0000000180128d28     MSVCRT:std_type_info_static.obj
 0002:00005da0       _pDefaultRawDllMain        0000000180128da0     MSVCRT:dll_dllmain.obj
 0002:00005da0       _pRawDllMain               0000000180128da0     MSVCRT:dll_dllmain.obj
 0002:00005db0       _load_config_used          0000000180128db0     MSVCRT:loadcfg.obj
 0002:00005f80       ??_R4PxCollection@physx@@6B@ 0000000180128f80     CmCollection.obj
 0002:00005fa8       ??_R3PxCollection@physx@@8 0000000180128fa8     CmCollection.obj
 0002:00005fc0       ??_R2PxCollection@physx@@8 0000000180128fc0     CmCollection.obj
 0002:00005fd0       ??_R1A@?0A@EA@PxCollection@physx@@8 0000000180128fd0     CmCollection.obj
 0002:00005ff8       ??_R4Collection@Cm@physx@@6B@ 0000000180128ff8     CmCollection.obj
 0002:00006020       ??_R3Collection@Cm@physx@@8 0000000180129020     CmCollection.obj
 0002:00006038       ??_R2Collection@Cm@physx@@8 0000000180129038     CmCollection.obj
 0002:00006058       ??_R1A@?0A@EA@Collection@Cm@physx@@8 0000000180129058     CmCollection.obj
 0002:00006080       ??_R17?0A@EA@UserAllocated@shdfnd@physx@@8 0000000180129080     CmCollection.obj
 0002:000060a8       ??_R3UserAllocated@shdfnd@physx@@8 00000001801290a8     CmCollection.obj
 0002:000060c0       ??_R2UserAllocated@shdfnd@physx@@8 00000001801290c0     CmCollection.obj
 0002:000060d0       ??_R1A@?0A@EA@UserAllocated@shdfnd@physx@@8 00000001801290d0     CmCollection.obj
 0002:000060f8       ??_R4RadixSort@Cm@physx@@6B@ 00000001801290f8     CmRadixSort.obj
 0002:00006120       ??_R3RadixSort@Cm@physx@@8 0000000180129120     CmRadixSort.obj
 0002:00006138       ??_R2RadixSort@Cm@physx@@8 0000000180129138     CmRadixSort.obj
 0002:00006148       ??_R1A@?0A@EA@RadixSort@Cm@physx@@8 0000000180129148     CmRadixSort.obj
 0002:00006170       ??_R4RadixSortBuffered@Cm@physx@@6B@ 0000000180129170     CmRadixSortBuffered.obj
 0002:00006198       ??_R3RadixSortBuffered@Cm@physx@@8 0000000180129198     CmRadixSortBuffered.obj
 0002:000061b0       ??_R2RadixSortBuffered@Cm@physx@@8 00000001801291b0     CmRadixSortBuffered.obj
 0002:000061c8       ??_R1A@?0A@EA@RadixSortBuffered@Cm@physx@@8 00000001801291c8     CmRadixSortBuffered.obj
 0002:000061f0       ??_R4PxBase@physx@@6B@     00000001801291f0     GuBounds.obj
 0002:00006218       ??_R3PxBase@physx@@8       0000000180129218     GuBounds.obj
 0002:00006230       ??_R2PxBase@physx@@8       0000000180129230     GuBounds.obj
 0002:00006240       ??_R1A@?0A@EA@PxBase@physx@@8 0000000180129240     GuBounds.obj
 0002:00006268       ??_R4?$EntityReport@I@Gu@physx@@6B@ 0000000180129268     GuCCTSweepTests.obj
 0002:00006290       ??_R3?$EntityReport@I@Gu@physx@@8 0000000180129290     GuCCTSweepTests.obj
 0002:000062a8       ??_R2?$EntityReport@I@Gu@physx@@8 00000001801292a8     GuCCTSweepTests.obj
 0002:000062b8       ??_R1A@?0A@EA@?$EntityReport@I@Gu@physx@@8 00000001801292b8     GuCCTSweepTests.obj
 0002:00006360       ??_R4TriangleMeshData@Gu@physx@@6B@ 0000000180129360     GuMeshFactory.obj
 0002:00006388       ??_R3TriangleMeshData@Gu@physx@@8 0000000180129388     GuMeshFactory.obj
 0002:000063a0       ??_R2TriangleMeshData@Gu@physx@@8 00000001801293a0     GuMeshFactory.obj
 0002:000063c0       ??_R1A@?0A@EA@TriangleMeshData@Gu@physx@@8 00000001801293c0     GuMeshFactory.obj
 0002:000063e8       ??_R1A@?0A@EA@MeshDataBase@Gu@physx@@8 00000001801293e8     GuMeshFactory.obj
 0002:00006410       ??_R3MeshDataBase@Gu@physx@@8 0000000180129410     GuMeshFactory.obj
 0002:00006428       ??_R2MeshDataBase@Gu@physx@@8 0000000180129428     GuMeshFactory.obj
 0002:00006440       ??_R4GuMeshFactory@physx@@6B@ 0000000180129440     GuMeshFactory.obj
 0002:00006468       ??_R3GuMeshFactory@physx@@8 0000000180129468     GuMeshFactory.obj
 0002:00006480       ??_R2GuMeshFactory@physx@@8 0000000180129480     GuMeshFactory.obj
 0002:00006498       ??_R1A@?0A@EA@GuMeshFactory@physx@@8 0000000180129498     GuMeshFactory.obj
 0002:000064c0       ??_R4MeshDataBase@Gu@physx@@6B@ 00000001801294c0     GuMeshFactory.obj
 0002:000064e8       ??_R4RTreeTriangleData@Gu@physx@@6B@ 00000001801294e8     GuMeshFactory.obj
 0002:00006510       ??_R3RTreeTriangleData@Gu@physx@@8 0000000180129510     GuMeshFactory.obj
 0002:00006528       ??_R2RTreeTriangleData@Gu@physx@@8 0000000180129528     GuMeshFactory.obj
 0002:00006550       ??_R1A@?0A@EA@RTreeTriangleData@Gu@physx@@8 0000000180129550     GuMeshFactory.obj
 0002:00006578       ??_R4BV4TriangleData@Gu@physx@@6B@ 0000000180129578     GuMeshFactory.obj
 0002:000065a0       ??_R3BV4TriangleData@Gu@physx@@8 00000001801295a0     GuMeshFactory.obj
 0002:000065b8       ??_R2BV4TriangleData@Gu@physx@@8 00000001801295b8     GuMeshFactory.obj
 0002:000065e0       ??_R1A@?0A@EA@BV4TriangleData@Gu@physx@@8 00000001801295e0     GuMeshFactory.obj
 0002:00006608       ??_R4SupportLocal@Gu@physx@@6B@ 0000000180129608     GuMTD.obj
 0002:00006630       ??_R3SupportLocal@Gu@physx@@8 0000000180129630     GuMTD.obj
 0002:00006648       ??_R2SupportLocal@Gu@physx@@8 0000000180129648     GuMTD.obj
 0002:00006658       ??_R1A@?0A@EA@SupportLocal@Gu@physx@@8 0000000180129658     GuMTD.obj
 0002:00006680       ??_R4?$SupportLocalImpl@VConvexHullV@Gu@physx@@@Gu@physx@@6B@ 0000000180129680     GuMTD.obj
 0002:000066a8       ??_R3?$SupportLocalImpl@VConvexHullV@Gu@physx@@@Gu@physx@@8 00000001801296a8     GuMTD.obj
 0002:000066c0       ??_R2?$SupportLocalImpl@VConvexHullV@Gu@physx@@@Gu@physx@@8 00000001801296c0     GuMTD.obj
 0002:000066d8       ??_R1A@?0A@EA@?$SupportLocalImpl@VConvexHullV@Gu@physx@@@Gu@physx@@8 00000001801296d8     GuMTD.obj
 0002:00006700       ??_R4?$SupportLocalImpl@VConvexHullNoScaleV@Gu@physx@@@Gu@physx@@6B@ 0000000180129700     GuMTD.obj
 0002:00006728       ??_R3?$SupportLocalImpl@VConvexHullNoScaleV@Gu@physx@@@Gu@physx@@8 0000000180129728     GuMTD.obj
 0002:00006740       ??_R2?$SupportLocalImpl@VConvexHullNoScaleV@Gu@physx@@@Gu@physx@@8 0000000180129740     GuMTD.obj
 0002:00006758       ??_R1A@?0A@EA@?$SupportLocalImpl@VConvexHullNoScaleV@Gu@physx@@@Gu@physx@@8 0000000180129758     GuMTD.obj
 0002:00006780       ??_R4?$SupportLocalImpl@VBoxV@Gu@physx@@@Gu@physx@@6B@ 0000000180129780     GuMTD.obj
 0002:000067a8       ??_R3?$SupportLocalImpl@VBoxV@Gu@physx@@@Gu@physx@@8 00000001801297a8     GuMTD.obj
 0002:000067c0       ??_R2?$SupportLocalImpl@VBoxV@Gu@physx@@@Gu@physx@@8 00000001801297c0     GuMTD.obj
 0002:000067d8       ??_R1A@?0A@EA@?$SupportLocalImpl@VBoxV@Gu@physx@@@Gu@physx@@8 00000001801297d8     GuMTD.obj
 0002:00006800       ??_R4GjkConvexBase@Gu@physx@@6B@ 0000000180129800     GuMTD.obj
 0002:00006828       ??_R3GjkConvexBase@Gu@physx@@8 0000000180129828     GuMTD.obj
 0002:00006840       ??_R2GjkConvexBase@Gu@physx@@8 0000000180129840     GuMTD.obj
 0002:00006850       ??_R1A@?0A@EA@GjkConvexBase@Gu@physx@@8 0000000180129850     GuMTD.obj
 0002:00006878       ??_R3GjkConvex@Gu@physx@@8 0000000180129878     GuMTD.obj
 0002:00006890       ??_R2GjkConvex@Gu@physx@@8 0000000180129890     GuMTD.obj
 0002:000068a8       ??_R1A@?0A@EA@GjkConvex@Gu@physx@@8 00000001801298a8     GuMTD.obj
 0002:000068d0       ??_R4?$LocalConvex@VCapsuleV@Gu@physx@@@Gu@physx@@6B@ 00000001801298d0     GuMTD.obj
 0002:000068f8       ??_R3?$LocalConvex@VCapsuleV@Gu@physx@@@Gu@physx@@8 00000001801298f8     GuMTD.obj
 0002:00006910       ??_R2?$LocalConvex@VCapsuleV@Gu@physx@@@Gu@physx@@8 0000000180129910     GuMTD.obj
 0002:00006930       ??_R1A@?0A@EA@?$LocalConvex@VCapsuleV@Gu@physx@@@Gu@physx@@8 0000000180129930     GuMTD.obj
 0002:00006958       ??_R4?$LocalConvex@VConvexHullV@Gu@physx@@@Gu@physx@@6B@ 0000000180129958     GuMTD.obj
 0002:00006980       ??_R3?$LocalConvex@VConvexHullV@Gu@physx@@@Gu@physx@@8 0000000180129980     GuMTD.obj
 0002:00006998       ??_R2?$LocalConvex@VConvexHullV@Gu@physx@@@Gu@physx@@8 0000000180129998     GuMTD.obj
 0002:000069b8       ??_R1A@?0A@EA@?$LocalConvex@VConvexHullV@Gu@physx@@@Gu@physx@@8 00000001801299b8     GuMTD.obj
 0002:000069e0       ??_R4?$RelativeConvex@VBoxV@Gu@physx@@@Gu@physx@@6B@ 00000001801299e0     GuOverlapTests.obj
 0002:00006a08       ??_R3?$RelativeConvex@VBoxV@Gu@physx@@@Gu@physx@@8 0000000180129a08     GuOverlapTests.obj
 0002:00006a20       ??_R2?$RelativeConvex@VBoxV@Gu@physx@@@Gu@physx@@8 0000000180129a20     GuOverlapTests.obj
 0002:00006a40       ??_R1A@?0A@EA@?$RelativeConvex@VBoxV@Gu@physx@@@Gu@physx@@8 0000000180129a40     GuOverlapTests.obj
 0002:00006a68       ??_R4?$RelativeConvex@VConvexHullV@Gu@physx@@@Gu@physx@@6B@ 0000000180129a68     GuOverlapTests.obj
 0002:00006a90       ??_R3?$RelativeConvex@VConvexHullV@Gu@physx@@@Gu@physx@@8 0000000180129a90     GuOverlapTests.obj
 0002:00006aa8       ??_R2?$RelativeConvex@VConvexHullV@Gu@physx@@@Gu@physx@@8 0000000180129aa8     GuOverlapTests.obj
 0002:00006ac8       ??_R1A@?0A@EA@?$RelativeConvex@VConvexHullV@Gu@physx@@@Gu@physx@@8 0000000180129ac8     GuOverlapTests.obj
 0002:00006af0       ??_R4?$MeshHitCallback@UPxRaycastHit@physx@@@Gu@physx@@6B@ 0000000180129af0     GuSweepMTD.obj
 0002:00006b18       ??_R3?$MeshHitCallback@UPxRaycastHit@physx@@@Gu@physx@@8 0000000180129b18     GuSweepMTD.obj
 0002:00006b30       ??_R2?$MeshHitCallback@UPxRaycastHit@physx@@@Gu@physx@@8 0000000180129b30     GuSweepMTD.obj
 0002:00006b40       ??_R1A@?0A@EA@?$MeshHitCallback@UPxRaycastHit@physx@@@Gu@physx@@8 0000000180129b40     GuSweepMTD.obj
 0002:00006b68       ??_R4MeshMTDGenerationCallback@@6B@ 0000000180129b68     GuSweepMTD.obj
 0002:00006b90       ??_R3MeshMTDGenerationCallback@@8 0000000180129b90     GuSweepMTD.obj
 0002:00006ba8       ??_R2MeshMTDGenerationCallback@@8 0000000180129ba8     GuSweepMTD.obj
 0002:00006bc0       ??_R1A@?0A@EA@MeshMTDGenerationCallback@@8 0000000180129bc0     GuSweepMTD.obj
 0002:00006be8       ??_R4MidPhaseQueryLocalReport@@6B@ 0000000180129be8     GuSweepMTD.obj
 0002:00006c10       ??_R3MidPhaseQueryLocalReport@@8 0000000180129c10     GuSweepMTD.obj
 0002:00006c28       ??_R2MidPhaseQueryLocalReport@@8 0000000180129c28     GuSweepMTD.obj
 0002:00006c40       ??_R1A@?0A@EA@MidPhaseQueryLocalReport@@8 0000000180129c40     GuSweepMTD.obj
 0002:00006c68       ??_R4?$LocalConvex@VBoxV@Gu@physx@@@Gu@physx@@6B@ 0000000180129c68     GuSweepTests.obj
 0002:00006c90       ??_R3?$LocalConvex@VBoxV@Gu@physx@@@Gu@physx@@8 0000000180129c90     GuSweepTests.obj
 0002:00006ca8       ??_R2?$LocalConvex@VBoxV@Gu@physx@@@Gu@physx@@8 0000000180129ca8     GuSweepTests.obj
 0002:00006cc8       ??_R1A@?0A@EA@?$LocalConvex@VBoxV@Gu@physx@@@Gu@physx@@8 0000000180129cc8     GuSweepTests.obj
 0002:00006cf0       ??_R4?$LocalConvex@VTriangleV@Gu@physx@@@Gu@physx@@6B@ 0000000180129cf0     GuSweepTests.obj
 0002:00006d18       ??_R3?$LocalConvex@VTriangleV@Gu@physx@@@Gu@physx@@8 0000000180129d18     GuSweepTests.obj
 0002:00006d30       ??_R2?$LocalConvex@VTriangleV@Gu@physx@@@Gu@physx@@8 0000000180129d30     GuSweepTests.obj
 0002:00006d50       ??_R1A@?0A@EA@?$LocalConvex@VTriangleV@Gu@physx@@@Gu@physx@@8 0000000180129d50     GuSweepTests.obj
 0002:00006d78       ??_R4PxBVHStructure@physx@@6B@ 0000000180129d78     GuBVHStructure.obj
 0002:00006da0       ??_R3PxBVHStructure@physx@@8 0000000180129da0     GuBVHStructure.obj
 0002:00006db8       ??_R2PxBVHStructure@physx@@8 0000000180129db8     GuBVHStructure.obj
 0002:00006dd0       ??_R1A@?0A@EA@PxBVHStructure@physx@@8 0000000180129dd0     GuBVHStructure.obj
 0002:00006df8       ??_R4RefCountable@Cm@physx@@6B@ 0000000180129df8     GuBVHStructure.obj
 0002:00006e20       ??_R3RefCountable@Cm@physx@@8 0000000180129e20     GuBVHStructure.obj
 0002:00006e38       ??_R2RefCountable@Cm@physx@@8 0000000180129e38     GuBVHStructure.obj
 0002:00006e48       ??_R1A@?0A@EA@RefCountable@Cm@physx@@8 0000000180129e48     GuBVHStructure.obj
 0002:00006e70       ??_R4BVHStructure@Gu@physx@@6BPxBVHStructure@2@@ 0000000180129e70     GuBVHStructure.obj
 0002:00006e98       ??_R3BVHStructure@Gu@physx@@8 0000000180129e98     GuBVHStructure.obj
 0002:00006eb0       ??_R2BVHStructure@Gu@physx@@8 0000000180129eb0     GuBVHStructure.obj
 0002:00006ee0       ??_R1A@?0A@EA@BVHStructure@Gu@physx@@8 0000000180129ee0     GuBVHStructure.obj
 0002:00006f08       ??_R1CA@?0A@EA@UserAllocated@shdfnd@physx@@8 0000000180129f08     GuBVHStructure.obj
 0002:00006f30       ??_R1BA@?0A@EA@RefCountable@Cm@physx@@8 0000000180129f30     GuBVHStructure.obj
 0002:00006f58       ??_R4BVHStructure@Gu@physx@@6BRefCountable@Cm@2@@ 0000000180129f58     GuBVHStructure.obj
 0002:00007100       ??_R4?$RelativeConvex@VCapsuleV@Gu@physx@@@Gu@physx@@6B@ 000000018012a100     GuCCDSweepPrimitives.obj
 0002:00007128       ??_R3?$RelativeConvex@VCapsuleV@Gu@physx@@@Gu@physx@@8 000000018012a128     GuCCDSweepPrimitives.obj
 0002:00007140       ??_R2?$RelativeConvex@VCapsuleV@Gu@physx@@@Gu@physx@@8 000000018012a140     GuCCDSweepPrimitives.obj
 0002:00007160       ??_R1A@?0A@EA@?$RelativeConvex@VCapsuleV@Gu@physx@@@Gu@physx@@8 000000018012a160     GuCCDSweepPrimitives.obj
 0002:00007188       ??_R4?$RelativeConvex@VTriangleV@Gu@physx@@@Gu@physx@@6B@ 000000018012a188     GuCCDSweepPrimitives.obj
 0002:000071b0       ??_R3?$RelativeConvex@VTriangleV@Gu@physx@@@Gu@physx@@8 000000018012a1b0     GuCCDSweepPrimitives.obj
 0002:000071c8       ??_R2?$RelativeConvex@VTriangleV@Gu@physx@@@Gu@physx@@8 000000018012a1c8     GuCCDSweepPrimitives.obj
 0002:000071e8       ??_R1A@?0A@EA@?$RelativeConvex@VTriangleV@Gu@physx@@@Gu@physx@@8 000000018012a1e8     GuCCDSweepPrimitives.obj
 0002:00007398       ??_R4ConvexMeshContactGenerationCallback@@6B@ 000000018012a398     GuContactConvexMesh.obj
 0002:000073c0       ??_R3ConvexMeshContactGenerationCallback@@8 000000018012a3c0     GuContactConvexMesh.obj
 0002:000073d8       ??_R2ConvexMeshContactGenerationCallback@@8 000000018012a3d8     GuContactConvexMesh.obj
 0002:000073f0       ??_R1A@?0A@EA@ConvexMeshContactGenerationCallback@@8 000000018012a3f0     GuContactConvexMesh.obj
 0002:00007620       ??_R4PxConvexMesh@physx@@6B@ 000000018012a620     GuConvexMesh.obj
 0002:00007648       ??_R3PxConvexMesh@physx@@8 000000018012a648     GuConvexMesh.obj
 0002:00007660       ??_R2PxConvexMesh@physx@@8 000000018012a660     GuConvexMesh.obj
 0002:00007678       ??_R1A@?0A@EA@PxConvexMesh@physx@@8 000000018012a678     GuConvexMesh.obj
 0002:000076a0       ??_R4ConvexMesh@Gu@physx@@6BPxConvexMesh@2@@ 000000018012a6a0     GuConvexMesh.obj
 0002:000076c8       ??_R3ConvexMesh@Gu@physx@@8 000000018012a6c8     GuConvexMesh.obj
 0002:000076e0       ??_R2ConvexMesh@Gu@physx@@8 000000018012a6e0     GuConvexMesh.obj
 0002:00007710       ??_R1A@?0A@EA@ConvexMesh@Gu@physx@@8 000000018012a710     GuConvexMesh.obj
 0002:00007738       ??_R4ConvexMesh@Gu@physx@@6BRefCountable@Cm@2@@ 000000018012a738     GuConvexMesh.obj
 0002:00007760       ??_R4PxHeightField@physx@@6B@ 000000018012a760     GuHeightField.obj
 0002:00007788       ??_R3PxHeightField@physx@@8 000000018012a788     GuHeightField.obj
 0002:000077a0       ??_R2PxHeightField@physx@@8 000000018012a7a0     GuHeightField.obj
 0002:000077b8       ??_R1A@?0A@EA@PxHeightField@physx@@8 000000018012a7b8     GuHeightField.obj
 0002:000077e0       ??_R4HeightField@Gu@physx@@6BPxHeightField@2@@ 000000018012a7e0     GuHeightField.obj
 0002:00007808       ??_R3HeightField@Gu@physx@@8 000000018012a808     GuHeightField.obj
 0002:00007820       ??_R2HeightField@Gu@physx@@8 000000018012a820     GuHeightField.obj
 0002:00007850       ??_R1A@?0A@EA@HeightField@Gu@physx@@8 000000018012a850     GuHeightField.obj
 0002:00007878       ??_R4HeightField@Gu@physx@@6BRefCountable@Cm@2@@ 000000018012a878     GuHeightField.obj
 0002:000078a0       ??_R4HeightFieldTraceSegmentReport@@6B@ 000000018012a8a0     GuSweepsHF.obj
 0002:000078c8       ??_R3HeightFieldTraceSegmentReport@@8 000000018012a8c8     GuSweepsHF.obj
 0002:000078e0       ??_R2HeightFieldTraceSegmentReport@@8 000000018012a8e0     GuSweepsHF.obj
 0002:000078f8       ??_R1A@?0A@EA@HeightFieldTraceSegmentReport@@8 000000018012a8f8     GuSweepsHF.obj
 0002:00007920       ??_R4CapsuleTraceSegmentReport@@6B@ 000000018012a920     GuSweepsHF.obj
 0002:00007948       ??_R3CapsuleTraceSegmentReport@@8 000000018012a948     GuSweepsHF.obj
 0002:00007960       ??_R2CapsuleTraceSegmentReport@@8 000000018012a960     GuSweepsHF.obj
 0002:00007980       ??_R1A@?0A@EA@CapsuleTraceSegmentReport@@8 000000018012a980     GuSweepsHF.obj
 0002:000079a8       ??_R4ConvexTraceSegmentReport@@6B@ 000000018012a9a8     GuSweepsHF.obj
 0002:000079d0       ??_R3ConvexTraceSegmentReport@@8 000000018012a9d0     GuSweepsHF.obj
 0002:000079e8       ??_R2ConvexTraceSegmentReport@@8 000000018012a9e8     GuSweepsHF.obj
 0002:00007a08       ??_R1A@?0A@EA@ConvexTraceSegmentReport@@8 000000018012aa08     GuSweepsHF.obj
 0002:00007a30       ??_R4BoxTraceSegmentReport@@6B@ 000000018012aa30     GuSweepsHF.obj
 0002:00007a58       ??_R3BoxTraceSegmentReport@@8 000000018012aa58     GuSweepsHF.obj
 0002:00007a70       ??_R2BoxTraceSegmentReport@@8 000000018012aa70     GuSweepsHF.obj
 0002:00007a90       ??_R1A@?0A@EA@BoxTraceSegmentReport@@8 000000018012aa90     GuSweepsHF.obj
 0002:00007b40       ??_R17?0A@EA@LimitedResults@Gu@physx@@8 000000018012ab40     GuMeshQuery.obj
 0002:00007b68       ??_R3LimitedResults@Gu@physx@@8 000000018012ab68     GuMeshQuery.obj
 0002:00007b80       ??_R2LimitedResults@Gu@physx@@8 000000018012ab80     GuMeshQuery.obj
 0002:00007b90       ??_R1A@?0A@EA@LimitedResults@Gu@physx@@8 000000018012ab90     GuMeshQuery.obj
 0002:00007bb8       ??_R4Callback@RTree@Gu@physx@@6B@ 000000018012abb8     GuMidphaseRTree.obj
 0002:00007be0       ??_R3Callback@RTree@Gu@physx@@8 000000018012abe0     GuMidphaseRTree.obj
 0002:00007bf8       ??_R2Callback@RTree@Gu@physx@@8 000000018012abf8     GuMidphaseRTree.obj
 0002:00007c08       ??_R1A@?0A@EA@Callback@RTree@Gu@physx@@8 000000018012ac08     GuMidphaseRTree.obj
 0002:00007c30       ??_R4CallbackRaycast@RTree@Gu@physx@@6B@ 000000018012ac30     GuMidphaseRTree.obj
 0002:00007c58       ??_R3CallbackRaycast@RTree@Gu@physx@@8 000000018012ac58     GuMidphaseRTree.obj
 0002:00007c70       ??_R2CallbackRaycast@RTree@Gu@physx@@8 000000018012ac70     GuMidphaseRTree.obj
 0002:00007c80       ??_R1A@?0A@EA@CallbackRaycast@RTree@Gu@physx@@8 000000018012ac80     GuMidphaseRTree.obj
 0002:00007ca8       ??_R4?$RayRTreeCallback@$0A@$0A@@@6BCallbackRaycast@RTree@Gu@physx@@@ 000000018012aca8     GuMidphaseRTree.obj
 0002:00007cd0       ??_R3?$RayRTreeCallback@$0A@$0A@@@8 000000018012acd0     GuMidphaseRTree.obj
 0002:00007ce8       ??_R2?$RayRTreeCallback@$0A@$0A@@@8 000000018012ace8     GuMidphaseRTree.obj
 0002:00007d08       ??_R1A@?0A@EA@?$RayRTreeCallback@$0A@$0A@@@8 000000018012ad08     GuMidphaseRTree.obj
 0002:00007d30       ??_R17?0A@EA@Callback@RTree@Gu@physx@@8 000000018012ad30     GuMidphaseRTree.obj
 0002:00007d58       ??_R4?$RayRTreeCallback@$0A@$0A@@@6BCallback@RTree@Gu@physx@@@ 000000018012ad58     GuMidphaseRTree.obj
 0002:00007d80       ??_R4RayMeshColliderCallback@@6B@ 000000018012ad80     GuMidphaseRTree.obj
 0002:00007da8       ??_R3RayMeshColliderCallback@@8 000000018012ada8     GuMidphaseRTree.obj
 0002:00007dc0       ??_R2RayMeshColliderCallback@@8 000000018012adc0     GuMidphaseRTree.obj
 0002:00007dd8       ??_R1A@?0A@EA@RayMeshColliderCallback@@8 000000018012add8     GuMidphaseRTree.obj
 0002:00007e58       ??_R4?$RayRTreeCallback@$00$0A@@@6BCallbackRaycast@RTree@Gu@physx@@@ 000000018012ae58     GuMidphaseRTree.obj
 0002:00007e80       ??_R3?$RayRTreeCallback@$00$0A@@@8 000000018012ae80     GuMidphaseRTree.obj
 0002:00007e98       ??_R2?$RayRTreeCallback@$00$0A@@@8 000000018012ae98     GuMidphaseRTree.obj
 0002:00007eb8       ??_R1A@?0A@EA@?$RayRTreeCallback@$00$0A@@@8 000000018012aeb8     GuMidphaseRTree.obj
 0002:00007ee0       ??_R4?$RayRTreeCallback@$00$0A@@@6BCallback@RTree@Gu@physx@@@ 000000018012aee0     GuMidphaseRTree.obj
 0002:00007f08       ??_R4?$RayRTreeCallback@$0A@$00@@6BCallbackRaycast@RTree@Gu@physx@@@ 000000018012af08     GuMidphaseRTree.obj
 0002:00007f30       ??_R3?$RayRTreeCallback@$0A@$00@@8 000000018012af30     GuMidphaseRTree.obj
 0002:00007f48       ??_R2?$RayRTreeCallback@$0A@$00@@8 000000018012af48     GuMidphaseRTree.obj
 0002:00007f68       ??_R1A@?0A@EA@?$RayRTreeCallback@$0A@$00@@8 000000018012af68     GuMidphaseRTree.obj
 0002:00007f90       ??_R4?$RayRTreeCallback@$0A@$00@@6BCallback@RTree@Gu@physx@@@ 000000018012af90     GuMidphaseRTree.obj
 0002:00007fb8       ??_R4?$RayRTreeCallback@$00$00@@6BCallbackRaycast@RTree@Gu@physx@@@ 000000018012afb8     GuMidphaseRTree.obj
 0002:00007fe0       ??_R3?$RayRTreeCallback@$00$00@@8 000000018012afe0     GuMidphaseRTree.obj
 0002:00007ff8       ??_R2?$RayRTreeCallback@$00$00@@8 000000018012aff8     GuMidphaseRTree.obj
 0002:00008018       ??_R1A@?0A@EA@?$RayRTreeCallback@$00$00@@8 000000018012b018     GuMidphaseRTree.obj
 0002:00008040       ??_R4?$RayRTreeCallback@$00$00@@6BCallback@RTree@Gu@physx@@@ 000000018012b040     GuMidphaseRTree.obj
 0002:00008398       ??_R4ConvexVsMeshOverlapCallback@@6B@ 000000018012b398     GuOverlapTestsMesh.obj
 0002:000083c0       ??_R3ConvexVsMeshOverlapCallback@@8 000000018012b3c0     GuOverlapTestsMesh.obj
 0002:000083d8       ??_R2ConvexVsMeshOverlapCallback@@8 000000018012b3d8     GuOverlapTestsMesh.obj
 0002:000083f0       ??_R1A@?0A@EA@ConvexVsMeshOverlapCallback@@8 000000018012b3f0     GuOverlapTestsMesh.obj
 0002:00008418       ??_R4SweepConvexMeshHitCallback@Gu@physx@@6B@ 000000018012b418     GuSweepsMesh.obj
 0002:00008440       ??_R3SweepConvexMeshHitCallback@Gu@physx@@8 000000018012b440     GuSweepsMesh.obj
 0002:00008458       ??_R2SweepConvexMeshHitCallback@Gu@physx@@8 000000018012b458     GuSweepsMesh.obj
 0002:00008478       ??_R1A@?0A@EA@SweepConvexMeshHitCallback@Gu@physx@@8 000000018012b478     GuSweepsMesh.obj
 0002:000084a0       ??_R1A@?0A@EA@SweepShapeMeshHitCallback@Gu@physx@@8 000000018012b4a0     GuSweepsMesh.obj
 0002:000084c8       ??_R3SweepShapeMeshHitCallback@Gu@physx@@8 000000018012b4c8     GuSweepsMesh.obj
 0002:000084e0       ??_R2SweepShapeMeshHitCallback@Gu@physx@@8 000000018012b4e0     GuSweepsMesh.obj
 0002:000084f8       ??_R4SweepShapeMeshHitCallback@Gu@physx@@6B@ 000000018012b4f8     GuSweepsMesh.obj
 0002:00008520       ??_R4SweepCapsuleMeshHitCallback@Gu@physx@@6B@ 000000018012b520     GuSweepsMesh.obj
 0002:00008548       ??_R3SweepCapsuleMeshHitCallback@Gu@physx@@8 000000018012b548     GuSweepsMesh.obj
 0002:00008560       ??_R2SweepCapsuleMeshHitCallback@Gu@physx@@8 000000018012b560     GuSweepsMesh.obj
 0002:00008580       ??_R1A@?0A@EA@SweepCapsuleMeshHitCallback@Gu@physx@@8 000000018012b580     GuSweepsMesh.obj
 0002:000085a8       ??_R4SweepBoxMeshHitCallback@Gu@physx@@6B@ 000000018012b5a8     GuSweepsMesh.obj
 0002:000085d0       ??_R3SweepBoxMeshHitCallback@Gu@physx@@8 000000018012b5d0     GuSweepsMesh.obj
 0002:000085e8       ??_R2SweepBoxMeshHitCallback@Gu@physx@@8 000000018012b5e8     GuSweepsMesh.obj
 0002:00008608       ??_R1A@?0A@EA@SweepBoxMeshHitCallback@Gu@physx@@8 000000018012b608     GuSweepsMesh.obj
 0002:00008630       ??_R4PxTriangleMesh@physx@@6B@ 000000018012b630     GuTriangleMesh.obj
 0002:00008658       ??_R3PxTriangleMesh@physx@@8 000000018012b658     GuTriangleMesh.obj
 0002:00008670       ??_R2PxTriangleMesh@physx@@8 000000018012b670     GuTriangleMesh.obj
 0002:00008688       ??_R1A@?0A@EA@PxTriangleMesh@physx@@8 000000018012b688     GuTriangleMesh.obj
 0002:000086b0       ??_R4TriangleMesh@Gu@physx@@6BPxTriangleMesh@2@@ 000000018012b6b0     GuTriangleMesh.obj
 0002:000086d8       ??_R3TriangleMesh@Gu@physx@@8 000000018012b6d8     GuTriangleMesh.obj
 0002:000086f0       ??_R2TriangleMesh@Gu@physx@@8 000000018012b6f0     GuTriangleMesh.obj
 0002:00008720       ??_R1A@?0A@EA@TriangleMesh@Gu@physx@@8 000000018012b720     GuTriangleMesh.obj
 0002:00008748       ??_R4TriangleMesh@Gu@physx@@6BRefCountable@Cm@2@@ 000000018012b748     GuTriangleMesh.obj
 0002:00008770       ??_R4BV4TriangleMesh@Gu@physx@@6BPxTriangleMesh@2@@ 000000018012b770     GuTriangleMeshBV4.obj
 0002:00008798       ??_R3BV4TriangleMesh@Gu@physx@@8 000000018012b798     GuTriangleMeshBV4.obj
 0002:000087b0       ??_R2BV4TriangleMesh@Gu@physx@@8 000000018012b7b0     GuTriangleMeshBV4.obj
 0002:000087e8       ??_R1A@?0A@EA@BV4TriangleMesh@Gu@physx@@8 000000018012b7e8     GuTriangleMeshBV4.obj
 0002:00008810       ??_R4BV4TriangleMesh@Gu@physx@@6BRefCountable@Cm@2@@ 000000018012b810     GuTriangleMeshBV4.obj
 0002:00008838       ??_R4CallbackRefit@RTree@Gu@physx@@6B@ 000000018012b838     GuTriangleMeshRTree.obj
 0002:00008860       ??_R3CallbackRefit@RTree@Gu@physx@@8 000000018012b860     GuTriangleMeshRTree.obj
 0002:00008878       ??_R2CallbackRefit@RTree@Gu@physx@@8 000000018012b878     GuTriangleMeshRTree.obj
 0002:00008888       ??_R1A@?0A@EA@CallbackRefit@RTree@Gu@physx@@8 000000018012b888     GuTriangleMeshRTree.obj
 0002:000088b0       ??_R4RTreeTriangleMesh@Gu@physx@@6BPxTriangleMesh@2@@ 000000018012b8b0     GuTriangleMeshRTree.obj
 0002:000088d8       ??_R3RTreeTriangleMesh@Gu@physx@@8 000000018012b8d8     GuTriangleMeshRTree.obj
 0002:000088f0       ??_R2RTreeTriangleMesh@Gu@physx@@8 000000018012b8f0     GuTriangleMeshRTree.obj
 0002:00008928       ??_R1A@?0A@EA@RTreeTriangleMesh@Gu@physx@@8 000000018012b928     GuTriangleMeshRTree.obj
 0002:00008950       ??_R4RTreeTriangleMesh@Gu@physx@@6BRefCountable@Cm@2@@ 000000018012b950     GuTriangleMeshRTree.obj
 0002:00008978       ??_R4?$RefitCallback@G@physx@@6B@ 000000018012b978     GuTriangleMeshRTree.obj
 0002:000089a0       ??_R3?$RefitCallback@G@physx@@8 000000018012b9a0     GuTriangleMeshRTree.obj
 0002:000089b8       ??_R2?$RefitCallback@G@physx@@8 000000018012b9b8     GuTriangleMeshRTree.obj
 0002:000089d0       ??_R1A@?0A@EA@?$RefitCallback@G@physx@@8 000000018012b9d0     GuTriangleMeshRTree.obj
 0002:000089f8       ??_R4?$RefitCallback@I@physx@@6B@ 000000018012b9f8     GuTriangleMeshRTree.obj
 0002:00008a20       ??_R3?$RefitCallback@I@physx@@8 000000018012ba20     GuTriangleMeshRTree.obj
 0002:00008a38       ??_R2?$RefitCallback@I@physx@@8 000000018012ba38     GuTriangleMeshRTree.obj
 0002:00008a50       ??_R1A@?0A@EA@?$RefitCallback@I@physx@@8 000000018012ba50     GuTriangleMeshRTree.obj
 0002:00008a78       ??_R4?$LocalConvex@VConvexHullNoScaleV@Gu@physx@@@Gu@physx@@6B@ 000000018012ba78     GuPCMContactBoxConvex.obj
 0002:00008aa0       ??_R3?$LocalConvex@VConvexHullNoScaleV@Gu@physx@@@Gu@physx@@8 000000018012baa0     GuPCMContactBoxConvex.obj
 0002:00008ab8       ??_R2?$LocalConvex@VConvexHullNoScaleV@Gu@physx@@@Gu@physx@@8 000000018012bab8     GuPCMContactBoxConvex.obj
 0002:00008ad8       ??_R1A@?0A@EA@?$LocalConvex@VConvexHullNoScaleV@Gu@physx@@@Gu@physx@@8 000000018012bad8     GuPCMContactBoxConvex.obj
 0002:00008b00       ??_R4PCMCapsuleVsHeightfieldContactGenerationCallback@physx@@6B@ 000000018012bb00     GuPCMContactCapsuleHeightField.obj
 0002:00008b28       ??_R3PCMCapsuleVsHeightfieldContactGenerationCallback@physx@@8 000000018012bb28     GuPCMContactCapsuleHeightField.obj
 0002:00008b40       ??_R2PCMCapsuleVsHeightfieldContactGenerationCallback@physx@@8 000000018012bb40     GuPCMContactCapsuleHeightField.obj
 0002:00008b60       ??_R1A@?0A@EA@PCMCapsuleVsHeightfieldContactGenerationCallback@physx@@8 000000018012bb60     GuPCMContactCapsuleHeightField.obj
 0002:00008b88       ??_R1A@?0A@EA@?$PCMHeightfieldContactGenerationCallback@UPCMCapsuleVsHeightfieldContactGenerationCallback@physx@@@Gu@physx@@8 000000018012bb88     GuPCMContactCapsuleHeightField.obj
 0002:00008bb0       ??_R3?$PCMHeightfieldContactGenerationCallback@UPCMCapsuleVsHeightfieldContactGenerationCallback@physx@@@Gu@physx@@8 000000018012bbb0     GuPCMContactCapsuleHeightField.obj
 0002:00008bc8       ??_R2?$PCMHeightfieldContactGenerationCallback@UPCMCapsuleVsHeightfieldContactGenerationCallback@physx@@@Gu@physx@@8 000000018012bbc8     GuPCMContactCapsuleHeightField.obj
 0002:00008be0       ??_R4?$PCMHeightfieldContactGenerationCallback@UPCMCapsuleVsHeightfieldContactGenerationCallback@physx@@@Gu@physx@@6B@ 000000018012bbe0     GuPCMContactCapsuleHeightField.obj
 0002:00008c08       ??_R4PCMCapsuleVsMeshContactGenerationCallback@physx@@6B@ 000000018012bc08     GuPCMContactCapsuleMesh.obj
 0002:00008c30       ??_R3PCMCapsuleVsMeshContactGenerationCallback@physx@@8 000000018012bc30     GuPCMContactCapsuleMesh.obj
 0002:00008c48       ??_R2PCMCapsuleVsMeshContactGenerationCallback@physx@@8 000000018012bc48     GuPCMContactCapsuleMesh.obj
 0002:00008c68       ??_R1A@?0A@EA@PCMCapsuleVsMeshContactGenerationCallback@physx@@8 000000018012bc68     GuPCMContactCapsuleMesh.obj
 0002:00008c90       ??_R1A@?0A@EA@?$PCMMeshContactGenerationCallback@UPCMCapsuleVsMeshContactGenerationCallback@physx@@@Gu@physx@@8 000000018012bc90     GuPCMContactCapsuleMesh.obj
 0002:00008cb8       ??_R3?$PCMMeshContactGenerationCallback@UPCMCapsuleVsMeshContactGenerationCallback@physx@@@Gu@physx@@8 000000018012bcb8     GuPCMContactCapsuleMesh.obj
 0002:00008cd0       ??_R2?$PCMMeshContactGenerationCallback@UPCMCapsuleVsMeshContactGenerationCallback@physx@@@Gu@physx@@8 000000018012bcd0     GuPCMContactCapsuleMesh.obj
 0002:00008ce8       ??_R4?$SupportLocalImpl@VTriangleV@Gu@physx@@@Gu@physx@@6B@ 000000018012bce8     GuPCMContactConvexCommon.obj
 0002:00008d10       ??_R3?$SupportLocalImpl@VTriangleV@Gu@physx@@@Gu@physx@@8 000000018012bd10     GuPCMContactConvexCommon.obj
 0002:00008d28       ??_R2?$SupportLocalImpl@VTriangleV@Gu@physx@@@Gu@physx@@8 000000018012bd28     GuPCMContactConvexCommon.obj
 0002:00008d40       ??_R1A@?0A@EA@?$SupportLocalImpl@VTriangleV@Gu@physx@@@Gu@physx@@8 000000018012bd40     GuPCMContactConvexCommon.obj
 0002:00008d68       ??_R4?$RelativeConvex@VConvexHullNoScaleV@Gu@physx@@@Gu@physx@@6B@ 000000018012bd68     GuPCMContactConvexConvex.obj
 0002:00008d90       ??_R3?$RelativeConvex@VConvexHullNoScaleV@Gu@physx@@@Gu@physx@@8 000000018012bd90     GuPCMContactConvexConvex.obj
 0002:00008da8       ??_R2?$RelativeConvex@VConvexHullNoScaleV@Gu@physx@@@Gu@physx@@8 000000018012bda8     GuPCMContactConvexConvex.obj
 0002:00008dc8       ??_R1A@?0A@EA@?$RelativeConvex@VConvexHullNoScaleV@Gu@physx@@@Gu@physx@@8 000000018012bdc8     GuPCMContactConvexConvex.obj
 0002:00008df0       ??_R4PCMConvexVsHeightfieldContactGenerationCallback@physx@@6B@ 000000018012bdf0     GuPCMContactConvexHeightField.obj
 0002:00008e18       ??_R3PCMConvexVsHeightfieldContactGenerationCallback@physx@@8 000000018012be18     GuPCMContactConvexHeightField.obj
 0002:00008e30       ??_R2PCMConvexVsHeightfieldContactGenerationCallback@physx@@8 000000018012be30     GuPCMContactConvexHeightField.obj
 0002:00008e50       ??_R1A@?0A@EA@PCMConvexVsHeightfieldContactGenerationCallback@physx@@8 000000018012be50     GuPCMContactConvexHeightField.obj
 0002:00008e78       ??_R1A@?0A@EA@?$PCMHeightfieldContactGenerationCallback@UPCMConvexVsHeightfieldContactGenerationCallback@physx@@@Gu@physx@@8 000000018012be78     GuPCMContactConvexHeightField.obj
 0002:00008ea0       ??_R3?$PCMHeightfieldContactGenerationCallback@UPCMConvexVsHeightfieldContactGenerationCallback@physx@@@Gu@physx@@8 000000018012bea0     GuPCMContactConvexHeightField.obj
 0002:00008eb8       ??_R2?$PCMHeightfieldContactGenerationCallback@UPCMConvexVsHeightfieldContactGenerationCallback@physx@@@Gu@physx@@8 000000018012beb8     GuPCMContactConvexHeightField.obj
 0002:00008ed0       ??_R4?$PCMHeightfieldContactGenerationCallback@UPCMConvexVsHeightfieldContactGenerationCallback@physx@@@Gu@physx@@6B@ 000000018012bed0     GuPCMContactConvexHeightField.obj
 0002:00008ef8       ??_R4PCMConvexVsMeshContactGenerationCallback@physx@@6B@ 000000018012bef8     GuPCMContactConvexMesh.obj
 0002:00008f20       ??_R3PCMConvexVsMeshContactGenerationCallback@physx@@8 000000018012bf20     GuPCMContactConvexMesh.obj
 0002:00008f38       ??_R2PCMConvexVsMeshContactGenerationCallback@physx@@8 000000018012bf38     GuPCMContactConvexMesh.obj
 0002:00008f58       ??_R1A@?0A@EA@PCMConvexVsMeshContactGenerationCallback@physx@@8 000000018012bf58     GuPCMContactConvexMesh.obj
 0002:00008f80       ??_R1A@?0A@EA@?$PCMMeshContactGenerationCallback@UPCMConvexVsMeshContactGenerationCallback@physx@@@Gu@physx@@8 000000018012bf80     GuPCMContactConvexMesh.obj
 0002:00008fa8       ??_R3?$PCMMeshContactGenerationCallback@UPCMConvexVsMeshContactGenerationCallback@physx@@@Gu@physx@@8 000000018012bfa8     GuPCMContactConvexMesh.obj
 0002:00008fc0       ??_R2?$PCMMeshContactGenerationCallback@UPCMConvexVsMeshContactGenerationCallback@physx@@@Gu@physx@@8 000000018012bfc0     GuPCMContactConvexMesh.obj
 0002:00008fd8       ??_R4PCMSphereVsHeightfieldContactGenerationCallback@physx@@6B@ 000000018012bfd8     GuPCMContactSphereHeightField.obj
 0002:00009000       ??_R3PCMSphereVsHeightfieldContactGenerationCallback@physx@@8 000000018012c000     GuPCMContactSphereHeightField.obj
 0002:00009018       ??_R2PCMSphereVsHeightfieldContactGenerationCallback@physx@@8 000000018012c018     GuPCMContactSphereHeightField.obj
 0002:00009038       ??_R1A@?0A@EA@PCMSphereVsHeightfieldContactGenerationCallback@physx@@8 000000018012c038     GuPCMContactSphereHeightField.obj
 0002:00009060       ??_R1A@?0A@EA@?$PCMHeightfieldContactGenerationCallback@UPCMSphereVsHeightfieldContactGenerationCallback@physx@@@Gu@physx@@8 000000018012c060     GuPCMContactSphereHeightField.obj
 0002:00009088       ??_R3?$PCMHeightfieldContactGenerationCallback@UPCMSphereVsHeightfieldContactGenerationCallback@physx@@@Gu@physx@@8 000000018012c088     GuPCMContactSphereHeightField.obj
 0002:000090a0       ??_R2?$PCMHeightfieldContactGenerationCallback@UPCMSphereVsHeightfieldContactGenerationCallback@physx@@@Gu@physx@@8 000000018012c0a0     GuPCMContactSphereHeightField.obj
 0002:000090b8       ??_R4?$PCMHeightfieldContactGenerationCallback@UPCMSphereVsHeightfieldContactGenerationCallback@physx@@@Gu@physx@@6B@ 000000018012c0b8     GuPCMContactSphereHeightField.obj
 0002:000090e0       ??_R4PCMSphereVsMeshContactGenerationCallback@physx@@6B@ 000000018012c0e0     GuPCMContactSphereMesh.obj
 0002:00009108       ??_R3PCMSphereVsMeshContactGenerationCallback@physx@@8 000000018012c108     GuPCMContactSphereMesh.obj
 0002:00009120       ??_R2PCMSphereVsMeshContactGenerationCallback@physx@@8 000000018012c120     GuPCMContactSphereMesh.obj
 0002:00009140       ??_R1A@?0A@EA@PCMSphereVsMeshContactGenerationCallback@physx@@8 000000018012c140     GuPCMContactSphereMesh.obj
 0002:00009168       ??_R1A@?0A@EA@?$PCMMeshContactGenerationCallback@UPCMSphereVsMeshContactGenerationCallback@physx@@@Gu@physx@@8 000000018012c168     GuPCMContactSphereMesh.obj
 0002:00009190       ??_R3?$PCMMeshContactGenerationCallback@UPCMSphereVsMeshContactGenerationCallback@physx@@@Gu@physx@@8 000000018012c190     GuPCMContactSphereMesh.obj
 0002:000091a8       ??_R2?$PCMMeshContactGenerationCallback@UPCMSphereVsMeshContactGenerationCallback@physx@@@Gu@physx@@8 000000018012c1a8     GuPCMContactSphereMesh.obj
 0002:000091c0       ??_R4type_info@@6B@        000000018012c1c0     MSVCRT:std_type_info_static.obj
 0002:000091e8       ??_R3type_info@@8          000000018012c1e8     MSVCRT:std_type_info_static.obj
 0002:00009200       ??_R2type_info@@8          000000018012c200     MSVCRT:std_type_info_static.obj
 0002:00009210       ??_R1A@?0A@EA@type_info@@8 000000018012c210     MSVCRT:std_type_info_static.obj
 0002:00009234       __volatile_metadata        000000018012c234     <linker-defined>
 0002:00009780       __rtc_iaa                  000000018012c780     MSVCRT:initsect.obj
 0002:00009788       __rtc_izz                  000000018012c788     MSVCRT:initsect.obj
 0002:00009790       __rtc_taa                  000000018012c790     MSVCRT:initsect.obj
 0002:00009798       __rtc_tzz                  000000018012c798     MSVCRT:initsect.obj
 0002:00016050       __DELAY_IMPORT_DESCRIPTOR_physxfoundation_64_dll 0000000180139050     PhysXFoundation_64:PhysXFoundation_64.dll
 0002:00016070       __NULL_DELAY_IMPORT_DESCRIPTOR 0000000180139070     PhysXFoundation_64:PhysXFoundation_64.dll
 0002:00016110       \177PhysXFoundation_64_NULL_THUNK_DATA_DLN 0000000180139110     PhysXFoundation_64:PhysXFoundation_64.dll
 0002:00016438       \177PhysXFoundation_64_NULL_THUNK_DATA_DLB 0000000180139438     PhysXFoundation_64:PhysXFoundation_64.dll
 0002:0002059c       __IMPORT_DESCRIPTOR_KERNEL32 000000018014359c     kernel32:KERNEL32.dll
 0002:000205b0       __IMPORT_DESCRIPTOR_VCRUNTIME140 00000001801435b0     vcruntime:VCRUNTIME140.dll
 0002:000205c4       __IMPORT_DESCRIPTOR_VCRUNTIME140_1 00000001801435c4     vcruntime:VCRUNTIME140_1.dll
 0002:000205d8       __IMPORT_DESCRIPTOR_api-ms-win-crt-math-l1-1-0 00000001801435d8     ucrt:api-ms-win-crt-math-l1-1-0.dll
 0002:000205ec       __IMPORT_DESCRIPTOR_api-ms-win-crt-string-l1-1-0 00000001801435ec     ucrt:api-ms-win-crt-string-l1-1-0.dll
 0002:00020600       __IMPORT_DESCRIPTOR_api-ms-win-crt-runtime-l1-1-0 0000000180143600     ucrt:api-ms-win-crt-runtime-l1-1-0.dll
 0002:00020614       __IMPORT_DESCRIPTOR_api-ms-win-crt-heap-l1-1-0 0000000180143614     ucrt:api-ms-win-crt-heap-l1-1-0.dll
 0002:00020628       __NULL_IMPORT_DESCRIPTOR   0000000180143628     kernel32:KERNEL32.dll
 0003:00000000       __pfnDliNotifyHook2        0000000180144000     CmWindowsDelayLoadHook.obj
 0003:00000020       ?gGeomMTDMethodTable@@3PAY06P6A_NAEAVPxVec3@physx@@AEAMAEBVPxGeometry@2@AEBVPxTransform@2@23@ZA 0000000180144020     GuMTD.obj
 0003:000001b0       ?gGeomOverlapMethodTable@@3PAY06P6A_NAEBVPxGeometry@physx@@AEBVPxTransform@2@01PEAUTriggerCache@Gu@2@@ZA 00000001801441b0     GuOverlapTests.obj
 0003:00000338       ?gRaycastMap@@3PAP6AIAEBVPxGeometry@physx@@AEBVPxTransform@2@AEBVPxVec3@2@2MV?$PxFlags@W4Enum@PxHitFlag@physx@@G@2@IPEIAUPxRaycastHit@2@@ZA 0000000180144338     GuRaycastTests.obj
 0003:00000370       ?gGeomSweepFuncs@@3UGeomSweepFuncs@Gu@physx@@A 0000000180144370     GuSweepTests.obj
 0003:00000490       ?g_SweepMethodTable@Gu@physx@@3PAY06P6AMAEBUCCDShape@12@0AEBVPxTransform@2@111MAEAVPxVec3@2@2MAEAIM@ZA 0000000180144490     GuCCDSweepPrimitives.obj
 0003:00000618       ?g_TriangleSweepMethodTable@Gu@physx@@3PAP6AMAEBVGeometryUnion@12@0AEBVPxTransform@2@111MAEAVPxVec3@2@2AEBVFastVertex2ShapeScaling@Cm@2@AEAVTriangleV@12@M@ZA 0000000180144618     GuCCDSweepPrimitives.obj
 0003:00000a14       _fltused                   0000000180144a14     MSVCRT:fltused.obj
 0003:00000a20       __security_cookie          0000000180144a20     MSVCRT:gs_cookie.obj
 0003:00000a28       __security_cookie_complement 0000000180144a28     MSVCRT:gs_cookie.obj
 0003:00000a30       __isa_available            0000000180144a30     MSVCRT:cpu_disp.obj
 0003:00000a34       __isa_enabled              0000000180144a34     MSVCRT:cpu_disp.obj
 0003:00000a38       __memset_fast_string_threshold 0000000180144a38     MSVCRT:cpu_disp.obj
 0003:00000a40       __memset_nt_threshold      0000000180144a40     MSVCRT:cpu_disp.obj
 0003:00000a50       __scrt_native_dllmain_reason 0000000180144a50     MSVCRT:utility.obj
 0003:00000a60       __scrt_ucrt_dll_is_in_use  0000000180144a60     MSVCRT:ucrt_stubs.obj
 0003:00000a70       ??_R0?AVCollection@Cm@physx@@@8 0000000180144a70     CmCollection.obj
 0003:00000aa0       ??_R0D@8                   0000000180144aa0     CmRenderOutput.obj
 0003:00000ab8       ??_R0?AUPxDebugText@physx@@@8 0000000180144ab8     CmRenderOutput.obj
 0003:00000ae0       ??_R0?AUPxDebugTriangle@physx@@@8 0000000180144ae0     CmRenderOutput.obj
 0003:00000b10       ??_R0?AUPxDebugLine@physx@@@8 0000000180144b10     CmRenderOutput.obj
 0003:00000b38       ??_R0?AUPxDebugPoint@physx@@@8 0000000180144b38     CmRenderOutput.obj
 0003:00000b68       ??_R0?AVMutexImpl@shdfnd@physx@@@8 0000000180144b68     GuMeshFactory.obj
 0003:00000b98       ??_R0?AVBVHStructure@Gu@physx@@@8 0000000180144b98     GuMeshFactory.obj
 0003:00000bc8       ??_R0?AVHeightField@Gu@physx@@@8 0000000180144bc8     GuMeshFactory.obj
 0003:00000bf8       ??_R0?AVConvexMesh@Gu@physx@@@8 0000000180144bf8     GuMeshFactory.obj
 0003:00000c28       ??_R0?AVBV32Tree@Gu@physx@@@8 0000000180144c28     GuMeshFactory.obj
 0003:00000c50       ??_R0?AVBV4TriangleData@Gu@physx@@@8 0000000180144c50     GuMeshFactory.obj
 0003:00000c80       ??_R0?AVRTreeTriangleData@Gu@physx@@@8 0000000180144c80     GuMeshFactory.obj
 0003:00000cb8       ??_R0?AVBV4TriangleMesh@Gu@physx@@@8 0000000180144cb8     GuMeshFactory.obj
 0003:00000ce8       ??_R0?AVRTreeTriangleMesh@Gu@physx@@@8 0000000180144ce8     GuMeshFactory.obj
 0003:00000d20       ??_R0E@8                   0000000180144d20     GuMeshFactory.obj
 0003:00000d38       ??_R0G@8                   0000000180144d38     GuMeshFactory.obj
 0003:00000d50       ??_R0I@8                   0000000180144d50     GuMeshFactory.obj
 0003:00000d68       ??_R0PEAVGuMeshFactoryListener@physx@@@8 0000000180144d68     GuMeshFactory.obj
 0003:00000da0       ??_R0?AVAABBTreeBuildNode@Gu@physx@@@8 0000000180144da0     GuAABBTreeBuild.obj
 0003:00000dd8       ??_R0?AUSlab@NodeAllocator@Gu@physx@@@8 0000000180144dd8     GuAABBTreeBuild.obj
 0003:00000e10       ??_R0PEBUBVHNode@Gu@physx@@@8 0000000180144e10     GuBVHStructure.obj
 0003:00000e38       ??_R0?AVBigConvexData@physx@@@8 0000000180144e38     GuConvexMesh.obj
 0003:00000e68       ??_R0?AVIndTri16@Gu@physx@@@8 0000000180144e68     GuBV4.obj
 0003:00000e90       ??_R0?AVIndTri32@Gu@physx@@@8 0000000180144e90     GuBV4.obj
 0003:00000ec0       ??_R0?AU?$BVDataPackedT@VQuantizedAABB@Gu@physx@@@Gu@physx@@@8 0000000180144ec0     GuBV4Build.obj
 0003:00000f10       ??_R0?AUSlab@BV4BuildParams@@@8 0000000180144f10     GuBV4Build.obj
 0003:00000f40       ??_R0?AVAABBTreeNode@Gu@physx@@@8 0000000180144f40     GuBV4Build.obj
 0003:00000f70       ??_R0?AUBV32Data@Gu@physx@@@8 0000000180144f70     GuBV32Build.obj
 0003:00000f98       ??_R0?AUBV32Node@@@8       0000000180144f98     GuBV32Build.obj
 0003:00000fb8       ??_R0?AUSortedTriangle@Gu@physx@@@8 0000000180144fb8     GuPCMContactConvexCommon.obj
 0003:00000ff0       ??_R0?AVPxCollection@physx@@@8 0000000180144ff0     CmCollection.obj
 0003:00001020       ??_R0?AVUserAllocated@shdfnd@physx@@@8 0000000180145020     CmCollection.obj
 0003:00001058       ??_R0?AVRadixSort@Cm@physx@@@8 0000000180145058     CmRadixSort.obj
 0003:00001088       ??_R0?AVRadixSortBuffered@Cm@physx@@@8 0000000180145088     CmRadixSortBuffered.obj
 0003:000010c0       ??_R0?AVPxBase@physx@@@8   00000001801450c0     GuBounds.obj
 0003:000010e8       ??_R0?AV?$EntityReport@I@Gu@physx@@@8 00000001801450e8     GuCCTSweepTests.obj
 0003:00001200       ??_R0?AVTriangleMeshData@Gu@physx@@@8 0000000180145200     GuMeshFactory.obj
 0003:00001230       ??_R0?AVMeshDataBase@Gu@physx@@@8 0000000180145230     GuMeshFactory.obj
 0003:00001260       ??_R0?AVGuMeshFactory@physx@@@8 0000000180145260     GuMeshFactory.obj
 0003:00001290       ??_R0?AVSupportLocal@Gu@physx@@@8 0000000180145290     GuMTD.obj
 0003:000012c0       ??_R0?AV?$SupportLocalImpl@VConvexHullV@Gu@physx@@@Gu@physx@@@8 00000001801452c0     GuMTD.obj
 0003:00001310       ??_R0?AV?$SupportLocalImpl@VConvexHullNoScaleV@Gu@physx@@@Gu@physx@@@8 0000000180145310     GuMTD.obj
 0003:00001370       ??_R0?AV?$SupportLocalImpl@VBoxV@Gu@physx@@@Gu@physx@@@8 0000000180145370     GuMTD.obj
 0003:000013b8       ??_R0?AUGjkConvexBase@Gu@physx@@@8 00000001801453b8     GuMTD.obj
 0003:000013e8       ??_R0?AUGjkConvex@Gu@physx@@@8 00000001801453e8     GuMTD.obj
 0003:00001420       ??_R0?AU?$LocalConvex@VCapsuleV@Gu@physx@@@Gu@physx@@@8 0000000180145420     GuMTD.obj
 0003:00001470       ??_R0?AU?$LocalConvex@VConvexHullV@Gu@physx@@@Gu@physx@@@8 0000000180145470     GuMTD.obj
 0003:000014c0       ??_R0?AU?$RelativeConvex@VBoxV@Gu@physx@@@Gu@physx@@@8 00000001801454c0     GuOverlapTests.obj
 0003:00001510       ??_R0?AU?$RelativeConvex@VConvexHullV@Gu@physx@@@Gu@physx@@@8 0000000180145510     GuOverlapTests.obj
 0003:00001560       ??_R0?AU?$MeshHitCallback@UPxRaycastHit@physx@@@Gu@physx@@@8 0000000180145560     GuSweepMTD.obj
 0003:000015a8       ??_R0?AUMeshMTDGenerationCallback@@@8 00000001801455a8     GuSweepMTD.obj
 0003:000015d8       ??_R0?AUMidPhaseQueryLocalReport@@@8 00000001801455d8     GuSweepMTD.obj
 0003:00001608       ??_R0?AU?$LocalConvex@VBoxV@Gu@physx@@@Gu@physx@@@8 0000000180145608     GuSweepTests.obj
 0003:00001650       ??_R0?AU?$LocalConvex@VTriangleV@Gu@physx@@@Gu@physx@@@8 0000000180145650     GuSweepTests.obj
 0003:00001698       ??_R0?AVPxBVHStructure@physx@@@8 0000000180145698     GuBVHStructure.obj
 0003:000016c8       ??_R0?AVRefCountable@Cm@physx@@@8 00000001801456c8     GuBVHStructure.obj
 0003:00001800       ??_R0?AU?$RelativeConvex@VCapsuleV@Gu@physx@@@Gu@physx@@@8 0000000180145800     GuCCDSweepPrimitives.obj
 0003:00001850       ??_R0?AU?$RelativeConvex@VTriangleV@Gu@physx@@@Gu@physx@@@8 0000000180145850     GuCCDSweepPrimitives.obj
 0003:00001990       ??_R0?AUConvexMeshContactGenerationCallback@@@8 0000000180145990     GuContactConvexMesh.obj
 0003:00001b10       ??_R0?AVPxConvexMesh@physx@@@8 0000000180145b10     GuConvexMesh.obj
 0003:00001b40       ??_R0?AVPxHeightField@physx@@@8 0000000180145b40     GuHeightField.obj
 0003:00001b70       ??_R0?AVHeightFieldTraceSegmentReport@@@8 0000000180145b70     GuSweepsHF.obj
 0003:00001ba8       ??_R0?AVCapsuleTraceSegmentReport@@@8 0000000180145ba8     GuSweepsHF.obj
 0003:00001bd8       ??_R0?AVConvexTraceSegmentReport@@@8 0000000180145bd8     GuSweepsHF.obj
 0003:00001c08       ??_R0?AVBoxTraceSegmentReport@@@8 0000000180145c08     GuSweepsHF.obj
 0003:00001c78       ??_R0?AULimitedResults@Gu@physx@@@8 0000000180145c78     GuMeshQuery.obj
 0003:00001ca8       ??_R0?AUCallback@RTree@Gu@physx@@@8 0000000180145ca8     GuMidphaseRTree.obj
 0003:00001cd8       ??_R0?AUCallbackRaycast@RTree@Gu@physx@@@8 0000000180145cd8     GuMidphaseRTree.obj
 0003:00001d10       ??_R0?AU?$RayRTreeCallback@$0A@$0A@@@@8 0000000180145d10     GuMidphaseRTree.obj
 0003:00001d48       ??_R0?AURayMeshColliderCallback@@@8 0000000180145d48     GuMidphaseRTree.obj
 0003:00001dc0       ??_R0?AU?$RayRTreeCallback@$00$0A@@@@8 0000000180145dc0     GuMidphaseRTree.obj
 0003:00001df8       ??_R0?AU?$RayRTreeCallback@$0A@$00@@@8 0000000180145df8     GuMidphaseRTree.obj
 0003:00001e30       ??_R0?AU?$RayRTreeCallback@$00$00@@@8 0000000180145e30     GuMidphaseRTree.obj
 0003:00002038       ??_R0?AUConvexVsMeshOverlapCallback@@@8 0000000180146038     GuOverlapTestsMesh.obj
 0003:00002070       ??_R0?AUSweepConvexMeshHitCallback@Gu@physx@@@8 0000000180146070     GuSweepsMesh.obj
 0003:000020b0       ??_R0?AUSweepShapeMeshHitCallback@Gu@physx@@@8 00000001801460b0     GuSweepsMesh.obj
 0003:000020f0       ??_R0?AUSweepCapsuleMeshHitCallback@Gu@physx@@@8 00000001801460f0     GuSweepsMesh.obj
 0003:00002130       ??_R0?AUSweepBoxMeshHitCallback@Gu@physx@@@8 0000000180146130     GuSweepsMesh.obj
 0003:00002168       ??_R0?AVPxTriangleMesh@physx@@@8 0000000180146168     GuTriangleMesh.obj
 0003:00002198       ??_R0?AVTriangleMesh@Gu@physx@@@8 0000000180146198     GuTriangleMesh.obj
 0003:000021c8       ??_R0?AUCallbackRefit@RTree@Gu@physx@@@8 00000001801461c8     GuTriangleMeshRTree.obj
 0003:00002200       ??_R0?AU?$RefitCallback@G@physx@@@8 0000000180146200     GuTriangleMeshRTree.obj
 0003:00002230       ??_R0?AU?$RefitCallback@I@physx@@@8 0000000180146230     GuTriangleMeshRTree.obj
 0003:00002260       ??_R0?AU?$LocalConvex@VConvexHullNoScaleV@Gu@physx@@@Gu@physx@@@8 0000000180146260     GuPCMContactBoxConvex.obj
 0003:000022b0       ??_R0?AUPCMCapsuleVsHeightfieldContactGenerationCallback@physx@@@8 00000001801462b0     GuPCMContactCapsuleHeightField.obj
 0003:00002300       ??_R0?AU?$PCMHeightfieldContactGenerationCallback@UPCMCapsuleVsHeightfieldContactGenerationCallback@physx@@@Gu@physx@@@8 0000000180146300     GuPCMContactCapsuleHeightField.obj
 0003:00002390       ??_R0?AUPCMCapsuleVsMeshContactGenerationCallback@physx@@@8 0000000180146390     GuPCMContactCapsuleMesh.obj
 0003:000023e0       ??_R0?AU?$PCMMeshContactGenerationCallback@UPCMCapsuleVsMeshContactGenerationCallback@physx@@@Gu@physx@@@8 00000001801463e0     GuPCMContactCapsuleMesh.obj
 0003:00002460       ??_R0?AV?$SupportLocalImpl@VTriangleV@Gu@physx@@@Gu@physx@@@8 0000000180146460     GuPCMContactConvexCommon.obj
 0003:000024b0       ??_R0?AU?$RelativeConvex@VConvexHullNoScaleV@Gu@physx@@@Gu@physx@@@8 00000001801464b0     GuPCMContactConvexConvex.obj
 0003:00002500       ??_R0?AUPCMConvexVsHeightfieldContactGenerationCallback@physx@@@8 0000000180146500     GuPCMContactConvexHeightField.obj
 0003:00002550       ??_R0?AU?$PCMHeightfieldContactGenerationCallback@UPCMConvexVsHeightfieldContactGenerationCallback@physx@@@Gu@physx@@@8 0000000180146550     GuPCMContactConvexHeightField.obj
 0003:000025e0       ??_R0?AUPCMConvexVsMeshContactGenerationCallback@physx@@@8 00000001801465e0     GuPCMContactConvexMesh.obj
 0003:00002630       ??_R0?AU?$PCMMeshContactGenerationCallback@UPCMConvexVsMeshContactGenerationCallback@physx@@@Gu@physx@@@8 0000000180146630     GuPCMContactConvexMesh.obj
 0003:000026b0       ??_R0?AUPCMSphereVsHeightfieldContactGenerationCallback@physx@@@8 00000001801466b0     GuPCMContactSphereHeightField.obj
 0003:00002700       ??_R0?AU?$PCMHeightfieldContactGenerationCallback@UPCMSphereVsHeightfieldContactGenerationCallback@physx@@@Gu@physx@@@8 0000000180146700     GuPCMContactSphereHeightField.obj
 0003:00002790       ??_R0?AUPCMSphereVsMeshContactGenerationCallback@physx@@@8 0000000180146790     GuPCMContactSphereMesh.obj
 0003:000027e0       ??_R0?AU?$PCMMeshContactGenerationCallback@UPCMSphereVsMeshContactGenerationCallback@physx@@@Gu@physx@@@8 00000001801467e0     GuPCMContactSphereMesh.obj
 0003:00002858       ??_R0?AVtype_info@@@8      0000000180146858     MSVCRT:std_type_info_static.obj
 0003:00002878       __imp_PxGetFoundation      0000000180146878     PhysXFoundation_64:PhysXFoundation_64.dll
 0003:00002880       __imp_?deallocate@TempAllocator@shdfnd@physx@@QEAAXPEAX@Z 0000000180146880     PhysXFoundation_64:PhysXFoundation_64.dll
 0003:00002888       __imp_?getAllocator@shdfnd@physx@@YAAEAVPxAllocatorCallback@2@XZ 0000000180146888     PhysXFoundation_64:PhysXFoundation_64.dll
 0003:00002890       __imp_?getInstance@Foundation@shdfnd@physx@@SAAEAV123@XZ 0000000180146890     PhysXFoundation_64:PhysXFoundation_64.dll
 0003:00002898       __imp_?error@Foundation@shdfnd@physx@@QEAAXW4Enum@PxErrorCode@3@PEBDH1ZZ 0000000180146898     PhysXFoundation_64:PhysXFoundation_64.dll
 0003:000028a0       __imp_?vsnprintf@shdfnd@physx@@YAHPEAD_KPEBD0@Z 00000001801468a0     PhysXFoundation_64:PhysXFoundation_64.dll
 0003:000028a8       __imp_??0MutexImpl@shdfnd@physx@@QEAA@XZ 00000001801468a8     PhysXFoundation_64:PhysXFoundation_64.dll
 0003:000028b0       __imp_??1MutexImpl@shdfnd@physx@@QEAA@XZ 00000001801468b0     PhysXFoundation_64:PhysXFoundation_64.dll
 0003:000028b8       __imp_?lock@MutexImpl@shdfnd@physx@@QEAAXXZ 00000001801468b8     PhysXFoundation_64:PhysXFoundation_64.dll
 0003:000028c0       __imp_?unlock@MutexImpl@shdfnd@physx@@QEAAXXZ 00000001801468c0     PhysXFoundation_64:PhysXFoundation_64.dll
 0003:000028c8       __imp_?getSize@MutexImpl@shdfnd@physx@@SAIXZ 00000001801468c8     PhysXFoundation_64:PhysXFoundation_64.dll
 0003:000028d0       __imp_?atomicDecrement@shdfnd@physx@@YAHPECH@Z 00000001801468d0     PhysXFoundation_64:PhysXFoundation_64.dll
 0003:000028d8       __imp_?PxTransformFromSegment@physx@@YA?AVPxTransform@1@AEBVPxVec3@1@0PEAM@Z 00000001801468d8     PhysXFoundation_64:PhysXFoundation_64.dll
 0003:000028e0       __imp_?optimizeBoundingBox@shdfnd@physx@@YA?AVPxVec3@2@AEAVPxMat33@2@@Z 00000001801468e0     PhysXFoundation_64:PhysXFoundation_64.dll
 0003:000028e8       __imp_?allocate@TempAllocator@shdfnd@physx@@QEAAPEAX_KPEBDH@Z 00000001801468e8     PhysXFoundation_64:PhysXFoundation_64.dll
 0003:000028f0       __imp_?atomicIncrement@shdfnd@physx@@YAHPECH@Z 00000001801468f0     PhysXFoundation_64:PhysXFoundation_64.dll
 0003:000028f8       \177PhysXFoundation_64_NULL_THUNK_DATA_DLA 00000001801468f8     PhysXFoundation_64:PhysXFoundation_64.dll
 0003:00003690       ?boxVertexTable@physx@@3QBT__m128@@B 0000000180147690     GuConvexSupportTable.obj
 0003:000051e0       __hmod__PhysXFoundation_64_dll 00000001801491e0     PhysXFoundation_64:PhysXFoundation_64.dll
 0003:000051e8       ?DloadKernel32@@3PEAUHINSTANCE__@@EA 00000001801491e8     Delayimp:delayhlp.obj
 0003:000051f0       ?DloadAcquireSRWLockExclusive@@3P6AXPEA_K@ZEA 00000001801491f0     Delayimp:delayhlp.obj
 0003:000051f8       ?DloadReleaseSRWLockExclusive@@3P6AXPEA_K@ZEA 00000001801491f8     Delayimp:delayhlp.obj
 0003:00005200       ?DloadSrwLock@@3_KA        0000000180149200     Delayimp:delayhlp.obj
 0003:00005208       ?DloadSectionLockCount@@3KA 0000000180149208     Delayimp:delayhlp.obj
 0003:0000520c       ?DloadSectionOldProtection@@3KA 000000018014920c     Delayimp:delayhlp.obj
 0003:00005210       ?DloadSectionCommitPermanent@@3KA 0000000180149210     Delayimp:delayhlp.obj
 0003:00005220       ?__type_info_root_node@@3U__type_info_node@@A 0000000180149220     MSVCRT:tncleanup.obj
 0003:000057a4       __favor                    00000001801497a4     MSVCRT:cpu_disp.obj
 0003:000057a8       ?_OptionsStorage@?1??__local_stdio_printf_options@@9@4_KA 00000001801497a8     MSVCRT:default_local_stdio_options.obj
 0003:000057b0       ?_OptionsStorage@?1??__local_stdio_scanf_options@@9@4_KA 00000001801497b0     MSVCRT:default_local_stdio_options.obj
 0003:000057b8       __scrt_current_native_startup_state 00000001801497b8     MSVCRT:utility.obj
 0003:000057c0       __scrt_native_startup_lock 00000001801497c0     MSVCRT:utility.obj
 0003:00005800       __scrt_debugger_hook_flag  0000000180149800     MSVCRT:utility_desktop.obj
 0003:00005808       __dyn_tls_init_callback    0000000180149808     <common>
 0005:00000100       __common_ssin_reduction_data 0000000180150100     MSVCRT:svml_s_sin_data.obj
 0005:00000d00       __common_ssin_data         0000000180150d00     MSVCRT:svml_s_sin_data.obj

 entry point at        0001:0011f424

 Static symbols

 0000:ffeaa000       .debug$S                   0000000180000000     PhysXCommon_64.exp
 0000:ffeaa000       .debug$S                   0000000180000000     PhysXFoundation_64:PhysXFoundation_64.dll
 0000:ffeaa000       .debug$S                   0000000180000000     PhysXFoundation_64:PhysXFoundation_64.dll
 0000:ffeaa000       .debug$S                   0000000180000000     PhysXFoundation_64:PhysXFoundation_64.dll
 0000:ffeaa000       .debug$S                   0000000180000000     PhysXFoundation_64:PhysXFoundation_64.dll
 0000:ffeaa000       .debug$S                   0000000180000000     PhysXFoundation_64:PhysXFoundation_64.dll
 0000:ffeaa000       .debug$S                   0000000180000000     PhysXFoundation_64:PhysXFoundation_64.dll
 0000:ffeaa000       .debug$S                   0000000180000000     PhysXFoundation_64:PhysXFoundation_64.dll
 0000:ffeaa000       .debug$S                   0000000180000000     PhysXFoundation_64:PhysXFoundation_64.dll
 0000:ffeaa000       .debug$S                   0000000180000000     PhysXFoundation_64:PhysXFoundation_64.dll
 0000:ffeaa000       .debug$S                   0000000180000000     PhysXFoundation_64:PhysXFoundation_64.dll
 0000:ffeaa000       .debug$S                   0000000180000000     PhysXFoundation_64:PhysXFoundation_64.dll
 0000:ffeaa000       .debug$S                   0000000180000000     PhysXFoundation_64:PhysXFoundation_64.dll
 0000:ffeaa000       .debug$S                   0000000180000000     PhysXFoundation_64:PhysXFoundation_64.dll
 0000:ffeaa000       .debug$S                   0000000180000000     PhysXFoundation_64:PhysXFoundation_64.dll
 0000:ffeaa000       .debug$S                   0000000180000000     PhysXFoundation_64:PhysXFoundation_64.dll
 0000:ffeaa000       .debug$S                   0000000180000000     PhysXFoundation_64:PhysXFoundation_64.dll
 0000:ffeaa000       .debug$S                   0000000180000000     ucrt:api-ms-win-crt-heap-l1-1-0.dll
 0000:ffeaa000       .debug$S                   0000000180000000     ucrt:api-ms-win-crt-math-l1-1-0.dll
 0000:ffeaa000       .debug$S                   0000000180000000     ucrt:api-ms-win-crt-math-l1-1-0.dll
 0000:ffeaa000       .debug$S                   0000000180000000     ucrt:api-ms-win-crt-math-l1-1-0.dll
 0000:ffeaa000       .debug$S                   0000000180000000     ucrt:api-ms-win-crt-math-l1-1-0.dll
 0000:ffeaa000       .debug$S                   0000000180000000     ucrt:api-ms-win-crt-math-l1-1-0.dll
 0000:ffeaa000       .debug$S                   0000000180000000     ucrt:api-ms-win-crt-runtime-l1-1-0.dll
 0000:ffeaa000       .debug$S                   0000000180000000     ucrt:api-ms-win-crt-runtime-l1-1-0.dll
 0000:ffeaa000       .debug$S                   0000000180000000     ucrt:api-ms-win-crt-runtime-l1-1-0.dll
 0000:ffeaa000       .debug$S                   0000000180000000     ucrt:api-ms-win-crt-runtime-l1-1-0.dll
 0000:ffeaa000       .debug$S                   0000000180000000     ucrt:api-ms-win-crt-runtime-l1-1-0.dll
 0000:ffeaa000       .debug$S                   0000000180000000     ucrt:api-ms-win-crt-runtime-l1-1-0.dll
 0000:ffeaa000       .debug$S                   0000000180000000     ucrt:api-ms-win-crt-runtime-l1-1-0.dll
 0000:ffeaa000       .debug$S                   0000000180000000     ucrt:api-ms-win-crt-runtime-l1-1-0.dll
 0000:ffeaa000       .debug$S                   0000000180000000     ucrt:api-ms-win-crt-runtime-l1-1-0.dll
 0000:ffeaa000       .debug$S                   0000000180000000     ucrt:api-ms-win-crt-runtime-l1-1-0.dll
 0000:ffeaa000       .debug$S                   0000000180000000     ucrt:api-ms-win-crt-runtime-l1-1-0.dll
 0000:ffeaa000       .debug$S                   0000000180000000     ucrt:api-ms-win-crt-runtime-l1-1-0.dll
 0000:ffeaa000       .debug$S                   0000000180000000     ucrt:api-ms-win-crt-string-l1-1-0.dll
 0000:ffeaa000       .debug$S                   0000000180000000     kernel32:KERNEL32.dll
 0000:ffeaa000       .debug$S                   0000000180000000     kernel32:KERNEL32.dll
 0000:ffeaa000       .debug$S                   0000000180000000     kernel32:KERNEL32.dll
 0000:ffeaa000       .debug$S                   0000000180000000     kernel32:KERNEL32.dll
 0000:ffeaa000       .debug$S                   0000000180000000     kernel32:KERNEL32.dll
 0000:ffeaa000       .debug$S                   0000000180000000     kernel32:KERNEL32.dll
 0000:ffeaa000       .debug$S                   0000000180000000     kernel32:KERNEL32.dll
 0000:ffeaa000       .debug$S                   0000000180000000     kernel32:KERNEL32.dll
 0000:ffeaa000       .debug$S                   0000000180000000     kernel32:KERNEL32.dll
 0000:ffeaa000       .debug$S                   0000000180000000     kernel32:KERNEL32.dll
 0000:ffeaa000       .debug$S                   0000000180000000     kernel32:KERNEL32.dll
 0000:ffeaa000       .debug$S                   0000000180000000     kernel32:KERNEL32.dll
 0000:ffeaa000       .debug$S                   0000000180000000     kernel32:KERNEL32.dll
 0000:ffeaa000       .debug$S                   0000000180000000     kernel32:KERNEL32.dll
 0000:ffeaa000       .debug$S                   0000000180000000     kernel32:KERNEL32.dll
 0000:ffeaa000       .debug$S                   0000000180000000     kernel32:KERNEL32.dll
 0000:ffeaa000       .debug$S                   0000000180000000     kernel32:KERNEL32.dll
 0000:ffeaa000       .debug$S                   0000000180000000     kernel32:KERNEL32.dll
 0000:ffeaa000       .debug$S                   0000000180000000     kernel32:KERNEL32.dll
 0000:ffeaa000       .debug$S                   0000000180000000     kernel32:KERNEL32.dll
 0000:ffeaa000       .debug$S                   0000000180000000     kernel32:KERNEL32.dll
 0000:ffeaa000       .debug$S                   0000000180000000     kernel32:KERNEL32.dll
 0000:ffeaa000       .debug$S                   0000000180000000     kernel32:KERNEL32.dll
 0000:ffeaa000       .debug$S                   0000000180000000     kernel32:KERNEL32.dll
 0000:ffeaa000       .debug$S                   0000000180000000     kernel32:KERNEL32.dll
 0000:ffeaa000       .debug$S                   0000000180000000     kernel32:KERNEL32.dll
 0000:ffeaa000       .debug$S                   0000000180000000     vcruntime:VCRUNTIME140.dll
 0000:ffeaa000       .debug$S                   0000000180000000     vcruntime:VCRUNTIME140.dll
 0000:ffeaa000       .debug$S                   0000000180000000     vcruntime:VCRUNTIME140.dll
 0000:ffeaa000       .debug$S                   0000000180000000     vcruntime:VCRUNTIME140.dll
 0000:ffeaa000       .debug$S                   0000000180000000     vcruntime:VCRUNTIME140.dll
 0000:ffeaa000       .debug$S                   0000000180000000     vcruntime:VCRUNTIME140.dll
 0000:ffeaa000       .debug$S                   0000000180000000     vcruntime:VCRUNTIME140.dll
 0000:ffeaa000       .debug$S                   0000000180000000     vcruntime:VCRUNTIME140.dll
 0000:ffeaa000       .debug$S                   0000000180000000     vcruntime:VCRUNTIME140.dll
 0000:ffeaa000       .debug$S                   0000000180000000     vcruntime:VCRUNTIME140.dll
 0000:ffeaa000       .debug$S                   0000000180000000     vcruntime:VCRUNTIME140_1.dll
 0001:00000000       ??__EmaxFError@_VecMathTests@aos@shdfnd@physx@@YAXXZ 0000000180001000 f   GuBounds.obj
 0001:00000010       ??__EmaxV3Error@_VecMathTests@aos@shdfnd@physx@@YAXXZ 0000000180001010 f   GuBounds.obj
 0001:00000020       ??__EmaxV4Error@_VecMathTests@aos@shdfnd@physx@@YAXXZ 0000000180001020 f   GuBounds.obj
 0001:00000030       ??__EminFError@_VecMathTests@aos@shdfnd@physx@@YAXXZ 0000000180001030 f   GuBounds.obj
 0001:00000040       ??__EminV3Error@_VecMathTests@aos@shdfnd@physx@@YAXXZ 0000000180001040 f   GuBounds.obj
 0001:00000050       ??__EminV4Error@_VecMathTests@aos@shdfnd@physx@@YAXXZ 0000000180001050 f   GuBounds.obj
 0001:00000060       ??__EmaxFError@_VecMathTests@aos@shdfnd@physx@@YAXXZ 0000000180001060 f   GuBox.obj
 0001:00000070       ??__EmaxV3Error@_VecMathTests@aos@shdfnd@physx@@YAXXZ 0000000180001070 f   GuBox.obj
 0001:00000080       ??__EmaxV4Error@_VecMathTests@aos@shdfnd@physx@@YAXXZ 0000000180001080 f   GuBox.obj
 0001:00000090       ??__EminFError@_VecMathTests@aos@shdfnd@physx@@YAXXZ 0000000180001090 f   GuBox.obj
 0001:000000a0       ??__EminV3Error@_VecMathTests@aos@shdfnd@physx@@YAXXZ 00000001800010a0 f   GuBox.obj
 0001:000000b0       ??__EminV4Error@_VecMathTests@aos@shdfnd@physx@@YAXXZ 00000001800010b0 f   GuBox.obj
 0001:000000c0       ??__EmaxFError@_VecMathTests@aos@shdfnd@physx@@YAXXZ 00000001800010c0 f   GuCCTSweepTests.obj
 0001:000000d0       ??__EmaxV3Error@_VecMathTests@aos@shdfnd@physx@@YAXXZ 00000001800010d0 f   GuCCTSweepTests.obj
 0001:000000e0       ??__EmaxV4Error@_VecMathTests@aos@shdfnd@physx@@YAXXZ 00000001800010e0 f   GuCCTSweepTests.obj
 0001:000000f0       ??__EminFError@_VecMathTests@aos@shdfnd@physx@@YAXXZ 00000001800010f0 f   GuCCTSweepTests.obj
 0001:00000100       ??__EminV3Error@_VecMathTests@aos@shdfnd@physx@@YAXXZ 0000000180001100 f   GuCCTSweepTests.obj
 0001:00000110       ??__EminV4Error@_VecMathTests@aos@shdfnd@physx@@YAXXZ 0000000180001110 f   GuCCTSweepTests.obj
 0001:00000120       ??__EmaxFError@_VecMathTests@aos@shdfnd@physx@@YAXXZ 0000000180001120 f   GuGeometryQuery.obj
 0001:00000130       ??__EmaxV3Error@_VecMathTests@aos@shdfnd@physx@@YAXXZ 0000000180001130 f   GuGeometryQuery.obj
 0001:00000140       ??__EmaxV4Error@_VecMathTests@aos@shdfnd@physx@@YAXXZ 0000000180001140 f   GuGeometryQuery.obj
 0001:00000150       ??__EminFError@_VecMathTests@aos@shdfnd@physx@@YAXXZ 0000000180001150 f   GuGeometryQuery.obj
 0001:00000160       ??__EminV3Error@_VecMathTests@aos@shdfnd@physx@@YAXXZ 0000000180001160 f   GuGeometryQuery.obj
 0001:00000170       ??__EminV4Error@_VecMathTests@aos@shdfnd@physx@@YAXXZ 0000000180001170 f   GuGeometryQuery.obj
 0001:00000180       ??__EmaxFError@_VecMathTests@aos@shdfnd@physx@@YAXXZ 0000000180001180 f   GuGeometryUnion.obj
 0001:00000190       ??__EmaxV3Error@_VecMathTests@aos@shdfnd@physx@@YAXXZ 0000000180001190 f   GuGeometryUnion.obj
 0001:000001a0       ??__EmaxV4Error@_VecMathTests@aos@shdfnd@physx@@YAXXZ 00000001800011a0 f   GuGeometryUnion.obj
 0001:000001b0       ??__EminFError@_VecMathTests@aos@shdfnd@physx@@YAXXZ 00000001800011b0 f   GuGeometryUnion.obj
 0001:000001c0       ??__EminV3Error@_VecMathTests@aos@shdfnd@physx@@YAXXZ 00000001800011c0 f   GuGeometryUnion.obj
 0001:000001d0       ??__EminV4Error@_VecMathTests@aos@shdfnd@physx@@YAXXZ 00000001800011d0 f   GuGeometryUnion.obj
 0001:000001e0       ??__EmaxFError@_VecMathTests@aos@shdfnd@physx@@YAXXZ 00000001800011e0 f   GuInternal.obj
 0001:000001f0       ??__EmaxV3Error@_VecMathTests@aos@shdfnd@physx@@YAXXZ 00000001800011f0 f   GuInternal.obj
 0001:00000200       ??__EmaxV4Error@_VecMathTests@aos@shdfnd@physx@@YAXXZ 0000000180001200 f   GuInternal.obj
 0001:00000210       ??__EminFError@_VecMathTests@aos@shdfnd@physx@@YAXXZ 0000000180001210 f   GuInternal.obj
 0001:00000220       ??__EminV3Error@_VecMathTests@aos@shdfnd@physx@@YAXXZ 0000000180001220 f   GuInternal.obj
 0001:00000230       ??__EminV4Error@_VecMathTests@aos@shdfnd@physx@@YAXXZ 0000000180001230 f   GuInternal.obj
 0001:00000240       ??__EmaxFError@_VecMathTests@aos@shdfnd@physx@@YAXXZ 0000000180001240 f   GuMeshFactory.obj
 0001:00000250       ??__EmaxV3Error@_VecMathTests@aos@shdfnd@physx@@YAXXZ 0000000180001250 f   GuMeshFactory.obj
 0001:00000260       ??__EmaxV4Error@_VecMathTests@aos@shdfnd@physx@@YAXXZ 0000000180001260 f   GuMeshFactory.obj
 0001:00000270       ??__EminFError@_VecMathTests@aos@shdfnd@physx@@YAXXZ 0000000180001270 f   GuMeshFactory.obj
 0001:00000280       ??__EminV3Error@_VecMathTests@aos@shdfnd@physx@@YAXXZ 0000000180001280 f   GuMeshFactory.obj
 0001:00000290       ??__EminV4Error@_VecMathTests@aos@shdfnd@physx@@YAXXZ 0000000180001290 f   GuMeshFactory.obj
 0001:000002a0       ??__EmaxFError@_VecMathTests@aos@shdfnd@physx@@YAXXZ 00000001800012a0 f   GuMetaData.obj
 0001:000002b0       ??__EmaxV3Error@_VecMathTests@aos@shdfnd@physx@@YAXXZ 00000001800012b0 f   GuMetaData.obj
 0001:000002c0       ??__EmaxV4Error@_VecMathTests@aos@shdfnd@physx@@YAXXZ 00000001800012c0 f   GuMetaData.obj
 0001:000002d0       ??__EminFError@_VecMathTests@aos@shdfnd@physx@@YAXXZ 00000001800012d0 f   GuMetaData.obj
 0001:000002e0       ??__EminV3Error@_VecMathTests@aos@shdfnd@physx@@YAXXZ 00000001800012e0 f   GuMetaData.obj
 0001:000002f0       ??__EminV4Error@_VecMathTests@aos@shdfnd@physx@@YAXXZ 00000001800012f0 f   GuMetaData.obj
 0001:00000300       ??__EmaxFError@_VecMathTests@aos@shdfnd@physx@@YAXXZ 0000000180001300 f   GuMTD.obj
 0001:00000310       ??__EmaxV3Error@_VecMathTests@aos@shdfnd@physx@@YAXXZ 0000000180001310 f   GuMTD.obj
 0001:00000320       ??__EmaxV4Error@_VecMathTests@aos@shdfnd@physx@@YAXXZ 0000000180001320 f   GuMTD.obj
 0001:00000330       ??__EminFError@_VecMathTests@aos@shdfnd@physx@@YAXXZ 0000000180001330 f   GuMTD.obj
 0001:00000340       ??__EminV3Error@_VecMathTests@aos@shdfnd@physx@@YAXXZ 0000000180001340 f   GuMTD.obj
 0001:00000350       ??__EminV4Error@_VecMathTests@aos@shdfnd@physx@@YAXXZ 0000000180001350 f   GuMTD.obj
 0001:00000360       ??__EmaxFError@_VecMathTests@aos@shdfnd@physx@@YAXXZ 0000000180001360 f   GuOverlapTests.obj
 0001:00000370       ??__EmaxV3Error@_VecMathTests@aos@shdfnd@physx@@YAXXZ 0000000180001370 f   GuOverlapTests.obj
 0001:00000380       ??__EmaxV4Error@_VecMathTests@aos@shdfnd@physx@@YAXXZ 0000000180001380 f   GuOverlapTests.obj
 0001:00000390       ??__EminFError@_VecMathTests@aos@shdfnd@physx@@YAXXZ 0000000180001390 f   GuOverlapTests.obj
 0001:000003a0       ??__EminV3Error@_VecMathTests@aos@shdfnd@physx@@YAXXZ 00000001800013a0 f   GuOverlapTests.obj
 0001:000003b0       ??__EminV4Error@_VecMathTests@aos@shdfnd@physx@@YAXXZ 00000001800013b0 f   GuOverlapTests.obj
 0001:000003c0       ??__EmaxFError@_VecMathTests@aos@shdfnd@physx@@YAXXZ 00000001800013c0 f   GuRaycastTests.obj
 0001:000003d0       ??__EmaxV3Error@_VecMathTests@aos@shdfnd@physx@@YAXXZ 00000001800013d0 f   GuRaycastTests.obj
 0001:000003e0       ??__EmaxV4Error@_VecMathTests@aos@shdfnd@physx@@YAXXZ 00000001800013e0 f   GuRaycastTests.obj
 0001:000003f0       ??__EminFError@_VecMathTests@aos@shdfnd@physx@@YAXXZ 00000001800013f0 f   GuRaycastTests.obj
 0001:00000400       ??__EminV3Error@_VecMathTests@aos@shdfnd@physx@@YAXXZ 0000000180001400 f   GuRaycastTests.obj
 0001:00000410       ??__EminV4Error@_VecMathTests@aos@shdfnd@physx@@YAXXZ 0000000180001410 f   GuRaycastTests.obj
 0001:00000420       ??__EmaxFError@_VecMathTests@aos@shdfnd@physx@@YAXXZ 0000000180001420 f   GuSweepMTD.obj
 0001:00000430       ??__EmaxV3Error@_VecMathTests@aos@shdfnd@physx@@YAXXZ 0000000180001430 f   GuSweepMTD.obj
 0001:00000440       ??__EmaxV4Error@_VecMathTests@aos@shdfnd@physx@@YAXXZ 0000000180001440 f   GuSweepMTD.obj
 0001:00000450       ??__EminFError@_VecMathTests@aos@shdfnd@physx@@YAXXZ 0000000180001450 f   GuSweepMTD.obj
 0001:00000460       ??__EminV3Error@_VecMathTests@aos@shdfnd@physx@@YAXXZ 0000000180001460 f   GuSweepMTD.obj
 0001:00000470       ??__EminV4Error@_VecMathTests@aos@shdfnd@physx@@YAXXZ 0000000180001470 f   GuSweepMTD.obj
 0001:00000480       ??__EmaxFError@_VecMathTests@aos@shdfnd@physx@@YAXXZ 0000000180001480 f   GuSweepSharedTests.obj
 0001:00000490       ??__EmaxV3Error@_VecMathTests@aos@shdfnd@physx@@YAXXZ 0000000180001490 f   GuSweepSharedTests.obj
 0001:000004a0       ??__EmaxV4Error@_VecMathTests@aos@shdfnd@physx@@YAXXZ 00000001800014a0 f   GuSweepSharedTests.obj
 0001:000004b0       ??__EminFError@_VecMathTests@aos@shdfnd@physx@@YAXXZ 00000001800014b0 f   GuSweepSharedTests.obj
 0001:000004c0       ??__EminV3Error@_VecMathTests@aos@shdfnd@physx@@YAXXZ 00000001800014c0 f   GuSweepSharedTests.obj
 0001:000004d0       ??__EminV4Error@_VecMathTests@aos@shdfnd@physx@@YAXXZ 00000001800014d0 f   GuSweepSharedTests.obj
 0001:000004e0       ??__EmaxFError@_VecMathTests@aos@shdfnd@physx@@YAXXZ 00000001800014e0 f   GuSweepTests.obj
 0001:000004f0       ??__EmaxV3Error@_VecMathTests@aos@shdfnd@physx@@YAXXZ 00000001800014f0 f   GuSweepTests.obj
 0001:00000500       ??__EmaxV4Error@_VecMathTests@aos@shdfnd@physx@@YAXXZ 0000000180001500 f   GuSweepTests.obj
 0001:00000510       ??__EminFError@_VecMathTests@aos@shdfnd@physx@@YAXXZ 0000000180001510 f   GuSweepTests.obj
 0001:00000520       ??__EminV3Error@_VecMathTests@aos@shdfnd@physx@@YAXXZ 0000000180001520 f   GuSweepTests.obj
 0001:00000530       ??__EminV4Error@_VecMathTests@aos@shdfnd@physx@@YAXXZ 0000000180001530 f   GuSweepTests.obj
 0001:00000540       ??__EmaxFError@_VecMathTests@aos@shdfnd@physx@@YAXXZ 0000000180001540 f   GuAABBTreeBuild.obj
 0001:00000550       ??__EmaxV3Error@_VecMathTests@aos@shdfnd@physx@@YAXXZ 0000000180001550 f   GuAABBTreeBuild.obj
 0001:00000560       ??__EmaxV4Error@_VecMathTests@aos@shdfnd@physx@@YAXXZ 0000000180001560 f   GuAABBTreeBuild.obj
 0001:00000570       ??__EminFError@_VecMathTests@aos@shdfnd@physx@@YAXXZ 0000000180001570 f   GuAABBTreeBuild.obj
 0001:00000580       ??__EminV3Error@_VecMathTests@aos@shdfnd@physx@@YAXXZ 0000000180001580 f   GuAABBTreeBuild.obj
 0001:00000590       ??__EminV4Error@_VecMathTests@aos@shdfnd@physx@@YAXXZ 0000000180001590 f   GuAABBTreeBuild.obj
 0001:000005a0       ??__EmaxFError@_VecMathTests@aos@shdfnd@physx@@YAXXZ 00000001800015a0 f   GuBVHStructure.obj
 0001:000005b0       ??__EmaxV3Error@_VecMathTests@aos@shdfnd@physx@@YAXXZ 00000001800015b0 f   GuBVHStructure.obj
 0001:000005c0       ??__EmaxV4Error@_VecMathTests@aos@shdfnd@physx@@YAXXZ 00000001800015c0 f   GuBVHStructure.obj
 0001:000005d0       ??__EminFError@_VecMathTests@aos@shdfnd@physx@@YAXXZ 00000001800015d0 f   GuBVHStructure.obj
 0001:000005e0       ??__EminV3Error@_VecMathTests@aos@shdfnd@physx@@YAXXZ 00000001800015e0 f   GuBVHStructure.obj
 0001:000005f0       ??__EminV4Error@_VecMathTests@aos@shdfnd@physx@@YAXXZ 00000001800015f0 f   GuBVHStructure.obj
 0001:00000600       ??__EmaxFError@_VecMathTests@aos@shdfnd@physx@@YAXXZ 0000000180001600 f   GuCCDSweepConvexMesh.obj
 0001:00000610       ??__EmaxV3Error@_VecMathTests@aos@shdfnd@physx@@YAXXZ 0000000180001610 f   GuCCDSweepConvexMesh.obj
 0001:00000620       ??__EmaxV4Error@_VecMathTests@aos@shdfnd@physx@@YAXXZ 0000000180001620 f   GuCCDSweepConvexMesh.obj
 0001:00000630       ??__EminFError@_VecMathTests@aos@shdfnd@physx@@YAXXZ 0000000180001630 f   GuCCDSweepConvexMesh.obj
 0001:00000640       ??__EminV3Error@_VecMathTests@aos@shdfnd@physx@@YAXXZ 0000000180001640 f   GuCCDSweepConvexMesh.obj
 0001:00000650       ??__EminV4Error@_VecMathTests@aos@shdfnd@physx@@YAXXZ 0000000180001650 f   GuCCDSweepConvexMesh.obj
 0001:00000660       ??__EmaxFError@_VecMathTests@aos@shdfnd@physx@@YAXXZ 0000000180001660 f   GuCCDSweepPrimitives.obj
 0001:00000670       ??__EmaxV3Error@_VecMathTests@aos@shdfnd@physx@@YAXXZ 0000000180001670 f   GuCCDSweepPrimitives.obj
 0001:00000680       ??__EmaxV4Error@_VecMathTests@aos@shdfnd@physx@@YAXXZ 0000000180001680 f   GuCCDSweepPrimitives.obj
 0001:00000690       ??__EminFError@_VecMathTests@aos@shdfnd@physx@@YAXXZ 0000000180001690 f   GuCCDSweepPrimitives.obj
 0001:000006a0       ??__EminV3Error@_VecMathTests@aos@shdfnd@physx@@YAXXZ 00000001800016a0 f   GuCCDSweepPrimitives.obj
 0001:000006b0       ??__EminV4Error@_VecMathTests@aos@shdfnd@physx@@YAXXZ 00000001800016b0 f   GuCCDSweepPrimitives.obj
 0001:000006c0       ??__EmaxFError@_VecMathTests@aos@shdfnd@physx@@YAXXZ 00000001800016c0 f   GuBarycentricCoordinates.obj
 0001:000006d0       ??__EmaxV3Error@_VecMathTests@aos@shdfnd@physx@@YAXXZ 00000001800016d0 f   GuBarycentricCoordinates.obj
 0001:000006e0       ??__EmaxV4Error@_VecMathTests@aos@shdfnd@physx@@YAXXZ 00000001800016e0 f   GuBarycentricCoordinates.obj
 0001:000006f0       ??__EminFError@_VecMathTests@aos@shdfnd@physx@@YAXXZ 00000001800016f0 f   GuBarycentricCoordinates.obj
 0001:00000700       ??__EminV3Error@_VecMathTests@aos@shdfnd@physx@@YAXXZ 0000000180001700 f   GuBarycentricCoordinates.obj
 0001:00000710       ??__EminV4Error@_VecMathTests@aos@shdfnd@physx@@YAXXZ 0000000180001710 f   GuBarycentricCoordinates.obj
 0001:00000720       ??__EmaxFError@_VecMathTests@aos@shdfnd@physx@@YAXXZ 0000000180001720 f   GuContactBoxBox.obj
 0001:00000730       ??__EmaxV3Error@_VecMathTests@aos@shdfnd@physx@@YAXXZ 0000000180001730 f   GuContactBoxBox.obj
 0001:00000740       ??__EmaxV4Error@_VecMathTests@aos@shdfnd@physx@@YAXXZ 0000000180001740 f   GuContactBoxBox.obj
 0001:00000750       ??__EminFError@_VecMathTests@aos@shdfnd@physx@@YAXXZ 0000000180001750 f   GuContactBoxBox.obj
 0001:00000760       ??__EminV3Error@_VecMathTests@aos@shdfnd@physx@@YAXXZ 0000000180001760 f   GuContactBoxBox.obj
 0001:00000770       ??__EminV4Error@_VecMathTests@aos@shdfnd@physx@@YAXXZ 0000000180001770 f   GuContactBoxBox.obj
 0001:00000780       ??__EmaxFError@_VecMathTests@aos@shdfnd@physx@@YAXXZ 0000000180001780 f   GuContactCapsuleBox.obj
 0001:00000790       ??__EmaxV3Error@_VecMathTests@aos@shdfnd@physx@@YAXXZ 0000000180001790 f   GuContactCapsuleBox.obj
 0001:000007a0       ??__EmaxV4Error@_VecMathTests@aos@shdfnd@physx@@YAXXZ 00000001800017a0 f   GuContactCapsuleBox.obj
 0001:000007b0       ??__EminFError@_VecMathTests@aos@shdfnd@physx@@YAXXZ 00000001800017b0 f   GuContactCapsuleBox.obj
 0001:000007c0       ??__EminV3Error@_VecMathTests@aos@shdfnd@physx@@YAXXZ 00000001800017c0 f   GuContactCapsuleBox.obj
 0001:000007d0       ??__EminV4Error@_VecMathTests@aos@shdfnd@physx@@YAXXZ 00000001800017d0 f   GuContactCapsuleBox.obj
 0001:000007e0       ??__EmaxFError@_VecMathTests@aos@shdfnd@physx@@YAXXZ 00000001800017e0 f   GuContactCapsuleCapsule.obj
 0001:000007f0       ??__EmaxV3Error@_VecMathTests@aos@shdfnd@physx@@YAXXZ 00000001800017f0 f   GuContactCapsuleCapsule.obj
 0001:00000800       ??__EmaxV4Error@_VecMathTests@aos@shdfnd@physx@@YAXXZ 0000000180001800 f   GuContactCapsuleCapsule.obj
 0001:00000810       ??__EminFError@_VecMathTests@aos@shdfnd@physx@@YAXXZ 0000000180001810 f   GuContactCapsuleCapsule.obj
 0001:00000820       ??__EminV3Error@_VecMathTests@aos@shdfnd@physx@@YAXXZ 0000000180001820 f   GuContactCapsuleCapsule.obj
 0001:00000830       ??__EminV4Error@_VecMathTests@aos@shdfnd@physx@@YAXXZ 0000000180001830 f   GuContactCapsuleCapsule.obj
 0001:00000840       ??__EmaxFError@_VecMathTests@aos@shdfnd@physx@@YAXXZ 0000000180001840 f   GuContactCapsuleConvex.obj
 0001:00000850       ??__EmaxV3Error@_VecMathTests@aos@shdfnd@physx@@YAXXZ 0000000180001850 f   GuContactCapsuleConvex.obj
 0001:00000860       ??__EmaxV4Error@_VecMathTests@aos@shdfnd@physx@@YAXXZ 0000000180001860 f   GuContactCapsuleConvex.obj
 0001:00000870       ??__EminFError@_VecMathTests@aos@shdfnd@physx@@YAXXZ 0000000180001870 f   GuContactCapsuleConvex.obj
 0001:00000880       ??__EminV3Error@_VecMathTests@aos@shdfnd@physx@@YAXXZ 0000000180001880 f   GuContactCapsuleConvex.obj
 0001:00000890       ??__EminV4Error@_VecMathTests@aos@shdfnd@physx@@YAXXZ 0000000180001890 f   GuContactCapsuleConvex.obj
 0001:000008a0       ??__EmaxFError@_VecMathTests@aos@shdfnd@physx@@YAXXZ 00000001800018a0 f   GuContactCapsuleMesh.obj
 0001:000008b0       ??__EmaxV3Error@_VecMathTests@aos@shdfnd@physx@@YAXXZ 00000001800018b0 f   GuContactCapsuleMesh.obj
 0001:000008c0       ??__EmaxV4Error@_VecMathTests@aos@shdfnd@physx@@YAXXZ 00000001800018c0 f   GuContactCapsuleMesh.obj
 0001:000008d0       ??__EminFError@_VecMathTests@aos@shdfnd@physx@@YAXXZ 00000001800018d0 f   GuContactCapsuleMesh.obj
 0001:000008e0       ??__EminV3Error@_VecMathTests@aos@shdfnd@physx@@YAXXZ 00000001800018e0 f   GuContactCapsuleMesh.obj
 0001:000008f0       ??__EminV4Error@_VecMathTests@aos@shdfnd@physx@@YAXXZ 00000001800018f0 f   GuContactCapsuleMesh.obj
 0001:00000900       ??__EmaxFError@_VecMathTests@aos@shdfnd@physx@@YAXXZ 0000000180001900 f   GuContactConvexConvex.obj
 0001:00000910       ??__EmaxV3Error@_VecMathTests@aos@shdfnd@physx@@YAXXZ 0000000180001910 f   GuContactConvexConvex.obj
 0001:00000920       ??__EmaxV4Error@_VecMathTests@aos@shdfnd@physx@@YAXXZ 0000000180001920 f   GuContactConvexConvex.obj
 0001:00000930       ??__EminFError@_VecMathTests@aos@shdfnd@physx@@YAXXZ 0000000180001930 f   GuContactConvexConvex.obj
 0001:00000940       ??__EminV3Error@_VecMathTests@aos@shdfnd@physx@@YAXXZ 0000000180001940 f   GuContactConvexConvex.obj
 0001:00000950       ??__EminV4Error@_VecMathTests@aos@shdfnd@physx@@YAXXZ 0000000180001950 f   GuContactConvexConvex.obj
 0001:00000960       ??__EmaxFError@_VecMathTests@aos@shdfnd@physx@@YAXXZ 0000000180001960 f   GuContactConvexMesh.obj
 0001:00000970       ??__EmaxV3Error@_VecMathTests@aos@shdfnd@physx@@YAXXZ 0000000180001970 f   GuContactConvexMesh.obj
 0001:00000980       ??__EmaxV4Error@_VecMathTests@aos@shdfnd@physx@@YAXXZ 0000000180001980 f   GuContactConvexMesh.obj
 0001:00000990       ??__EminFError@_VecMathTests@aos@shdfnd@physx@@YAXXZ 0000000180001990 f   GuContactConvexMesh.obj
 0001:000009a0       ??__EminV3Error@_VecMathTests@aos@shdfnd@physx@@YAXXZ 00000001800019a0 f   GuContactConvexMesh.obj
 0001:000009b0       ??__EminV4Error@_VecMathTests@aos@shdfnd@physx@@YAXXZ 00000001800019b0 f   GuContactConvexMesh.obj
 0001:000009c0       ??__EmaxFError@_VecMathTests@aos@shdfnd@physx@@YAXXZ 00000001800019c0 f   GuContactPlaneBox.obj
 0001:000009d0       ??__EmaxV3Error@_VecMathTests@aos@shdfnd@physx@@YAXXZ 00000001800019d0 f   GuContactPlaneBox.obj
 0001:000009e0       ??__EmaxV4Error@_VecMathTests@aos@shdfnd@physx@@YAXXZ 00000001800019e0 f   GuContactPlaneBox.obj
 0001:000009f0       ??__EminFError@_VecMathTests@aos@shdfnd@physx@@YAXXZ 00000001800019f0 f   GuContactPlaneBox.obj
 0001:00000a00       ??__EminV3Error@_VecMathTests@aos@shdfnd@physx@@YAXXZ 0000000180001a00 f   GuContactPlaneBox.obj
 0001:00000a10       ??__EminV4Error@_VecMathTests@aos@shdfnd@physx@@YAXXZ 0000000180001a10 f   GuContactPlaneBox.obj
 0001:00000a20       ??__EmaxFError@_VecMathTests@aos@shdfnd@physx@@YAXXZ 0000000180001a20 f   GuContactPlaneCapsule.obj
 0001:00000a30       ??__EmaxV3Error@_VecMathTests@aos@shdfnd@physx@@YAXXZ 0000000180001a30 f   GuContactPlaneCapsule.obj
 0001:00000a40       ??__EmaxV4Error@_VecMathTests@aos@shdfnd@physx@@YAXXZ 0000000180001a40 f   GuContactPlaneCapsule.obj
 0001:00000a50       ??__EminFError@_VecMathTests@aos@shdfnd@physx@@YAXXZ 0000000180001a50 f   GuContactPlaneCapsule.obj
 0001:00000a60       ??__EminV3Error@_VecMathTests@aos@shdfnd@physx@@YAXXZ 0000000180001a60 f   GuContactPlaneCapsule.obj
 0001:00000a70       ??__EminV4Error@_VecMathTests@aos@shdfnd@physx@@YAXXZ 0000000180001a70 f   GuContactPlaneCapsule.obj
 0001:00000a80       ??__EmaxFError@_VecMathTests@aos@shdfnd@physx@@YAXXZ 0000000180001a80 f   GuContactPlaneConvex.obj
 0001:00000a90       ??__EmaxV3Error@_VecMathTests@aos@shdfnd@physx@@YAXXZ 0000000180001a90 f   GuContactPlaneConvex.obj
 0001:00000aa0       ??__EmaxV4Error@_VecMathTests@aos@shdfnd@physx@@YAXXZ 0000000180001aa0 f   GuContactPlaneConvex.obj
 0001:00000ab0       ??__EminFError@_VecMathTests@aos@shdfnd@physx@@YAXXZ 0000000180001ab0 f   GuContactPlaneConvex.obj
 0001:00000ac0       ??__EminV3Error@_VecMathTests@aos@shdfnd@physx@@YAXXZ 0000000180001ac0 f   GuContactPlaneConvex.obj
 0001:00000ad0       ??__EminV4Error@_VecMathTests@aos@shdfnd@physx@@YAXXZ 0000000180001ad0 f   GuContactPlaneConvex.obj
 0001:00000ae0       ??__EmaxFError@_VecMathTests@aos@shdfnd@physx@@YAXXZ 0000000180001ae0 f   GuContactSphereBox.obj
 0001:00000af0       ??__EmaxV3Error@_VecMathTests@aos@shdfnd@physx@@YAXXZ 0000000180001af0 f   GuContactSphereBox.obj
 0001:00000b00       ??__EmaxV4Error@_VecMathTests@aos@shdfnd@physx@@YAXXZ 0000000180001b00 f   GuContactSphereBox.obj
 0001:00000b10       ??__EminFError@_VecMathTests@aos@shdfnd@physx@@YAXXZ 0000000180001b10 f   GuContactSphereBox.obj
 0001:00000b20       ??__EminV3Error@_VecMathTests@aos@shdfnd@physx@@YAXXZ 0000000180001b20 f   GuContactSphereBox.obj
 0001:00000b30       ??__EminV4Error@_VecMathTests@aos@shdfnd@physx@@YAXXZ 0000000180001b30 f   GuContactSphereBox.obj
 0001:00000b40       ??__EmaxFError@_VecMathTests@aos@shdfnd@physx@@YAXXZ 0000000180001b40 f   GuContactSphereCapsule.obj
 0001:00000b50       ??__EmaxV3Error@_VecMathTests@aos@shdfnd@physx@@YAXXZ 0000000180001b50 f   GuContactSphereCapsule.obj
 0001:00000b60       ??__EmaxV4Error@_VecMathTests@aos@shdfnd@physx@@YAXXZ 0000000180001b60 f   GuContactSphereCapsule.obj
 0001:00000b70       ??__EminFError@_VecMathTests@aos@shdfnd@physx@@YAXXZ 0000000180001b70 f   GuContactSphereCapsule.obj
 0001:00000b80       ??__EminV3Error@_VecMathTests@aos@shdfnd@physx@@YAXXZ 0000000180001b80 f   GuContactSphereCapsule.obj
 0001:00000b90       ??__EminV4Error@_VecMathTests@aos@shdfnd@physx@@YAXXZ 0000000180001b90 f   GuContactSphereCapsule.obj
 0001:00000ba0       ??__EmaxFError@_VecMathTests@aos@shdfnd@physx@@YAXXZ 0000000180001ba0 f   GuContactSphereMesh.obj
 0001:00000bb0       ??__EmaxV3Error@_VecMathTests@aos@shdfnd@physx@@YAXXZ 0000000180001bb0 f   GuContactSphereMesh.obj
 0001:00000bc0       ??__EmaxV4Error@_VecMathTests@aos@shdfnd@physx@@YAXXZ 0000000180001bc0 f   GuContactSphereMesh.obj
 0001:00000bd0       ??__EminFError@_VecMathTests@aos@shdfnd@physx@@YAXXZ 0000000180001bd0 f   GuContactSphereMesh.obj
 0001:00000be0       ??__EminV3Error@_VecMathTests@aos@shdfnd@physx@@YAXXZ 0000000180001be0 f   GuContactSphereMesh.obj
 0001:00000bf0       ??__EminV4Error@_VecMathTests@aos@shdfnd@physx@@YAXXZ 0000000180001bf0 f   GuContactSphereMesh.obj
 0001:00000c00       ??__EmaxFError@_VecMathTests@aos@shdfnd@physx@@YAXXZ 0000000180001c00 f   GuContactSpherePlane.obj
 0001:00000c10       ??__EmaxV3Error@_VecMathTests@aos@shdfnd@physx@@YAXXZ 0000000180001c10 f   GuContactSpherePlane.obj
 0001:00000c20       ??__EmaxV4Error@_VecMathTests@aos@shdfnd@physx@@YAXXZ 0000000180001c20 f   GuContactSpherePlane.obj
 0001:00000c30       ??__EminFError@_VecMathTests@aos@shdfnd@physx@@YAXXZ 0000000180001c30 f   GuContactSpherePlane.obj
 0001:00000c40       ??__EminV3Error@_VecMathTests@aos@shdfnd@physx@@YAXXZ 0000000180001c40 f   GuContactSpherePlane.obj
 0001:00000c50       ??__EminV4Error@_VecMathTests@aos@shdfnd@physx@@YAXXZ 0000000180001c50 f   GuContactSpherePlane.obj
 0001:00000c60       ??__EmaxFError@_VecMathTests@aos@shdfnd@physx@@YAXXZ 0000000180001c60 f   GuContactSphereSphere.obj
 0001:00000c70       ??__EmaxV3Error@_VecMathTests@aos@shdfnd@physx@@YAXXZ 0000000180001c70 f   GuContactSphereSphere.obj
 0001:00000c80       ??__EmaxV4Error@_VecMathTests@aos@shdfnd@physx@@YAXXZ 0000000180001c80 f   GuContactSphereSphere.obj
 0001:00000c90       ??__EminFError@_VecMathTests@aos@shdfnd@physx@@YAXXZ 0000000180001c90 f   GuContactSphereSphere.obj
 0001:00000ca0       ??__EminV3Error@_VecMathTests@aos@shdfnd@physx@@YAXXZ 0000000180001ca0 f   GuContactSphereSphere.obj
 0001:00000cb0       ??__EminV4Error@_VecMathTests@aos@shdfnd@physx@@YAXXZ 0000000180001cb0 f   GuContactSphereSphere.obj
 0001:00000cc0       ??__EmaxFError@_VecMathTests@aos@shdfnd@physx@@YAXXZ 0000000180001cc0 f   GuConvexHelper.obj
 0001:00000cd0       ??__EmaxV3Error@_VecMathTests@aos@shdfnd@physx@@YAXXZ 0000000180001cd0 f   GuConvexHelper.obj
 0001:00000ce0       ??__EmaxV4Error@_VecMathTests@aos@shdfnd@physx@@YAXXZ 0000000180001ce0 f   GuConvexHelper.obj
 0001:00000cf0       ??__EminFError@_VecMathTests@aos@shdfnd@physx@@YAXXZ 0000000180001cf0 f   GuConvexHelper.obj
 0001:00000d00       ??__EminV3Error@_VecMathTests@aos@shdfnd@physx@@YAXXZ 0000000180001d00 f   GuConvexHelper.obj
 0001:00000d10       ??__EminV4Error@_VecMathTests@aos@shdfnd@physx@@YAXXZ 0000000180001d10 f   GuConvexHelper.obj
 0001:00000d20       ??__EboxVertexTable@physx@@YAXXZ 0000000180001d20 f   GuConvexSupportTable.obj
 0001:00000da0       ??__EmaxFError@_VecMathTests@aos@shdfnd@physx@@YAXXZ 0000000180001da0 f   GuConvexSupportTable.obj
 0001:00000db0       ??__EmaxV3Error@_VecMathTests@aos@shdfnd@physx@@YAXXZ 0000000180001db0 f   GuConvexSupportTable.obj
 0001:00000dc0       ??__EmaxV4Error@_VecMathTests@aos@shdfnd@physx@@YAXXZ 0000000180001dc0 f   GuConvexSupportTable.obj
 0001:00000dd0       ??__EminFError@_VecMathTests@aos@shdfnd@physx@@YAXXZ 0000000180001dd0 f   GuConvexSupportTable.obj
 0001:00000de0       ??__EminV3Error@_VecMathTests@aos@shdfnd@physx@@YAXXZ 0000000180001de0 f   GuConvexSupportTable.obj
 0001:00000df0       ??__EminV4Error@_VecMathTests@aos@shdfnd@physx@@YAXXZ 0000000180001df0 f   GuConvexSupportTable.obj
 0001:00000e00       ??__EmaxFError@_VecMathTests@aos@shdfnd@physx@@YAXXZ 0000000180001e00 f   GuConvexUtilsInternal.obj
 0001:00000e10       ??__EmaxV3Error@_VecMathTests@aos@shdfnd@physx@@YAXXZ 0000000180001e10 f   GuConvexUtilsInternal.obj
 0001:00000e20       ??__EmaxV4Error@_VecMathTests@aos@shdfnd@physx@@YAXXZ 0000000180001e20 f   GuConvexUtilsInternal.obj
 0001:00000e30       ??__EminFError@_VecMathTests@aos@shdfnd@physx@@YAXXZ 0000000180001e30 f   GuConvexUtilsInternal.obj
 0001:00000e40       ??__EminV3Error@_VecMathTests@aos@shdfnd@physx@@YAXXZ 0000000180001e40 f   GuConvexUtilsInternal.obj
 0001:00000e50       ??__EminV4Error@_VecMathTests@aos@shdfnd@physx@@YAXXZ 0000000180001e50 f   GuConvexUtilsInternal.obj
 0001:00000e60       ??__EmaxFError@_VecMathTests@aos@shdfnd@physx@@YAXXZ 0000000180001e60 f   GuDistancePointTriangle.obj
 0001:00000e70       ??__EmaxV3Error@_VecMathTests@aos@shdfnd@physx@@YAXXZ 0000000180001e70 f   GuDistancePointTriangle.obj
 0001:00000e80       ??__EmaxV4Error@_VecMathTests@aos@shdfnd@physx@@YAXXZ 0000000180001e80 f   GuDistancePointTriangle.obj
 0001:00000e90       ??__EminFError@_VecMathTests@aos@shdfnd@physx@@YAXXZ 0000000180001e90 f   GuDistancePointTriangle.obj
 0001:00000ea0       ??__EminV3Error@_VecMathTests@aos@shdfnd@physx@@YAXXZ 0000000180001ea0 f   GuDistancePointTriangle.obj
 0001:00000eb0       ??__EminV4Error@_VecMathTests@aos@shdfnd@physx@@YAXXZ 0000000180001eb0 f   GuDistancePointTriangle.obj
 0001:00000ec0       ??__EmaxFError@_VecMathTests@aos@shdfnd@physx@@YAXXZ 0000000180001ec0 f   GuDistanceSegmentSegment.obj
 0001:00000ed0       ??__EmaxV3Error@_VecMathTests@aos@shdfnd@physx@@YAXXZ 0000000180001ed0 f   GuDistanceSegmentSegment.obj
 0001:00000ee0       ??__EmaxV4Error@_VecMathTests@aos@shdfnd@physx@@YAXXZ 0000000180001ee0 f   GuDistanceSegmentSegment.obj
 0001:00000ef0       ??__EminFError@_VecMathTests@aos@shdfnd@physx@@YAXXZ 0000000180001ef0 f   GuDistanceSegmentSegment.obj
 0001:00000f00       ??__EminV3Error@_VecMathTests@aos@shdfnd@physx@@YAXXZ 0000000180001f00 f   GuDistanceSegmentSegment.obj
 0001:00000f10       ??__EminV4Error@_VecMathTests@aos@shdfnd@physx@@YAXXZ 0000000180001f10 f   GuDistanceSegmentSegment.obj
 0001:00000f20       ??__EmaxFError@_VecMathTests@aos@shdfnd@physx@@YAXXZ 0000000180001f20 f   GuDistanceSegmentTriangle.obj
 0001:00000f30       ??__EmaxV3Error@_VecMathTests@aos@shdfnd@physx@@YAXXZ 0000000180001f30 f   GuDistanceSegmentTriangle.obj
 0001:00000f40       ??__EmaxV4Error@_VecMathTests@aos@shdfnd@physx@@YAXXZ 0000000180001f40 f   GuDistanceSegmentTriangle.obj
 0001:00000f50       ??__EminFError@_VecMathTests@aos@shdfnd@physx@@YAXXZ 0000000180001f50 f   GuDistanceSegmentTriangle.obj
 0001:00000f60       ??__EminV3Error@_VecMathTests@aos@shdfnd@physx@@YAXXZ 0000000180001f60 f   GuDistanceSegmentTriangle.obj
 0001:00000f70       ??__EminV4Error@_VecMathTests@aos@shdfnd@physx@@YAXXZ 0000000180001f70 f   GuDistanceSegmentTriangle.obj
 0001:00000f80       ??__EmaxFError@_VecMathTests@aos@shdfnd@physx@@YAXXZ 0000000180001f80 f   GuEPA.obj
 0001:00000f90       ??__EmaxV3Error@_VecMathTests@aos@shdfnd@physx@@YAXXZ 0000000180001f90 f   GuEPA.obj
 0001:00000fa0       ??__EmaxV4Error@_VecMathTests@aos@shdfnd@physx@@YAXXZ 0000000180001fa0 f   GuEPA.obj
 0001:00000fb0       ??__EminFError@_VecMathTests@aos@shdfnd@physx@@YAXXZ 0000000180001fb0 f   GuEPA.obj
 0001:00000fc0       ??__EminV3Error@_VecMathTests@aos@shdfnd@physx@@YAXXZ 0000000180001fc0 f   GuEPA.obj
 0001:00000fd0       ??__EminV4Error@_VecMathTests@aos@shdfnd@physx@@YAXXZ 0000000180001fd0 f   GuEPA.obj
 0001:00000fe0       ??__EmaxFError@_VecMathTests@aos@shdfnd@physx@@YAXXZ 0000000180001fe0 f   GuGJKSimplex.obj
 0001:00000ff0       ??__EmaxV3Error@_VecMathTests@aos@shdfnd@physx@@YAXXZ 0000000180001ff0 f   GuGJKSimplex.obj
 0001:00001000       ??__EmaxV4Error@_VecMathTests@aos@shdfnd@physx@@YAXXZ 0000000180002000 f   GuGJKSimplex.obj
 0001:00001010       ??__EminFError@_VecMathTests@aos@shdfnd@physx@@YAXXZ 0000000180002010 f   GuGJKSimplex.obj
 0001:00001020       ??__EminV3Error@_VecMathTests@aos@shdfnd@physx@@YAXXZ 0000000180002020 f   GuGJKSimplex.obj
 0001:00001030       ??__EminV4Error@_VecMathTests@aos@shdfnd@physx@@YAXXZ 0000000180002030 f   GuGJKSimplex.obj
 0001:00001040       ??__EmaxFError@_VecMathTests@aos@shdfnd@physx@@YAXXZ 0000000180002040 f   GuGJKTest.obj
 0001:00001050       ??__EmaxV3Error@_VecMathTests@aos@shdfnd@physx@@YAXXZ 0000000180002050 f   GuGJKTest.obj
 0001:00001060       ??__EmaxV4Error@_VecMathTests@aos@shdfnd@physx@@YAXXZ 0000000180002060 f   GuGJKTest.obj
 0001:00001070       ??__EminFError@_VecMathTests@aos@shdfnd@physx@@YAXXZ 0000000180002070 f   GuGJKTest.obj
 0001:00001080       ??__EminV3Error@_VecMathTests@aos@shdfnd@physx@@YAXXZ 0000000180002080 f   GuGJKTest.obj
 0001:00001090       ??__EminV4Error@_VecMathTests@aos@shdfnd@physx@@YAXXZ 0000000180002090 f   GuGJKTest.obj
 0001:000010a0       ??__EmaxFError@_VecMathTests@aos@shdfnd@physx@@YAXXZ 00000001800020a0 f   GuHeightFieldUtil.obj
 0001:000010b0       ??__EmaxV3Error@_VecMathTests@aos@shdfnd@physx@@YAXXZ 00000001800020b0 f   GuHeightFieldUtil.obj
 0001:000010c0       ??__EmaxV4Error@_VecMathTests@aos@shdfnd@physx@@YAXXZ 00000001800020c0 f   GuHeightFieldUtil.obj
 0001:000010d0       ??__EminFError@_VecMathTests@aos@shdfnd@physx@@YAXXZ 00000001800020d0 f   GuHeightFieldUtil.obj
 0001:000010e0       ??__EminV3Error@_VecMathTests@aos@shdfnd@physx@@YAXXZ 00000001800020e0 f   GuHeightFieldUtil.obj
 0001:000010f0       ??__EminV4Error@_VecMathTests@aos@shdfnd@physx@@YAXXZ 00000001800020f0 f   GuHeightFieldUtil.obj
 0001:00001100       ??__EmaxFError@_VecMathTests@aos@shdfnd@physx@@YAXXZ 0000000180002100 f   GuOverlapTestsHF.obj
 0001:00001110       ??__EmaxV3Error@_VecMathTests@aos@shdfnd@physx@@YAXXZ 0000000180002110 f   GuOverlapTestsHF.obj
 0001:00001120       ??__EmaxV4Error@_VecMathTests@aos@shdfnd@physx@@YAXXZ 0000000180002120 f   GuOverlapTestsHF.obj
 0001:00001130       ??__EminFError@_VecMathTests@aos@shdfnd@physx@@YAXXZ 0000000180002130 f   GuOverlapTestsHF.obj
 0001:00001140       ??__EminV3Error@_VecMathTests@aos@shdfnd@physx@@YAXXZ 0000000180002140 f   GuOverlapTestsHF.obj
 0001:00001150       ??__EminV4Error@_VecMathTests@aos@shdfnd@physx@@YAXXZ 0000000180002150 f   GuOverlapTestsHF.obj
 0001:00001160       ??__EmaxFError@_VecMathTests@aos@shdfnd@physx@@YAXXZ 0000000180002160 f   GuSweepsHF.obj
 0001:00001170       ??__EmaxV3Error@_VecMathTests@aos@shdfnd@physx@@YAXXZ 0000000180002170 f   GuSweepsHF.obj
 0001:00001180       ??__EmaxV4Error@_VecMathTests@aos@shdfnd@physx@@YAXXZ 0000000180002180 f   GuSweepsHF.obj
 0001:00001190       ??__EminFError@_VecMathTests@aos@shdfnd@physx@@YAXXZ 0000000180002190 f   GuSweepsHF.obj
 0001:000011a0       ??__EminV3Error@_VecMathTests@aos@shdfnd@physx@@YAXXZ 00000001800021a0 f   GuSweepsHF.obj
 0001:000011b0       ??__EminV4Error@_VecMathTests@aos@shdfnd@physx@@YAXXZ 00000001800021b0 f   GuSweepsHF.obj
 0001:000011c0       ??__EmaxFError@_VecMathTests@aos@shdfnd@physx@@YAXXZ 00000001800021c0 f   GuIntersectionRayBox.obj
 0001:000011d0       ??__EmaxV3Error@_VecMathTests@aos@shdfnd@physx@@YAXXZ 00000001800021d0 f   GuIntersectionRayBox.obj
 0001:000011e0       ??__EmaxV4Error@_VecMathTests@aos@shdfnd@physx@@YAXXZ 00000001800021e0 f   GuIntersectionRayBox.obj
 0001:000011f0       ??__EminFError@_VecMathTests@aos@shdfnd@physx@@YAXXZ 00000001800021f0 f   GuIntersectionRayBox.obj
 0001:00001200       ??__EminV3Error@_VecMathTests@aos@shdfnd@physx@@YAXXZ 0000000180002200 f   GuIntersectionRayBox.obj
 0001:00001210       ??__EminV4Error@_VecMathTests@aos@shdfnd@physx@@YAXXZ 0000000180002210 f   GuIntersectionRayBox.obj
 0001:00001220       ??__EmaxFError@_VecMathTests@aos@shdfnd@physx@@YAXXZ 0000000180002220 f   GuIntersectionTriangleBox.obj
 0001:00001230       ??__EmaxV3Error@_VecMathTests@aos@shdfnd@physx@@YAXXZ 0000000180002230 f   GuIntersectionTriangleBox.obj
 0001:00001240       ??__EmaxV4Error@_VecMathTests@aos@shdfnd@physx@@YAXXZ 0000000180002240 f   GuIntersectionTriangleBox.obj
 0001:00001250       ??__EminFError@_VecMathTests@aos@shdfnd@physx@@YAXXZ 0000000180002250 f   GuIntersectionTriangleBox.obj
 0001:00001260       ??__EminV3Error@_VecMathTests@aos@shdfnd@physx@@YAXXZ 0000000180002260 f   GuIntersectionTriangleBox.obj
 0001:00001270       ??__EminV4Error@_VecMathTests@aos@shdfnd@physx@@YAXXZ 0000000180002270 f   GuIntersectionTriangleBox.obj
 0001:00001280       ??__EsignV@@YAXXZ          0000000180002280 f   GuIntersectionTriangleBox.obj
 0001:000012c0       ??__EmaxFError@_VecMathTests@aos@shdfnd@physx@@YAXXZ 00000001800022c0 f   GuBV4.obj
 0001:000012d0       ??__EmaxV3Error@_VecMathTests@aos@shdfnd@physx@@YAXXZ 00000001800022d0 f   GuBV4.obj
 0001:000012e0       ??__EmaxV4Error@_VecMathTests@aos@shdfnd@physx@@YAXXZ 00000001800022e0 f   GuBV4.obj
 0001:000012f0       ??__EminFError@_VecMathTests@aos@shdfnd@physx@@YAXXZ 00000001800022f0 f   GuBV4.obj
 0001:00001300       ??__EminV3Error@_VecMathTests@aos@shdfnd@physx@@YAXXZ 0000000180002300 f   GuBV4.obj
 0001:00001310       ??__EminV4Error@_VecMathTests@aos@shdfnd@physx@@YAXXZ 0000000180002310 f   GuBV4.obj
 0001:00001320       ??__EmaxFError@_VecMathTests@aos@shdfnd@physx@@YAXXZ 0000000180002320 f   GuBV4Build.obj
 0001:00001330       ??__EmaxV3Error@_VecMathTests@aos@shdfnd@physx@@YAXXZ 0000000180002330 f   GuBV4Build.obj
 0001:00001340       ??__EmaxV4Error@_VecMathTests@aos@shdfnd@physx@@YAXXZ 0000000180002340 f   GuBV4Build.obj
 0001:00001350       ??__EminFError@_VecMathTests@aos@shdfnd@physx@@YAXXZ 0000000180002350 f   GuBV4Build.obj
 0001:00001360       ??__EminV3Error@_VecMathTests@aos@shdfnd@physx@@YAXXZ 0000000180002360 f   GuBV4Build.obj
 0001:00001370       ??__EminV4Error@_VecMathTests@aos@shdfnd@physx@@YAXXZ 0000000180002370 f   GuBV4Build.obj
 0001:00001380       ??__EepsFloat4@?A0x88741555@@YAXXZ 0000000180002380 f   GuBV4_AABBSweep.obj
 0001:00001390       ??__EepsInflateFloat4@?A0x88741555@@YAXXZ 0000000180002390 f   GuBV4_AABBSweep.obj
 0001:000013a0       ??__EmaxFError@_VecMathTests@aos@shdfnd@physx@@YAXXZ 00000001800023a0 f   GuBV4_AABBSweep.obj
 0001:000013b0       ??__EmaxV3Error@_VecMathTests@aos@shdfnd@physx@@YAXXZ 00000001800023b0 f   GuBV4_AABBSweep.obj
 0001:000013c0       ??__EmaxV4Error@_VecMathTests@aos@shdfnd@physx@@YAXXZ 00000001800023c0 f   GuBV4_AABBSweep.obj
 0001:000013d0       ??__EminFError@_VecMathTests@aos@shdfnd@physx@@YAXXZ 00000001800023d0 f   GuBV4_AABBSweep.obj
 0001:000013e0       ??__EminV3Error@_VecMathTests@aos@shdfnd@physx@@YAXXZ 00000001800023e0 f   GuBV4_AABBSweep.obj
 0001:000013f0       ??__EminV4Error@_VecMathTests@aos@shdfnd@physx@@YAXXZ 00000001800023f0 f   GuBV4_AABBSweep.obj
 0001:00001400       ??__EsignMask@?A0x88741555@@YAXXZ 0000000180002400 f   GuBV4_AABBSweep.obj
 0001:00001440       ??__Etwos@?A0x88741555@@YAXXZ 0000000180002440 f   GuBV4_AABBSweep.obj
 0001:00001450       ??__Ezeroes@?A0x88741555@@YAXXZ 0000000180002450 f   GuBV4_AABBSweep.obj
 0001:00001460       ??__EmaxFError@_VecMathTests@aos@shdfnd@physx@@YAXXZ 0000000180002460 f   GuBV4_BoxOverlap.obj
 0001:00001470       ??__EmaxV3Error@_VecMathTests@aos@shdfnd@physx@@YAXXZ 0000000180002470 f   GuBV4_BoxOverlap.obj
 0001:00001480       ??__EmaxV4Error@_VecMathTests@aos@shdfnd@physx@@YAXXZ 0000000180002480 f   GuBV4_BoxOverlap.obj
 0001:00001490       ??__EminFError@_VecMathTests@aos@shdfnd@physx@@YAXXZ 0000000180002490 f   GuBV4_BoxOverlap.obj
 0001:000014a0       ??__EminV3Error@_VecMathTests@aos@shdfnd@physx@@YAXXZ 00000001800024a0 f   GuBV4_BoxOverlap.obj
 0001:000014b0       ??__EminV4Error@_VecMathTests@aos@shdfnd@physx@@YAXXZ 00000001800024b0 f   GuBV4_BoxOverlap.obj
 0001:000014c0       ??__EmaxFError@_VecMathTests@aos@shdfnd@physx@@YAXXZ 00000001800024c0 f   GuBV4_CapsuleSweep.obj
 0001:000014d0       ??__EmaxV3Error@_VecMathTests@aos@shdfnd@physx@@YAXXZ 00000001800024d0 f   GuBV4_CapsuleSweep.obj
 0001:000014e0       ??__EmaxV4Error@_VecMathTests@aos@shdfnd@physx@@YAXXZ 00000001800024e0 f   GuBV4_CapsuleSweep.obj
 0001:000014f0       ??__EminFError@_VecMathTests@aos@shdfnd@physx@@YAXXZ 00000001800024f0 f   GuBV4_CapsuleSweep.obj
 0001:00001500       ??__EminV3Error@_VecMathTests@aos@shdfnd@physx@@YAXXZ 0000000180002500 f   GuBV4_CapsuleSweep.obj
 0001:00001510       ??__EminV4Error@_VecMathTests@aos@shdfnd@physx@@YAXXZ 0000000180002510 f   GuBV4_CapsuleSweep.obj
 0001:00001520       ??__EepsFloat4@?A0x32830d07@@YAXXZ 0000000180002520 f   GuBV4_CapsuleSweepAA.obj
 0001:00001530       ??__EepsInflateFloat4@?A0x32830d07@@YAXXZ 0000000180002530 f   GuBV4_CapsuleSweepAA.obj
 0001:00001540       ??__EmaxFError@_VecMathTests@aos@shdfnd@physx@@YAXXZ 0000000180002540 f   GuBV4_CapsuleSweepAA.obj
 0001:00001550       ??__EmaxV3Error@_VecMathTests@aos@shdfnd@physx@@YAXXZ 0000000180002550 f   GuBV4_CapsuleSweepAA.obj
 0001:00001560       ??__EmaxV4Error@_VecMathTests@aos@shdfnd@physx@@YAXXZ 0000000180002560 f   GuBV4_CapsuleSweepAA.obj
 0001:00001570       ??__EminFError@_VecMathTests@aos@shdfnd@physx@@YAXXZ 0000000180002570 f   GuBV4_CapsuleSweepAA.obj
 0001:00001580       ??__EminV3Error@_VecMathTests@aos@shdfnd@physx@@YAXXZ 0000000180002580 f   GuBV4_CapsuleSweepAA.obj
 0001:00001590       ??__EminV4Error@_VecMathTests@aos@shdfnd@physx@@YAXXZ 0000000180002590 f   GuBV4_CapsuleSweepAA.obj
 0001:000015a0       ??__EsignMask@?A0x32830d07@@YAXXZ 00000001800025a0 f   GuBV4_CapsuleSweepAA.obj
 0001:000015e0       ??__Etwos@?A0x32830d07@@YAXXZ 00000001800025e0 f   GuBV4_CapsuleSweepAA.obj
 0001:000015f0       ??__Ezeroes@?A0x32830d07@@YAXXZ 00000001800025f0 f   GuBV4_CapsuleSweepAA.obj
 0001:00001600       ??__EmaxFError@_VecMathTests@aos@shdfnd@physx@@YAXXZ 0000000180002600 f   GuBV4_OBBSweep.obj
 0001:00001610       ??__EmaxV3Error@_VecMathTests@aos@shdfnd@physx@@YAXXZ 0000000180002610 f   GuBV4_OBBSweep.obj
 0001:00001620       ??__EmaxV4Error@_VecMathTests@aos@shdfnd@physx@@YAXXZ 0000000180002620 f   GuBV4_OBBSweep.obj
 0001:00001630       ??__EminFError@_VecMathTests@aos@shdfnd@physx@@YAXXZ 0000000180002630 f   GuBV4_OBBSweep.obj
 0001:00001640       ??__EminV3Error@_VecMathTests@aos@shdfnd@physx@@YAXXZ 0000000180002640 f   GuBV4_OBBSweep.obj
 0001:00001650       ??__EminV4Error@_VecMathTests@aos@shdfnd@physx@@YAXXZ 0000000180002650 f   GuBV4_OBBSweep.obj
 0001:00001660       ??__EepsFloat4@?A0x18f35fa8@@YAXXZ 0000000180002660 f   GuBV4_Raycast.obj
 0001:00001670       ??__EepsInflateFloat4@?A0x18f35fa8@@YAXXZ 0000000180002670 f   GuBV4_Raycast.obj
 0001:00001680       ??__EmaxFError@_VecMathTests@aos@shdfnd@physx@@YAXXZ 0000000180002680 f   GuBV4_Raycast.obj
 0001:00001690       ??__EmaxV3Error@_VecMathTests@aos@shdfnd@physx@@YAXXZ 0000000180002690 f   GuBV4_Raycast.obj
 0001:000016a0       ??__EmaxV4Error@_VecMathTests@aos@shdfnd@physx@@YAXXZ 00000001800026a0 f   GuBV4_Raycast.obj
 0001:000016b0       ??__EminFError@_VecMathTests@aos@shdfnd@physx@@YAXXZ 00000001800026b0 f   GuBV4_Raycast.obj
 0001:000016c0       ??__EminV3Error@_VecMathTests@aos@shdfnd@physx@@YAXXZ 00000001800026c0 f   GuBV4_Raycast.obj
 0001:000016d0       ??__EminV4Error@_VecMathTests@aos@shdfnd@physx@@YAXXZ 00000001800026d0 f   GuBV4_Raycast.obj
 0001:000016e0       ??__EsignMask@?A0x18f35fa8@@YAXXZ 00000001800026e0 f   GuBV4_Raycast.obj
 0001:00001720       ??__Etwos@?A0x18f35fa8@@YAXXZ 0000000180002720 f   GuBV4_Raycast.obj
 0001:00001730       ??__Ezeroes@?A0x18f35fa8@@YAXXZ 0000000180002730 f   GuBV4_Raycast.obj
 0001:00001740       ??__EmaxFError@_VecMathTests@aos@shdfnd@physx@@YAXXZ 0000000180002740 f   GuBV4_SphereOverlap.obj
 0001:00001750       ??__EmaxV3Error@_VecMathTests@aos@shdfnd@physx@@YAXXZ 0000000180002750 f   GuBV4_SphereOverlap.obj
 0001:00001760       ??__EmaxV4Error@_VecMathTests@aos@shdfnd@physx@@YAXXZ 0000000180002760 f   GuBV4_SphereOverlap.obj
 0001:00001770       ??__EminFError@_VecMathTests@aos@shdfnd@physx@@YAXXZ 0000000180002770 f   GuBV4_SphereOverlap.obj
 0001:00001780       ??__EminV3Error@_VecMathTests@aos@shdfnd@physx@@YAXXZ 0000000180002780 f   GuBV4_SphereOverlap.obj
 0001:00001790       ??__EminV4Error@_VecMathTests@aos@shdfnd@physx@@YAXXZ 0000000180002790 f   GuBV4_SphereOverlap.obj
 0001:000017a0       ??__EepsFloat4@?A0x15a61aae@@YAXXZ 00000001800027a0 f   GuBV4_SphereSweep.obj
 0001:000017b0       ??__EepsInflateFloat4@?A0x15a61aae@@YAXXZ 00000001800027b0 f   GuBV4_SphereSweep.obj
 0001:000017c0       ??__EmaxFError@_VecMathTests@aos@shdfnd@physx@@YAXXZ 00000001800027c0 f   GuBV4_SphereSweep.obj
 0001:000017d0       ??__EmaxV3Error@_VecMathTests@aos@shdfnd@physx@@YAXXZ 00000001800027d0 f   GuBV4_SphereSweep.obj
 0001:000017e0       ??__EmaxV4Error@_VecMathTests@aos@shdfnd@physx@@YAXXZ 00000001800027e0 f   GuBV4_SphereSweep.obj
 0001:000017f0       ??__EminFError@_VecMathTests@aos@shdfnd@physx@@YAXXZ 00000001800027f0 f   GuBV4_SphereSweep.obj
 0001:00001800       ??__EminV3Error@_VecMathTests@aos@shdfnd@physx@@YAXXZ 0000000180002800 f   GuBV4_SphereSweep.obj
 0001:00001810       ??__EminV4Error@_VecMathTests@aos@shdfnd@physx@@YAXXZ 0000000180002810 f   GuBV4_SphereSweep.obj
 0001:00001820       ??__EsignMask@?A0x15a61aae@@YAXXZ 0000000180002820 f   GuBV4_SphereSweep.obj
 0001:00001860       ??__Etwos@?A0x15a61aae@@YAXXZ 0000000180002860 f   GuBV4_SphereSweep.obj
 0001:00001870       ??__Ezeroes@?A0x15a61aae@@YAXXZ 0000000180002870 f   GuBV4_SphereSweep.obj
 0001:00001880       ??__EmaxFError@_VecMathTests@aos@shdfnd@physx@@YAXXZ 0000000180002880 f   GuMidphaseBV4.obj
 0001:00001890       ??__EmaxV3Error@_VecMathTests@aos@shdfnd@physx@@YAXXZ 0000000180002890 f   GuMidphaseBV4.obj
 0001:000018a0       ??__EmaxV4Error@_VecMathTests@aos@shdfnd@physx@@YAXXZ 00000001800028a0 f   GuMidphaseBV4.obj
 0001:000018b0       ??__EminFError@_VecMathTests@aos@shdfnd@physx@@YAXXZ 00000001800028b0 f   GuMidphaseBV4.obj
 0001:000018c0       ??__EminV3Error@_VecMathTests@aos@shdfnd@physx@@YAXXZ 00000001800028c0 f   GuMidphaseBV4.obj
 0001:000018d0       ??__EminV4Error@_VecMathTests@aos@shdfnd@physx@@YAXXZ 00000001800028d0 f   GuMidphaseBV4.obj
 0001:000018e0       ??__EmaxFError@_VecMathTests@aos@shdfnd@physx@@YAXXZ 00000001800028e0 f   GuMeshQuery.obj
 0001:000018f0       ??__EmaxV3Error@_VecMathTests@aos@shdfnd@physx@@YAXXZ 00000001800028f0 f   GuMeshQuery.obj
 0001:00001900       ??__EmaxV4Error@_VecMathTests@aos@shdfnd@physx@@YAXXZ 0000000180002900 f   GuMeshQuery.obj
 0001:00001910       ??__EminFError@_VecMathTests@aos@shdfnd@physx@@YAXXZ 0000000180002910 f   GuMeshQuery.obj
 0001:00001920       ??__EminV3Error@_VecMathTests@aos@shdfnd@physx@@YAXXZ 0000000180002920 f   GuMeshQuery.obj
 0001:00001930       ??__EminV4Error@_VecMathTests@aos@shdfnd@physx@@YAXXZ 0000000180002930 f   GuMeshQuery.obj
 0001:00001940       ??__EmaxFError@_VecMathTests@aos@shdfnd@physx@@YAXXZ 0000000180002940 f   GuMidphaseRTree.obj
 0001:00001950       ??__EmaxV3Error@_VecMathTests@aos@shdfnd@physx@@YAXXZ 0000000180002950 f   GuMidphaseRTree.obj
 0001:00001960       ??__EmaxV4Error@_VecMathTests@aos@shdfnd@physx@@YAXXZ 0000000180002960 f   GuMidphaseRTree.obj
 0001:00001970       ??__EminFError@_VecMathTests@aos@shdfnd@physx@@YAXXZ 0000000180002970 f   GuMidphaseRTree.obj
 0001:00001980       ??__EminV3Error@_VecMathTests@aos@shdfnd@physx@@YAXXZ 0000000180002980 f   GuMidphaseRTree.obj
 0001:00001990       ??__EminV4Error@_VecMathTests@aos@shdfnd@physx@@YAXXZ 0000000180002990 f   GuMidphaseRTree.obj
 0001:000019a0       ??__EmaxFError@_VecMathTests@aos@shdfnd@physx@@YAXXZ 00000001800029a0 f   GuOverlapTestsMesh.obj
 0001:000019b0       ??__EmaxV3Error@_VecMathTests@aos@shdfnd@physx@@YAXXZ 00000001800029b0 f   GuOverlapTestsMesh.obj
 0001:000019c0       ??__EmaxV4Error@_VecMathTests@aos@shdfnd@physx@@YAXXZ 00000001800029c0 f   GuOverlapTestsMesh.obj
 0001:000019d0       ??__EminFError@_VecMathTests@aos@shdfnd@physx@@YAXXZ 00000001800029d0 f   GuOverlapTestsMesh.obj
 0001:000019e0       ??__EminV3Error@_VecMathTests@aos@shdfnd@physx@@YAXXZ 00000001800029e0 f   GuOverlapTestsMesh.obj
 0001:000019f0       ??__EminV4Error@_VecMathTests@aos@shdfnd@physx@@YAXXZ 00000001800029f0 f   GuOverlapTestsMesh.obj
 0001:00001a00       ??__EmaxFError@_VecMathTests@aos@shdfnd@physx@@YAXXZ 0000000180002a00 f   GuRTree.obj
 0001:00001a10       ??__EmaxV3Error@_VecMathTests@aos@shdfnd@physx@@YAXXZ 0000000180002a10 f   GuRTree.obj
 0001:00001a20       ??__EmaxV4Error@_VecMathTests@aos@shdfnd@physx@@YAXXZ 0000000180002a20 f   GuRTree.obj
 0001:00001a30       ??__EminFError@_VecMathTests@aos@shdfnd@physx@@YAXXZ 0000000180002a30 f   GuRTree.obj
 0001:00001a40       ??__EminV3Error@_VecMathTests@aos@shdfnd@physx@@YAXXZ 0000000180002a40 f   GuRTree.obj
 0001:00001a50       ??__EminV4Error@_VecMathTests@aos@shdfnd@physx@@YAXXZ 0000000180002a50 f   GuRTree.obj
 0001:00001a60       ??__EepsFloat4@?A0xdf1338be@@YAXXZ 0000000180002a60 f   GuRTreeQueries.obj
 0001:00001a70       ??__EepsInflateFloat4@?A0xdf1338be@@YAXXZ 0000000180002a70 f   GuRTreeQueries.obj
 0001:00001a80       ??__EmaxFError@_VecMathTests@aos@shdfnd@physx@@YAXXZ 0000000180002a80 f   GuRTreeQueries.obj
 0001:00001a90       ??__EmaxV3Error@_VecMathTests@aos@shdfnd@physx@@YAXXZ 0000000180002a90 f   GuRTreeQueries.obj
 0001:00001aa0       ??__EmaxV4Error@_VecMathTests@aos@shdfnd@physx@@YAXXZ 0000000180002aa0 f   GuRTreeQueries.obj
 0001:00001ab0       ??__EminFError@_VecMathTests@aos@shdfnd@physx@@YAXXZ 0000000180002ab0 f   GuRTreeQueries.obj
 0001:00001ac0       ??__EminV3Error@_VecMathTests@aos@shdfnd@physx@@YAXXZ 0000000180002ac0 f   GuRTreeQueries.obj
 0001:00001ad0       ??__EminV4Error@_VecMathTests@aos@shdfnd@physx@@YAXXZ 0000000180002ad0 f   GuRTreeQueries.obj
 0001:00001ae0       ??__EsignMask@?A0xdf1338be@@YAXXZ 0000000180002ae0 f   GuRTreeQueries.obj
 0001:00001b20       ??__Etwos@?A0xdf1338be@@YAXXZ 0000000180002b20 f   GuRTreeQueries.obj
 0001:00001b30       ??__Ezeroes@?A0xdf1338be@@YAXXZ 0000000180002b30 f   GuRTreeQueries.obj
 0001:00001b40       ??__EmaxFError@_VecMathTests@aos@shdfnd@physx@@YAXXZ 0000000180002b40 f   GuSweepsMesh.obj
 0001:00001b50       ??__EmaxV3Error@_VecMathTests@aos@shdfnd@physx@@YAXXZ 0000000180002b50 f   GuSweepsMesh.obj
 0001:00001b60       ??__EmaxV4Error@_VecMathTests@aos@shdfnd@physx@@YAXXZ 0000000180002b60 f   GuSweepsMesh.obj
 0001:00001b70       ??__EminFError@_VecMathTests@aos@shdfnd@physx@@YAXXZ 0000000180002b70 f   GuSweepsMesh.obj
 0001:00001b80       ??__EminV3Error@_VecMathTests@aos@shdfnd@physx@@YAXXZ 0000000180002b80 f   GuSweepsMesh.obj
 0001:00001b90       ??__EminV4Error@_VecMathTests@aos@shdfnd@physx@@YAXXZ 0000000180002b90 f   GuSweepsMesh.obj
 0001:00001ba0       ??__EmaxFError@_VecMathTests@aos@shdfnd@physx@@YAXXZ 0000000180002ba0 f   GuTriangleMesh.obj
 0001:00001bb0       ??__EmaxV3Error@_VecMathTests@aos@shdfnd@physx@@YAXXZ 0000000180002bb0 f   GuTriangleMesh.obj
 0001:00001bc0       ??__EmaxV4Error@_VecMathTests@aos@shdfnd@physx@@YAXXZ 0000000180002bc0 f   GuTriangleMesh.obj
 0001:00001bd0       ??__EminFError@_VecMathTests@aos@shdfnd@physx@@YAXXZ 0000000180002bd0 f   GuTriangleMesh.obj
 0001:00001be0       ??__EminV3Error@_VecMathTests@aos@shdfnd@physx@@YAXXZ 0000000180002be0 f   GuTriangleMesh.obj
 0001:00001bf0       ??__EminV4Error@_VecMathTests@aos@shdfnd@physx@@YAXXZ 0000000180002bf0 f   GuTriangleMesh.obj
 0001:00001c00       ??__EmaxFError@_VecMathTests@aos@shdfnd@physx@@YAXXZ 0000000180002c00 f   GuTriangleMeshBV4.obj
 0001:00001c10       ??__EmaxV3Error@_VecMathTests@aos@shdfnd@physx@@YAXXZ 0000000180002c10 f   GuTriangleMeshBV4.obj
 0001:00001c20       ??__EmaxV4Error@_VecMathTests@aos@shdfnd@physx@@YAXXZ 0000000180002c20 f   GuTriangleMeshBV4.obj
 0001:00001c30       ??__EminFError@_VecMathTests@aos@shdfnd@physx@@YAXXZ 0000000180002c30 f   GuTriangleMeshBV4.obj
 0001:00001c40       ??__EminV3Error@_VecMathTests@aos@shdfnd@physx@@YAXXZ 0000000180002c40 f   GuTriangleMeshBV4.obj
 0001:00001c50       ??__EminV4Error@_VecMathTests@aos@shdfnd@physx@@YAXXZ 0000000180002c50 f   GuTriangleMeshBV4.obj
 0001:00001c60       ??__EmaxFError@_VecMathTests@aos@shdfnd@physx@@YAXXZ 0000000180002c60 f   GuTriangleMeshRTree.obj
 0001:00001c70       ??__EmaxV3Error@_VecMathTests@aos@shdfnd@physx@@YAXXZ 0000000180002c70 f   GuTriangleMeshRTree.obj
 0001:00001c80       ??__EmaxV4Error@_VecMathTests@aos@shdfnd@physx@@YAXXZ 0000000180002c80 f   GuTriangleMeshRTree.obj
 0001:00001c90       ??__EminFError@_VecMathTests@aos@shdfnd@physx@@YAXXZ 0000000180002c90 f   GuTriangleMeshRTree.obj
 0001:00001ca0       ??__EminV3Error@_VecMathTests@aos@shdfnd@physx@@YAXXZ 0000000180002ca0 f   GuTriangleMeshRTree.obj
 0001:00001cb0       ??__EminV4Error@_VecMathTests@aos@shdfnd@physx@@YAXXZ 0000000180002cb0 f   GuTriangleMeshRTree.obj
 0001:00001cc0       ??__EmaxFError@_VecMathTests@aos@shdfnd@physx@@YAXXZ 0000000180002cc0 f   GuBV32Build.obj
 0001:00001cd0       ??__EmaxV3Error@_VecMathTests@aos@shdfnd@physx@@YAXXZ 0000000180002cd0 f   GuBV32Build.obj
 0001:00001ce0       ??__EmaxV4Error@_VecMathTests@aos@shdfnd@physx@@YAXXZ 0000000180002ce0 f   GuBV32Build.obj
 0001:00001cf0       ??__EminFError@_VecMathTests@aos@shdfnd@physx@@YAXXZ 0000000180002cf0 f   GuBV32Build.obj
 0001:00001d00       ??__EminV3Error@_VecMathTests@aos@shdfnd@physx@@YAXXZ 0000000180002d00 f   GuBV32Build.obj
 0001:00001d10       ??__EminV4Error@_VecMathTests@aos@shdfnd@physx@@YAXXZ 0000000180002d10 f   GuBV32Build.obj
 0001:00001d20       ??__EmaxFError@_VecMathTests@aos@shdfnd@physx@@YAXXZ 0000000180002d20 f   GuPCMContactBoxBox.obj
 0001:00001d30       ??__EmaxV3Error@_VecMathTests@aos@shdfnd@physx@@YAXXZ 0000000180002d30 f   GuPCMContactBoxBox.obj
 0001:00001d40       ??__EmaxV4Error@_VecMathTests@aos@shdfnd@physx@@YAXXZ 0000000180002d40 f   GuPCMContactBoxBox.obj
 0001:00001d50       ??__EminFError@_VecMathTests@aos@shdfnd@physx@@YAXXZ 0000000180002d50 f   GuPCMContactBoxBox.obj
 0001:00001d60       ??__EminV3Error@_VecMathTests@aos@shdfnd@physx@@YAXXZ 0000000180002d60 f   GuPCMContactBoxBox.obj
 0001:00001d70       ??__EminV4Error@_VecMathTests@aos@shdfnd@physx@@YAXXZ 0000000180002d70 f   GuPCMContactBoxBox.obj
 0001:00001d80       ??__EmaxFError@_VecMathTests@aos@shdfnd@physx@@YAXXZ 0000000180002d80 f   GuPCMContactBoxConvex.obj
 0001:00001d90       ??__EmaxV3Error@_VecMathTests@aos@shdfnd@physx@@YAXXZ 0000000180002d90 f   GuPCMContactBoxConvex.obj
 0001:00001da0       ??__EmaxV4Error@_VecMathTests@aos@shdfnd@physx@@YAXXZ 0000000180002da0 f   GuPCMContactBoxConvex.obj
 0001:00001db0       ??__EminFError@_VecMathTests@aos@shdfnd@physx@@YAXXZ 0000000180002db0 f   GuPCMContactBoxConvex.obj
 0001:00001dc0       ??__EminV3Error@_VecMathTests@aos@shdfnd@physx@@YAXXZ 0000000180002dc0 f   GuPCMContactBoxConvex.obj
 0001:00001dd0       ??__EminV4Error@_VecMathTests@aos@shdfnd@physx@@YAXXZ 0000000180002dd0 f   GuPCMContactBoxConvex.obj
 0001:00001de0       ??__EmaxFError@_VecMathTests@aos@shdfnd@physx@@YAXXZ 0000000180002de0 f   GuPCMContactCapsuleBox.obj
 0001:00001df0       ??__EmaxV3Error@_VecMathTests@aos@shdfnd@physx@@YAXXZ 0000000180002df0 f   GuPCMContactCapsuleBox.obj
 0001:00001e00       ??__EmaxV4Error@_VecMathTests@aos@shdfnd@physx@@YAXXZ 0000000180002e00 f   GuPCMContactCapsuleBox.obj
 0001:00001e10       ??__EminFError@_VecMathTests@aos@shdfnd@physx@@YAXXZ 0000000180002e10 f   GuPCMContactCapsuleBox.obj
 0001:00001e20       ??__EminV3Error@_VecMathTests@aos@shdfnd@physx@@YAXXZ 0000000180002e20 f   GuPCMContactCapsuleBox.obj
 0001:00001e30       ??__EminV4Error@_VecMathTests@aos@shdfnd@physx@@YAXXZ 0000000180002e30 f   GuPCMContactCapsuleBox.obj
 0001:00001e40       ??__EmaxFError@_VecMathTests@aos@shdfnd@physx@@YAXXZ 0000000180002e40 f   GuPCMContactCapsuleCapsule.obj
 0001:00001e50       ??__EmaxV3Error@_VecMathTests@aos@shdfnd@physx@@YAXXZ 0000000180002e50 f   GuPCMContactCapsuleCapsule.obj
 0001:00001e60       ??__EmaxV4Error@_VecMathTests@aos@shdfnd@physx@@YAXXZ 0000000180002e60 f   GuPCMContactCapsuleCapsule.obj
 0001:00001e70       ??__EminFError@_VecMathTests@aos@shdfnd@physx@@YAXXZ 0000000180002e70 f   GuPCMContactCapsuleCapsule.obj
 0001:00001e80       ??__EminV3Error@_VecMathTests@aos@shdfnd@physx@@YAXXZ 0000000180002e80 f   GuPCMContactCapsuleCapsule.obj
 0001:00001e90       ??__EminV4Error@_VecMathTests@aos@shdfnd@physx@@YAXXZ 0000000180002e90 f   GuPCMContactCapsuleCapsule.obj
 0001:00001ea0       ??__EmaxFError@_VecMathTests@aos@shdfnd@physx@@YAXXZ 0000000180002ea0 f   GuPCMContactCapsuleConvex.obj
 0001:00001eb0       ??__EmaxV3Error@_VecMathTests@aos@shdfnd@physx@@YAXXZ 0000000180002eb0 f   GuPCMContactCapsuleConvex.obj
 0001:00001ec0       ??__EmaxV4Error@_VecMathTests@aos@shdfnd@physx@@YAXXZ 0000000180002ec0 f   GuPCMContactCapsuleConvex.obj
 0001:00001ed0       ??__EminFError@_VecMathTests@aos@shdfnd@physx@@YAXXZ 0000000180002ed0 f   GuPCMContactCapsuleConvex.obj
 0001:00001ee0       ??__EminV3Error@_VecMathTests@aos@shdfnd@physx@@YAXXZ 0000000180002ee0 f   GuPCMContactCapsuleConvex.obj
 0001:00001ef0       ??__EminV4Error@_VecMathTests@aos@shdfnd@physx@@YAXXZ 0000000180002ef0 f   GuPCMContactCapsuleConvex.obj
 0001:00001f00       ??__EmaxFError@_VecMathTests@aos@shdfnd@physx@@YAXXZ 0000000180002f00 f   GuPCMContactCapsuleHeightField.obj
 0001:00001f10       ??__EmaxV3Error@_VecMathTests@aos@shdfnd@physx@@YAXXZ 0000000180002f10 f   GuPCMContactCapsuleHeightField.obj
 0001:00001f20       ??__EmaxV4Error@_VecMathTests@aos@shdfnd@physx@@YAXXZ 0000000180002f20 f   GuPCMContactCapsuleHeightField.obj
 0001:00001f30       ??__EminFError@_VecMathTests@aos@shdfnd@physx@@YAXXZ 0000000180002f30 f   GuPCMContactCapsuleHeightField.obj
 0001:00001f40       ??__EminV3Error@_VecMathTests@aos@shdfnd@physx@@YAXXZ 0000000180002f40 f   GuPCMContactCapsuleHeightField.obj
 0001:00001f50       ??__EminV4Error@_VecMathTests@aos@shdfnd@physx@@YAXXZ 0000000180002f50 f   GuPCMContactCapsuleHeightField.obj
 0001:00001f60       ??__EmaxFError@_VecMathTests@aos@shdfnd@physx@@YAXXZ 0000000180002f60 f   GuPCMContactCapsuleMesh.obj
 0001:00001f70       ??__EmaxV3Error@_VecMathTests@aos@shdfnd@physx@@YAXXZ 0000000180002f70 f   GuPCMContactCapsuleMesh.obj
 0001:00001f80       ??__EmaxV4Error@_VecMathTests@aos@shdfnd@physx@@YAXXZ 0000000180002f80 f   GuPCMContactCapsuleMesh.obj
 0001:00001f90       ??__EminFError@_VecMathTests@aos@shdfnd@physx@@YAXXZ 0000000180002f90 f   GuPCMContactCapsuleMesh.obj
 0001:00001fa0       ??__EminV3Error@_VecMathTests@aos@shdfnd@physx@@YAXXZ 0000000180002fa0 f   GuPCMContactCapsuleMesh.obj
 0001:00001fb0       ??__EminV4Error@_VecMathTests@aos@shdfnd@physx@@YAXXZ 0000000180002fb0 f   GuPCMContactCapsuleMesh.obj
 0001:00001fc0       ??__EmaxFError@_VecMathTests@aos@shdfnd@physx@@YAXXZ 0000000180002fc0 f   GuPCMContactConvexCommon.obj
 0001:00001fd0       ??__EmaxV3Error@_VecMathTests@aos@shdfnd@physx@@YAXXZ 0000000180002fd0 f   GuPCMContactConvexCommon.obj
 0001:00001fe0       ??__EmaxV4Error@_VecMathTests@aos@shdfnd@physx@@YAXXZ 0000000180002fe0 f   GuPCMContactConvexCommon.obj
 0001:00001ff0       ??__EminFError@_VecMathTests@aos@shdfnd@physx@@YAXXZ 0000000180002ff0 f   GuPCMContactConvexCommon.obj
 0001:00002000       ??__EminV3Error@_VecMathTests@aos@shdfnd@physx@@YAXXZ 0000000180003000 f   GuPCMContactConvexCommon.obj
 0001:00002010       ??__EminV4Error@_VecMathTests@aos@shdfnd@physx@@YAXXZ 0000000180003010 f   GuPCMContactConvexCommon.obj
 0001:00002020       ??__EmaxFError@_VecMathTests@aos@shdfnd@physx@@YAXXZ 0000000180003020 f   GuPCMContactConvexConvex.obj
 0001:00002030       ??__EmaxV3Error@_VecMathTests@aos@shdfnd@physx@@YAXXZ 0000000180003030 f   GuPCMContactConvexConvex.obj
 0001:00002040       ??__EmaxV4Error@_VecMathTests@aos@shdfnd@physx@@YAXXZ 0000000180003040 f   GuPCMContactConvexConvex.obj
 0001:00002050       ??__EminFError@_VecMathTests@aos@shdfnd@physx@@YAXXZ 0000000180003050 f   GuPCMContactConvexConvex.obj
 0001:00002060       ??__EminV3Error@_VecMathTests@aos@shdfnd@physx@@YAXXZ 0000000180003060 f   GuPCMContactConvexConvex.obj
 0001:00002070       ??__EminV4Error@_VecMathTests@aos@shdfnd@physx@@YAXXZ 0000000180003070 f   GuPCMContactConvexConvex.obj
 0001:00002080       ??__EmaxFError@_VecMathTests@aos@shdfnd@physx@@YAXXZ 0000000180003080 f   GuPCMContactConvexHeightField.obj
 0001:00002090       ??__EmaxV3Error@_VecMathTests@aos@shdfnd@physx@@YAXXZ 0000000180003090 f   GuPCMContactConvexHeightField.obj
 0001:000020a0       ??__EmaxV4Error@_VecMathTests@aos@shdfnd@physx@@YAXXZ 00000001800030a0 f   GuPCMContactConvexHeightField.obj
 0001:000020b0       ??__EminFError@_VecMathTests@aos@shdfnd@physx@@YAXXZ 00000001800030b0 f   GuPCMContactConvexHeightField.obj
 0001:000020c0       ??__EminV3Error@_VecMathTests@aos@shdfnd@physx@@YAXXZ 00000001800030c0 f   GuPCMContactConvexHeightField.obj
 0001:000020d0       ??__EminV4Error@_VecMathTests@aos@shdfnd@physx@@YAXXZ 00000001800030d0 f   GuPCMContactConvexHeightField.obj
 0001:000020e0       ??__EmaxFError@_VecMathTests@aos@shdfnd@physx@@YAXXZ 00000001800030e0 f   GuPCMContactConvexMesh.obj
 0001:000020f0       ??__EmaxV3Error@_VecMathTests@aos@shdfnd@physx@@YAXXZ 00000001800030f0 f   GuPCMContactConvexMesh.obj
 0001:00002100       ??__EmaxV4Error@_VecMathTests@aos@shdfnd@physx@@YAXXZ 0000000180003100 f   GuPCMContactConvexMesh.obj
 0001:00002110       ??__EminFError@_VecMathTests@aos@shdfnd@physx@@YAXXZ 0000000180003110 f   GuPCMContactConvexMesh.obj
 0001:00002120       ??__EminV3Error@_VecMathTests@aos@shdfnd@physx@@YAXXZ 0000000180003120 f   GuPCMContactConvexMesh.obj
 0001:00002130       ??__EminV4Error@_VecMathTests@aos@shdfnd@physx@@YAXXZ 0000000180003130 f   GuPCMContactConvexMesh.obj
 0001:00002140       ??__EmaxFError@_VecMathTests@aos@shdfnd@physx@@YAXXZ 0000000180003140 f   GuPCMContactGenBoxConvex.obj
 0001:00002150       ??__EmaxV3Error@_VecMathTests@aos@shdfnd@physx@@YAXXZ 0000000180003150 f   GuPCMContactGenBoxConvex.obj
 0001:00002160       ??__EmaxV4Error@_VecMathTests@aos@shdfnd@physx@@YAXXZ 0000000180003160 f   GuPCMContactGenBoxConvex.obj
 0001:00002170       ??__EminFError@_VecMathTests@aos@shdfnd@physx@@YAXXZ 0000000180003170 f   GuPCMContactGenBoxConvex.obj
 0001:00002180       ??__EminV3Error@_VecMathTests@aos@shdfnd@physx@@YAXXZ 0000000180003180 f   GuPCMContactGenBoxConvex.obj
 0001:00002190       ??__EminV4Error@_VecMathTests@aos@shdfnd@physx@@YAXXZ 0000000180003190 f   GuPCMContactGenBoxConvex.obj
 0001:000021a0       ??__EmaxFError@_VecMathTests@aos@shdfnd@physx@@YAXXZ 00000001800031a0 f   GuPCMContactGenSphereCapsule.obj
 0001:000021b0       ??__EmaxV3Error@_VecMathTests@aos@shdfnd@physx@@YAXXZ 00000001800031b0 f   GuPCMContactGenSphereCapsule.obj
 0001:000021c0       ??__EmaxV4Error@_VecMathTests@aos@shdfnd@physx@@YAXXZ 00000001800031c0 f   GuPCMContactGenSphereCapsule.obj
 0001:000021d0       ??__EminFError@_VecMathTests@aos@shdfnd@physx@@YAXXZ 00000001800031d0 f   GuPCMContactGenSphereCapsule.obj
 0001:000021e0       ??__EminV3Error@_VecMathTests@aos@shdfnd@physx@@YAXXZ 00000001800031e0 f   GuPCMContactGenSphereCapsule.obj
 0001:000021f0       ??__EminV4Error@_VecMathTests@aos@shdfnd@physx@@YAXXZ 00000001800031f0 f   GuPCMContactGenSphereCapsule.obj
 0001:00002200       ??__EmaxFError@_VecMathTests@aos@shdfnd@physx@@YAXXZ 0000000180003200 f   GuPCMContactPlaneBox.obj
 0001:00002210       ??__EmaxV3Error@_VecMathTests@aos@shdfnd@physx@@YAXXZ 0000000180003210 f   GuPCMContactPlaneBox.obj
 0001:00002220       ??__EmaxV4Error@_VecMathTests@aos@shdfnd@physx@@YAXXZ 0000000180003220 f   GuPCMContactPlaneBox.obj
 0001:00002230       ??__EminFError@_VecMathTests@aos@shdfnd@physx@@YAXXZ 0000000180003230 f   GuPCMContactPlaneBox.obj
 0001:00002240       ??__EminV3Error@_VecMathTests@aos@shdfnd@physx@@YAXXZ 0000000180003240 f   GuPCMContactPlaneBox.obj
 0001:00002250       ??__EminV4Error@_VecMathTests@aos@shdfnd@physx@@YAXXZ 0000000180003250 f   GuPCMContactPlaneBox.obj
 0001:00002260       ??__EmaxFError@_VecMathTests@aos@shdfnd@physx@@YAXXZ 0000000180003260 f   GuPCMContactPlaneCapsule.obj
 0001:00002270       ??__EmaxV3Error@_VecMathTests@aos@shdfnd@physx@@YAXXZ 0000000180003270 f   GuPCMContactPlaneCapsule.obj
 0001:00002280       ??__EmaxV4Error@_VecMathTests@aos@shdfnd@physx@@YAXXZ 0000000180003280 f   GuPCMContactPlaneCapsule.obj
 0001:00002290       ??__EminFError@_VecMathTests@aos@shdfnd@physx@@YAXXZ 0000000180003290 f   GuPCMContactPlaneCapsule.obj
 0001:000022a0       ??__EminV3Error@_VecMathTests@aos@shdfnd@physx@@YAXXZ 00000001800032a0 f   GuPCMContactPlaneCapsule.obj
 0001:000022b0       ??__EminV4Error@_VecMathTests@aos@shdfnd@physx@@YAXXZ 00000001800032b0 f   GuPCMContactPlaneCapsule.obj
 0001:000022c0       ??__EmaxFError@_VecMathTests@aos@shdfnd@physx@@YAXXZ 00000001800032c0 f   GuPCMContactPlaneConvex.obj
 0001:000022d0       ??__EmaxV3Error@_VecMathTests@aos@shdfnd@physx@@YAXXZ 00000001800032d0 f   GuPCMContactPlaneConvex.obj
 0001:000022e0       ??__EmaxV4Error@_VecMathTests@aos@shdfnd@physx@@YAXXZ 00000001800032e0 f   GuPCMContactPlaneConvex.obj
 0001:000022f0       ??__EminFError@_VecMathTests@aos@shdfnd@physx@@YAXXZ 00000001800032f0 f   GuPCMContactPlaneConvex.obj
 0001:00002300       ??__EminV3Error@_VecMathTests@aos@shdfnd@physx@@YAXXZ 0000000180003300 f   GuPCMContactPlaneConvex.obj
 0001:00002310       ??__EminV4Error@_VecMathTests@aos@shdfnd@physx@@YAXXZ 0000000180003310 f   GuPCMContactPlaneConvex.obj
 0001:00002320       ??__EmaxFError@_VecMathTests@aos@shdfnd@physx@@YAXXZ 0000000180003320 f   GuPCMContactSphereBox.obj
 0001:00002330       ??__EmaxV3Error@_VecMathTests@aos@shdfnd@physx@@YAXXZ 0000000180003330 f   GuPCMContactSphereBox.obj
 0001:00002340       ??__EmaxV4Error@_VecMathTests@aos@shdfnd@physx@@YAXXZ 0000000180003340 f   GuPCMContactSphereBox.obj
 0001:00002350       ??__EminFError@_VecMathTests@aos@shdfnd@physx@@YAXXZ 0000000180003350 f   GuPCMContactSphereBox.obj
 0001:00002360       ??__EminV3Error@_VecMathTests@aos@shdfnd@physx@@YAXXZ 0000000180003360 f   GuPCMContactSphereBox.obj
 0001:00002370       ??__EminV4Error@_VecMathTests@aos@shdfnd@physx@@YAXXZ 0000000180003370 f   GuPCMContactSphereBox.obj
 0001:00002380       ??__EmaxFError@_VecMathTests@aos@shdfnd@physx@@YAXXZ 0000000180003380 f   GuPCMContactSphereCapsule.obj
 0001:00002390       ??__EmaxV3Error@_VecMathTests@aos@shdfnd@physx@@YAXXZ 0000000180003390 f   GuPCMContactSphereCapsule.obj
 0001:000023a0       ??__EmaxV4Error@_VecMathTests@aos@shdfnd@physx@@YAXXZ 00000001800033a0 f   GuPCMContactSphereCapsule.obj
 0001:000023b0       ??__EminFError@_VecMathTests@aos@shdfnd@physx@@YAXXZ 00000001800033b0 f   GuPCMContactSphereCapsule.obj
 0001:000023c0       ??__EminV3Error@_VecMathTests@aos@shdfnd@physx@@YAXXZ 00000001800033c0 f   GuPCMContactSphereCapsule.obj
 0001:000023d0       ??__EminV4Error@_VecMathTests@aos@shdfnd@physx@@YAXXZ 00000001800033d0 f   GuPCMContactSphereCapsule.obj
 0001:000023e0       ??__EmaxFError@_VecMathTests@aos@shdfnd@physx@@YAXXZ 00000001800033e0 f   GuPCMContactSphereConvex.obj
 0001:000023f0       ??__EmaxV3Error@_VecMathTests@aos@shdfnd@physx@@YAXXZ 00000001800033f0 f   GuPCMContactSphereConvex.obj
 0001:00002400       ??__EmaxV4Error@_VecMathTests@aos@shdfnd@physx@@YAXXZ 0000000180003400 f   GuPCMContactSphereConvex.obj
 0001:00002410       ??__EminFError@_VecMathTests@aos@shdfnd@physx@@YAXXZ 0000000180003410 f   GuPCMContactSphereConvex.obj
 0001:00002420       ??__EminV3Error@_VecMathTests@aos@shdfnd@physx@@YAXXZ 0000000180003420 f   GuPCMContactSphereConvex.obj
 0001:00002430       ??__EminV4Error@_VecMathTests@aos@shdfnd@physx@@YAXXZ 0000000180003430 f   GuPCMContactSphereConvex.obj
 0001:00002440       ??__EmaxFError@_VecMathTests@aos@shdfnd@physx@@YAXXZ 0000000180003440 f   GuPCMContactSphereHeightField.obj
 0001:00002450       ??__EmaxV3Error@_VecMathTests@aos@shdfnd@physx@@YAXXZ 0000000180003450 f   GuPCMContactSphereHeightField.obj
 0001:00002460       ??__EmaxV4Error@_VecMathTests@aos@shdfnd@physx@@YAXXZ 0000000180003460 f   GuPCMContactSphereHeightField.obj
 0001:00002470       ??__EminFError@_VecMathTests@aos@shdfnd@physx@@YAXXZ 0000000180003470 f   GuPCMContactSphereHeightField.obj
 0001:00002480       ??__EminV3Error@_VecMathTests@aos@shdfnd@physx@@YAXXZ 0000000180003480 f   GuPCMContactSphereHeightField.obj
 0001:00002490       ??__EminV4Error@_VecMathTests@aos@shdfnd@physx@@YAXXZ 0000000180003490 f   GuPCMContactSphereHeightField.obj
 0001:000024a0       ??__EmaxFError@_VecMathTests@aos@shdfnd@physx@@YAXXZ 00000001800034a0 f   GuPCMContactSphereMesh.obj
 0001:000024b0       ??__EmaxV3Error@_VecMathTests@aos@shdfnd@physx@@YAXXZ 00000001800034b0 f   GuPCMContactSphereMesh.obj
 0001:000024c0       ??__EmaxV4Error@_VecMathTests@aos@shdfnd@physx@@YAXXZ 00000001800034c0 f   GuPCMContactSphereMesh.obj
 0001:000024d0       ??__EminFError@_VecMathTests@aos@shdfnd@physx@@YAXXZ 00000001800034d0 f   GuPCMContactSphereMesh.obj
 0001:000024e0       ??__EminV3Error@_VecMathTests@aos@shdfnd@physx@@YAXXZ 00000001800034e0 f   GuPCMContactSphereMesh.obj
 0001:000024f0       ??__EminV4Error@_VecMathTests@aos@shdfnd@physx@@YAXXZ 00000001800034f0 f   GuPCMContactSphereMesh.obj
 0001:00002500       ??__EmaxFError@_VecMathTests@aos@shdfnd@physx@@YAXXZ 0000000180003500 f   GuPCMContactSpherePlane.obj
 0001:00002510       ??__EmaxV3Error@_VecMathTests@aos@shdfnd@physx@@YAXXZ 0000000180003510 f   GuPCMContactSpherePlane.obj
 0001:00002520       ??__EmaxV4Error@_VecMathTests@aos@shdfnd@physx@@YAXXZ 0000000180003520 f   GuPCMContactSpherePlane.obj
 0001:00002530       ??__EminFError@_VecMathTests@aos@shdfnd@physx@@YAXXZ 0000000180003530 f   GuPCMContactSpherePlane.obj
 0001:00002540       ??__EminV3Error@_VecMathTests@aos@shdfnd@physx@@YAXXZ 0000000180003540 f   GuPCMContactSpherePlane.obj
 0001:00002550       ??__EminV4Error@_VecMathTests@aos@shdfnd@physx@@YAXXZ 0000000180003550 f   GuPCMContactSpherePlane.obj
 0001:00002560       ??__EmaxFError@_VecMathTests@aos@shdfnd@physx@@YAXXZ 0000000180003560 f   GuPCMContactSphereSphere.obj
 0001:00002570       ??__EmaxV3Error@_VecMathTests@aos@shdfnd@physx@@YAXXZ 0000000180003570 f   GuPCMContactSphereSphere.obj
 0001:00002580       ??__EmaxV4Error@_VecMathTests@aos@shdfnd@physx@@YAXXZ 0000000180003580 f   GuPCMContactSphereSphere.obj
 0001:00002590       ??__EminFError@_VecMathTests@aos@shdfnd@physx@@YAXXZ 0000000180003590 f   GuPCMContactSphereSphere.obj
 0001:000025a0       ??__EminV3Error@_VecMathTests@aos@shdfnd@physx@@YAXXZ 00000001800035a0 f   GuPCMContactSphereSphere.obj
 0001:000025b0       ??__EminV4Error@_VecMathTests@aos@shdfnd@physx@@YAXXZ 00000001800035b0 f   GuPCMContactSphereSphere.obj
 0001:000025c0       ??__EmaxFError@_VecMathTests@aos@shdfnd@physx@@YAXXZ 00000001800035c0 f   GuPCMShapeConvex.obj
 0001:000025d0       ??__EmaxV3Error@_VecMathTests@aos@shdfnd@physx@@YAXXZ 00000001800035d0 f   GuPCMShapeConvex.obj
 0001:000025e0       ??__EmaxV4Error@_VecMathTests@aos@shdfnd@physx@@YAXXZ 00000001800035e0 f   GuPCMShapeConvex.obj
 0001:000025f0       ??__EminFError@_VecMathTests@aos@shdfnd@physx@@YAXXZ 00000001800035f0 f   GuPCMShapeConvex.obj
 0001:00002600       ??__EminV3Error@_VecMathTests@aos@shdfnd@physx@@YAXXZ 0000000180003600 f   GuPCMShapeConvex.obj
 0001:00002610       ??__EminV4Error@_VecMathTests@aos@shdfnd@physx@@YAXXZ 0000000180003610 f   GuPCMShapeConvex.obj
 0001:00002620       ??__EmaxFError@_VecMathTests@aos@shdfnd@physx@@YAXXZ 0000000180003620 f   GuPCMTriangleContactGen.obj
 0001:00002630       ??__EmaxV3Error@_VecMathTests@aos@shdfnd@physx@@YAXXZ 0000000180003630 f   GuPCMTriangleContactGen.obj
 0001:00002640       ??__EmaxV4Error@_VecMathTests@aos@shdfnd@physx@@YAXXZ 0000000180003640 f   GuPCMTriangleContactGen.obj
 0001:00002650       ??__EminFError@_VecMathTests@aos@shdfnd@physx@@YAXXZ 0000000180003650 f   GuPCMTriangleContactGen.obj
 0001:00002660       ??__EminV3Error@_VecMathTests@aos@shdfnd@physx@@YAXXZ 0000000180003660 f   GuPCMTriangleContactGen.obj
 0001:00002670       ??__EminV4Error@_VecMathTests@aos@shdfnd@physx@@YAXXZ 0000000180003670 f   GuPCMTriangleContactGen.obj
 0001:00002680       ??__EmaxFError@_VecMathTests@aos@shdfnd@physx@@YAXXZ 0000000180003680 f   GuPersistentContactManifold.obj
 0001:00002690       ??__EmaxV3Error@_VecMathTests@aos@shdfnd@physx@@YAXXZ 0000000180003690 f   GuPersistentContactManifold.obj
 0001:000026a0       ??__EmaxV4Error@_VecMathTests@aos@shdfnd@physx@@YAXXZ 00000001800036a0 f   GuPersistentContactManifold.obj
 0001:000026b0       ??__EminFError@_VecMathTests@aos@shdfnd@physx@@YAXXZ 00000001800036b0 f   GuPersistentContactManifold.obj
 0001:000026c0       ??__EminV3Error@_VecMathTests@aos@shdfnd@physx@@YAXXZ 00000001800036c0 f   GuPersistentContactManifold.obj
 0001:000026d0       ??__EminV4Error@_VecMathTests@aos@shdfnd@physx@@YAXXZ 00000001800036d0 f   GuPersistentContactManifold.obj
 0001:000026e0       ??__EmaxFError@_VecMathTests@aos@shdfnd@physx@@YAXXZ 00000001800036e0 f   GuSweepBoxBox.obj
 0001:000026f0       ??__EmaxV3Error@_VecMathTests@aos@shdfnd@physx@@YAXXZ 00000001800036f0 f   GuSweepBoxBox.obj
 0001:00002700       ??__EmaxV4Error@_VecMathTests@aos@shdfnd@physx@@YAXXZ 0000000180003700 f   GuSweepBoxBox.obj
 0001:00002710       ??__EminFError@_VecMathTests@aos@shdfnd@physx@@YAXXZ 0000000180003710 f   GuSweepBoxBox.obj
 0001:00002720       ??__EminV3Error@_VecMathTests@aos@shdfnd@physx@@YAXXZ 0000000180003720 f   GuSweepBoxBox.obj
 0001:00002730       ??__EminV4Error@_VecMathTests@aos@shdfnd@physx@@YAXXZ 0000000180003730 f   GuSweepBoxBox.obj
 0001:00002740       ??__EmaxFError@_VecMathTests@aos@shdfnd@physx@@YAXXZ 0000000180003740 f   GuSweepBoxSphere.obj
 0001:00002750       ??__EmaxV3Error@_VecMathTests@aos@shdfnd@physx@@YAXXZ 0000000180003750 f   GuSweepBoxSphere.obj
 0001:00002760       ??__EmaxV4Error@_VecMathTests@aos@shdfnd@physx@@YAXXZ 0000000180003760 f   GuSweepBoxSphere.obj
 0001:00002770       ??__EminFError@_VecMathTests@aos@shdfnd@physx@@YAXXZ 0000000180003770 f   GuSweepBoxSphere.obj
 0001:00002780       ??__EminV3Error@_VecMathTests@aos@shdfnd@physx@@YAXXZ 0000000180003780 f   GuSweepBoxSphere.obj
 0001:00002790       ??__EminV4Error@_VecMathTests@aos@shdfnd@physx@@YAXXZ 0000000180003790 f   GuSweepBoxSphere.obj
 0001:000027a0       ??__EmaxFError@_VecMathTests@aos@shdfnd@physx@@YAXXZ 00000001800037a0 f   GuSweepBoxTriangle_FeatureBased.obj
 0001:000027b0       ??__EmaxV3Error@_VecMathTests@aos@shdfnd@physx@@YAXXZ 00000001800037b0 f   GuSweepBoxTriangle_FeatureBased.obj
 0001:000027c0       ??__EmaxV4Error@_VecMathTests@aos@shdfnd@physx@@YAXXZ 00000001800037c0 f   GuSweepBoxTriangle_FeatureBased.obj
 0001:000027d0       ??__EminFError@_VecMathTests@aos@shdfnd@physx@@YAXXZ 00000001800037d0 f   GuSweepBoxTriangle_FeatureBased.obj
 0001:000027e0       ??__EminV3Error@_VecMathTests@aos@shdfnd@physx@@YAXXZ 00000001800037e0 f   GuSweepBoxTriangle_FeatureBased.obj
 0001:000027f0       ??__EminV4Error@_VecMathTests@aos@shdfnd@physx@@YAXXZ 00000001800037f0 f   GuSweepBoxTriangle_FeatureBased.obj
 0001:00002800       ??__EmaxFError@_VecMathTests@aos@shdfnd@physx@@YAXXZ 0000000180003800 f   GuSweepBoxTriangle_SAT.obj
 0001:00002810       ??__EmaxV3Error@_VecMathTests@aos@shdfnd@physx@@YAXXZ 0000000180003810 f   GuSweepBoxTriangle_SAT.obj
 0001:00002820       ??__EmaxV4Error@_VecMathTests@aos@shdfnd@physx@@YAXXZ 0000000180003820 f   GuSweepBoxTriangle_SAT.obj
 0001:00002830       ??__EminFError@_VecMathTests@aos@shdfnd@physx@@YAXXZ 0000000180003830 f   GuSweepBoxTriangle_SAT.obj
 0001:00002840       ??__EminV3Error@_VecMathTests@aos@shdfnd@physx@@YAXXZ 0000000180003840 f   GuSweepBoxTriangle_SAT.obj
 0001:00002850       ??__EminV4Error@_VecMathTests@aos@shdfnd@physx@@YAXXZ 0000000180003850 f   GuSweepBoxTriangle_SAT.obj
 0001:00002860       ??__EmaxFError@_VecMathTests@aos@shdfnd@physx@@YAXXZ 0000000180003860 f   GuSweepCapsuleBox.obj
 0001:00002870       ??__EmaxV3Error@_VecMathTests@aos@shdfnd@physx@@YAXXZ 0000000180003870 f   GuSweepCapsuleBox.obj
 0001:00002880       ??__EmaxV4Error@_VecMathTests@aos@shdfnd@physx@@YAXXZ 0000000180003880 f   GuSweepCapsuleBox.obj
 0001:00002890       ??__EminFError@_VecMathTests@aos@shdfnd@physx@@YAXXZ 0000000180003890 f   GuSweepCapsuleBox.obj
 0001:000028a0       ??__EminV3Error@_VecMathTests@aos@shdfnd@physx@@YAXXZ 00000001800038a0 f   GuSweepCapsuleBox.obj
 0001:000028b0       ??__EminV4Error@_VecMathTests@aos@shdfnd@physx@@YAXXZ 00000001800038b0 f   GuSweepCapsuleBox.obj
 0001:000028c0       ??__EmaxFError@_VecMathTests@aos@shdfnd@physx@@YAXXZ 00000001800038c0 f   GuSweepCapsuleTriangle.obj
 0001:000028d0       ??__EmaxV3Error@_VecMathTests@aos@shdfnd@physx@@YAXXZ 00000001800038d0 f   GuSweepCapsuleTriangle.obj
 0001:000028e0       ??__EmaxV4Error@_VecMathTests@aos@shdfnd@physx@@YAXXZ 00000001800038e0 f   GuSweepCapsuleTriangle.obj
 0001:000028f0       ??__EminFError@_VecMathTests@aos@shdfnd@physx@@YAXXZ 00000001800038f0 f   GuSweepCapsuleTriangle.obj
 0001:00002900       ??__EminV3Error@_VecMathTests@aos@shdfnd@physx@@YAXXZ 0000000180003900 f   GuSweepCapsuleTriangle.obj
 0001:00002910       ??__EminV4Error@_VecMathTests@aos@shdfnd@physx@@YAXXZ 0000000180003910 f   GuSweepCapsuleTriangle.obj
 0001:00002920       ??__EmaxFError@_VecMathTests@aos@shdfnd@physx@@YAXXZ 0000000180003920 f   GuSweepSphereTriangle.obj
 0001:00002930       ??__EmaxV3Error@_VecMathTests@aos@shdfnd@physx@@YAXXZ 0000000180003930 f   GuSweepSphereTriangle.obj
 0001:00002940       ??__EmaxV4Error@_VecMathTests@aos@shdfnd@physx@@YAXXZ 0000000180003940 f   GuSweepSphereTriangle.obj
 0001:00002950       ??__EminFError@_VecMathTests@aos@shdfnd@physx@@YAXXZ 0000000180003950 f   GuSweepSphereTriangle.obj
 0001:00002960       ??__EminV3Error@_VecMathTests@aos@shdfnd@physx@@YAXXZ 0000000180003960 f   GuSweepSphereTriangle.obj
 0001:00002970       ??__EminV4Error@_VecMathTests@aos@shdfnd@physx@@YAXXZ 0000000180003970 f   GuSweepSphereTriangle.obj
 0001:00002980       ??__EmaxFError@_VecMathTests@aos@shdfnd@physx@@YAXXZ 0000000180003980 f   GuSweepTriangleUtils.obj
 0001:00002990       ??__EmaxV3Error@_VecMathTests@aos@shdfnd@physx@@YAXXZ 0000000180003990 f   GuSweepTriangleUtils.obj
 0001:000029a0       ??__EmaxV4Error@_VecMathTests@aos@shdfnd@physx@@YAXXZ 00000001800039a0 f   GuSweepTriangleUtils.obj
 0001:000029b0       ??__EminFError@_VecMathTests@aos@shdfnd@physx@@YAXXZ 00000001800039b0 f   GuSweepTriangleUtils.obj
 0001:000029c0       ??__EminV3Error@_VecMathTests@aos@shdfnd@physx@@YAXXZ 00000001800039c0 f   GuSweepTriangleUtils.obj
 0001:000029d0       ??__EminV4Error@_VecMathTests@aos@shdfnd@physx@@YAXXZ 00000001800039d0 f   GuSweepTriangleUtils.obj
 0001:00009410       $LN24                      000000018000a410     CmWindowsDelayLoadHook.obj
 0001:0000a6b4       $LN727                     000000018000b6b4     GuBounds.obj
 0001:0000a888       $LN78                      000000018000b888     GuBounds.obj
 0001:0000a8f0       ?computeMeshBounds@@YAXAEBVPxVec3@physx@@AEBVPxMat33Padded@Gu@2@PEIBVCenterExtentsPadded@42@AEBVPxMeshScale@2@AEAVVec3p@42@4@Z 000000018000b8f0 f   GuBounds.obj
 0001:0000b0b0       ?computePlaneBounds@@YAXAEAVPxBounds3@physx@@AEBVPxTransform@2@MM@Z 000000018000c0b0 f   GuBounds.obj
 0001:0000b360       ?computeScaledMatrix@@YAXAEAVPxMat33Padded@Gu@physx@@AEBVPxMeshScale@3@@Z 000000018000c360 f   GuBounds.obj
 0001:0000c870       ??1EntityReportContainerCallback@?A0x6bf2891a@Gu@physx@@UEAA@XZ 000000018000d870 f i GuCCDSweepConvexMesh.obj
 0001:0000c870       ??1LocalReport@?1??sweepBox_HeightFieldGeom_Precise@@YA_NAEBVPxGeometry@physx@@AEBVPxTransform@3@AEBVPxBoxGeometry@3@1AEBVBox@Gu@3@AEBVPxVec3@3@MAEAUPxSweepHit@3@V?$PxFlags@W4Enum@PxHitFlag@physx@@G@3@M@Z@UEAA@XZ 000000018000d870 f i GuCCTSweepTests.obj
 0001:0000c870       ??1CapsuleHeightfieldContactGenerationCallback@?A0x951b4974@@UEAA@XZ 000000018000d870 f i GuContactCapsuleMesh.obj
 0001:0000c870       ??1ConvexVsHeightfieldContactGenerationCallback@?A0xcce33876@@UEAA@XZ 000000018000d870 f i GuContactConvexMesh.obj
 0001:0000c870       ??1SphereHeightfieldContactGenerationCallback@?A0x36591462@@UEAA@XZ 000000018000d870 f i GuContactSphereMesh.obj
 0001:0000c870       ??1HfTrianglesEntityReport2@?A0x43a716c0@@UEAA@XZ 000000018000d870 f i GuMeshQuery.obj
 0001:0000c900       ??_GLocalReport@?1??sweepBox_HeightFieldGeom_Precise@@YA_NAEBVPxGeometry@physx@@AEBVPxTransform@3@AEBVPxBoxGeometry@3@1AEBVBox@Gu@3@AEBVPxVec3@3@MAEAUPxSweepHit@3@V?$PxFlags@W4Enum@PxHitFlag@physx@@G@3@M@Z@UEAAPEAXI@Z 000000018000d900 f   GuCCTSweepTests.obj
 0001:0000c900       ??_GHfTrianglesEntityReport2@?A0x43a716c0@@UEAAPEAXI@Z 000000018000d900 f   GuMeshQuery.obj
 0001:0000d550       ?onEvent@LocalReport@?1??sweepBox_HeightFieldGeom_Precise@@YA_NAEBVPxGeometry@physx@@AEBVPxTransform@4@AEBVPxBoxGeometry@4@1AEBVBox@Gu@4@AEBVPxVec3@4@MAEAUPxSweepHit@4@V?$PxFlags@W4Enum@PxHitFlag@physx@@G@4@M@Z@UEAA_NIPEAI@Z 000000018000e550 f   GuCCTSweepTests.obj
 0001:0000d860       ?sweepBoxVsTriangles@@YA_NIPEBVPxTriangle@physx@@AEBVBox@Gu@2@AEBVPxVec3@2@MAEAUPxSweepHit@2@V?$PxFlags@W4Enum@PxHitFlag@physx@@G@2@_NPEBI@Z 000000018000e860 f   GuCCTSweepTests.obj
 0001:00010b20       $LN46                      0000000180011b20     GuGeometryUnion.obj
 0001:00012de0       ?loadMeshData@@YAPEAVTriangleMeshData@Gu@physx@@AEAVPxInputStream@3@@Z 0000000180013de0 f   GuMeshFactory.obj
 0001:000161c0       ?getBinaryMetaData@ShadowConvexMeshGeometry@?1??0GeometryUnion@Gu@physx@@SAXAEAVPxOutputStream@4@@Z@SAX0@Z 00000001800171c0 f   GuMetaData.obj
 0001:00016430       ?getBinaryMetaData@ShadowHeightFieldGeometry@?1??0GeometryUnion@Gu@physx@@SAXAEAVPxOutputStream@4@@Z@SAX0@Z 0000000180017430 f   GuMetaData.obj
 0001:000166d0       ?getBinaryMetaData@ShadowTriangleMeshGeometry@?1??0GeometryUnion@Gu@physx@@SAXAEAVPxOutputStream@4@@Z@SAX0@Z 00000001800176d0 f   GuMetaData.obj
 0001:000171a0       ?getBinaryMetaData_BVDataPackedQ@@YAXAEAVPxOutputStream@physx@@@Z 00000001800181a0 f   GuMetaData.obj
 0001:00017420       ?getBinaryMetaData_BigConvexRawData@@YAXAEAVPxOutputStream@physx@@@Z 0000000180018420 f   GuMetaData.obj
 0001:00017650       ?getBinaryMetaData_ConvexHullData@@YAXAEAVPxOutputStream@physx@@@Z 0000000180018650 f   GuMetaData.obj
 0001:000178c0       ?getBinaryMetaData_HeightFieldData@@YAXAEAVPxOutputStream@physx@@@Z 00000001800188c0 f   GuMetaData.obj
 0001:00017bf0       ?getBinaryMetaData_RTreePage@@YAXAEAVPxOutputStream@physx@@@Z 0000000180018bf0 f   GuMetaData.obj
 0001:00017f10       ?GeomMTDCallback_NotSupported@@YA_NAEAVPxVec3@physx@@AEAMAEBVPxGeometry@2@AEBVPxTransform@2@23@Z 0000000180018f10 f   GuMTD.obj
 0001:00017f10       ?GeomOverlapCallback_NotSupported@@YA_NAEBVPxGeometry@physx@@AEBVPxTransform@2@01PEAUTriggerCache@Gu@2@@Z 0000000180018f10 f   GuOverlapTests.obj
 0001:00017f20       ?GeomMTDCallback_SphereSphere@@YA_NAEAVPxVec3@physx@@AEAMAEBVPxGeometry@2@AEBVPxTransform@2@23@Z 0000000180018f20 f   GuMTD.obj
 0001:00018000       ?GeomMTDCallback_SpherePlane@@YA_NAEAVPxVec3@physx@@AEAMAEBVPxGeometry@2@AEBVPxTransform@2@23@Z 0000000180019000 f   GuMTD.obj
 0001:000180d0       ?GeomMTDCallback_SphereCapsule@@YA_NAEAVPxVec3@physx@@AEAMAEBVPxGeometry@2@AEBVPxTransform@2@23@Z 00000001800190d0 f   GuMTD.obj
 0001:00018210       ?GeomMTDCallback_SphereBox@@YA_NAEAVPxVec3@physx@@AEAMAEBVPxGeometry@2@AEBVPxTransform@2@23@Z 0000000180019210 f   GuMTD.obj
 0001:00018340       ?GeomMTDCallback_SphereConvex@@YA_NAEAVPxVec3@physx@@AEAMAEBVPxGeometry@2@AEBVPxTransform@2@23@Z 0000000180019340 f   GuMTD.obj
 0001:000183a0       ?GeomMTDCallback_SphereMesh@@YA_NAEAVPxVec3@physx@@AEAMAEBVPxGeometry@2@AEBVPxTransform@2@23@Z 00000001800193a0 f   GuMTD.obj
 0001:00018530       ?GeomMTDCallback_PlaneCapsule@@YA_NAEAVPxVec3@physx@@AEAMAEBVPxGeometry@2@AEBVPxTransform@2@23@Z 0000000180019530 f   GuMTD.obj
 0001:00018710       ?GeomMTDCallback_PlaneBox@@YA_NAEAVPxVec3@physx@@AEAMAEBVPxGeometry@2@AEBVPxTransform@2@23@Z 0000000180019710 f   GuMTD.obj
 0001:00018a20       ?GeomMTDCallback_PlaneConvex@@YA_NAEAVPxVec3@physx@@AEAMAEBVPxGeometry@2@AEBVPxTransform@2@23@Z 0000000180019a20 f   GuMTD.obj
 0001:00018a70       ?GeomMTDCallback_CapsuleCapsule@@YA_NAEAVPxVec3@physx@@AEAMAEBVPxGeometry@2@AEBVPxTransform@2@23@Z 0000000180019a70 f   GuMTD.obj
 0001:00018c50       ?GeomMTDCallback_CapsuleBox@@YA_NAEAVPxVec3@physx@@AEAMAEBVPxGeometry@2@AEBVPxTransform@2@23@Z 0000000180019c50 f   GuMTD.obj
 0001:00018e30       ?GeomMTDCallback_CapsuleConvex@@YA_NAEAVPxVec3@physx@@AEAMAEBVPxGeometry@2@AEBVPxTransform@2@23@Z 0000000180019e30 f   GuMTD.obj
 0001:00018f40       ?GeomMTDCallback_CapsuleMesh@@YA_NAEAVPxVec3@physx@@AEAMAEBVPxGeometry@2@AEBVPxTransform@2@23@Z 0000000180019f40 f   GuMTD.obj
 0001:00019170       ?GeomMTDCallback_BoxBox@@YA_NAEAVPxVec3@physx@@AEAMAEBVPxGeometry@2@AEBVPxTransform@2@23@Z 000000018001a170 f   GuMTD.obj
 0001:00019350       ?GeomMTDCallback_BoxConvex@@YA_NAEAVPxVec3@physx@@AEAMAEBVPxGeometry@2@AEBVPxTransform@2@23@Z 000000018001a350 f   GuMTD.obj
 0001:00019450       ?GeomMTDCallback_BoxMesh@@YA_NAEAVPxVec3@physx@@AEAMAEBVPxGeometry@2@AEBVPxTransform@2@23@Z 000000018001a450 f   GuMTD.obj
 0001:000196f0       ?GeomMTDCallback_ConvexConvex@@YA_NAEAVPxVec3@physx@@AEAMAEBVPxGeometry@2@AEBVPxTransform@2@23@Z 000000018001a6f0 f   GuMTD.obj
 0001:00019700       ?GeomMTDCallback_ConvexMesh@@YA_NAEAVPxVec3@physx@@AEAMAEBVPxGeometry@2@AEBVPxTransform@2@23@Z 000000018001a700 f   GuMTD.obj
 0001:00019830       ?GeomMTDCallback_SphereHeightField@@YA_NAEAVPxVec3@physx@@AEAMAEBVPxGeometry@2@AEBVPxTransform@2@23@Z 000000018001a830 f   GuMTD.obj
 0001:000199c0       ?GeomMTDCallback_CapsuleHeightField@@YA_NAEAVPxVec3@physx@@AEAMAEBVPxGeometry@2@AEBVPxTransform@2@23@Z 000000018001a9c0 f   GuMTD.obj
 0001:00019bf0       ?GeomMTDCallback_BoxHeightField@@YA_NAEAVPxVec3@physx@@AEAMAEBVPxGeometry@2@AEBVPxTransform@2@23@Z 000000018001abf0 f   GuMTD.obj
 0001:00019e90       ?GeomMTDCallback_ConvexHeightField@@YA_NAEAVPxVec3@physx@@AEAMAEBVPxGeometry@2@AEBVPxTransform@2@23@Z 000000018001ae90 f   GuMTD.obj
 0001:0001bc60       ?PxcCapsuleOBBOverlap3@@YA_NAEBVSegment@Gu@physx@@MAEBVBox@23@PEAMPEAVPxVec3@3@@Z 000000018001cc60 f   GuMTD.obj
 0001:0001c020       ?PxcTestAxis@@YA_NAEBVPxVec3@physx@@AEBVBox@Gu@2@1AEAM@Z 000000018001d020 f   GuMTD.obj
 0001:0001c210       ?PxcTestAxis@@YA_NAEBVPxVec3@physx@@AEBVSegment@Gu@2@MAEBVBox@42@AEAM@Z 000000018001d210 f   GuMTD.obj
 0001:0001c410       ?computeMTD_BoxBox@@YA_NAEAVPxVec3@physx@@AEAMAEBVBox@Gu@2@2@Z 000000018001d410 f   GuMTD.obj
 0001:0001c840       ?computeMTD_BoxConvex@@YA_NAEAVPxVec3@physx@@AEAMAEBVBox@Gu@2@AEBVPxConvexMeshGeometry@2@AEBVPxTransform@2@@Z 000000018001d840 f   GuMTD.obj
 0001:0001d040       ?computeMTD_CapsuleBox@@YA_NAEAVPxVec3@physx@@AEAMAEBVCapsule@Gu@2@AEBVBox@42@@Z 000000018001e040 f   GuMTD.obj
 0001:0001d260       ?computeMTD_CapsuleCapsule@@YA_NAEAVPxVec3@physx@@AEAMAEBVCapsule@Gu@2@2@Z 000000018001e260 f   GuMTD.obj
 0001:0001d480       ?computeMTD_CapsuleConvex@@YA_NAEAVPxVec3@physx@@AEAMAEBVCapsule@Gu@2@AEBVPxTransform@2@AEBVPxConvexMeshGeometry@2@3@Z 000000018001e480 f   GuMTD.obj
 0001:0001dd40       ?computeMTD_ConvexConvex@@YA_NAEAVPxVec3@physx@@AEAMAEBVPxConvexMeshGeometry@2@AEBVPxTransform@2@23@Z 000000018001ed40 f   GuMTD.obj
 0001:0001e7b0       ?computeMTD_PlaneConvex@@YA_NAEAVPxVec3@physx@@AEAMAEBVPxPlane@2@AEBVPxConvexMeshGeometry@2@AEBVPxTransform@2@@Z 000000018001f7b0 f   GuMTD.obj
 0001:0001f1a0       ?computeMTD_SphereBox@@YA_NAEAVPxVec3@physx@@AEAMAEBVSphere@Gu@2@AEBVBox@42@@Z 00000001800201a0 f   GuMTD.obj
 0001:0001f730       ?computeMTD_SphereCapsule@@YA_NAEAVPxVec3@physx@@AEAMAEBVSphere@Gu@2@AEBVCapsule@42@@Z 0000000180020730 f   GuMTD.obj
 0001:0001f990       ?computeMTD_SphereConvex@@YA_NAEAVPxVec3@physx@@AEAMAEBVSphere@Gu@2@AEBVPxConvexMeshGeometry@2@AEBVPxTransform@2@@Z 0000000180020990 f   GuMTD.obj
 0001:00020c90       ?processContacts@@YA_NAEAVPxVec3@physx@@AEAMIPEBUContactPoint@Gu@2@@Z 0000000180021c90 f   GuMTD.obj
 0001:00021bf0       ?GeomOverlapCallback_SphereSphere@@YA_NAEBVPxGeometry@physx@@AEBVPxTransform@2@01PEAUTriggerCache@Gu@2@@Z 0000000180022bf0 f   GuOverlapTests.obj
 0001:00021c40       ?GeomOverlapCallback_SpherePlane@@YA_NAEBVPxGeometry@physx@@AEBVPxTransform@2@01PEAUTriggerCache@Gu@2@@Z 0000000180022c40 f   GuOverlapTests.obj
 0001:00021ca0       ?GeomOverlapCallback_SphereCapsule@@YA_NAEBVPxGeometry@physx@@AEBVPxTransform@2@01PEAUTriggerCache@Gu@2@@Z 0000000180022ca0 f   GuOverlapTests.obj
 0001:00021e70       ?GeomOverlapCallback_SphereBox@@YA_NAEBVPxGeometry@physx@@AEBVPxTransform@2@01PEAUTriggerCache@Gu@2@@Z 0000000180022e70 f   GuOverlapTests.obj
 0001:00021f80       ?GeomOverlapCallback_SphereConvex@@YA_NAEBVPxGeometry@physx@@AEBVPxTransform@2@01PEAUTriggerCache@Gu@2@@Z 0000000180022f80 f   GuOverlapTests.obj
 0001:00022040       ?GeomOverlapCallback_PlaneCapsule@@YA_NAEBVPxGeometry@physx@@AEBVPxTransform@2@01PEAUTriggerCache@Gu@2@@Z 0000000180023040 f   GuOverlapTests.obj
 0001:000221c0       ?GeomOverlapCallback_PlaneBox@@YA_NAEBVPxGeometry@physx@@AEBVPxTransform@2@01PEAUTriggerCache@Gu@2@@Z 00000001800231c0 f   GuOverlapTests.obj
 0001:00022480       ?GeomOverlapCallback_PlaneConvex@@YA_NAEBVPxGeometry@physx@@AEBVPxTransform@2@01PEAUTriggerCache@Gu@2@@Z 0000000180023480 f   GuOverlapTests.obj
 0001:00022aa0       ?GeomOverlapCallback_CapsuleCapsule@@YA_NAEBVPxGeometry@physx@@AEBVPxTransform@2@01PEAUTriggerCache@Gu@2@@Z 0000000180023aa0 f   GuOverlapTests.obj
 0001:00022cc0       ?GeomOverlapCallback_CapsuleBox@@YA_NAEBVPxGeometry@physx@@AEBVPxTransform@2@01PEAUTriggerCache@Gu@2@@Z 0000000180023cc0 f   GuOverlapTests.obj
 0001:00022fa0       ?GeomOverlapCallback_CapsuleConvex@@YA_NAEBVPxGeometry@physx@@AEBVPxTransform@2@01PEAUTriggerCache@Gu@2@@Z 0000000180023fa0 f   GuOverlapTests.obj
 0001:00023050       ?GeomOverlapCallback_BoxBox@@YA_NAEBVPxGeometry@physx@@AEBVPxTransform@2@01PEAUTriggerCache@Gu@2@@Z 0000000180024050 f   GuOverlapTests.obj
 0001:000231b0       ?GeomOverlapCallback_BoxConvex@@YA_NAEBVPxGeometry@physx@@AEBVPxTransform@2@01PEAUTriggerCache@Gu@2@@Z 00000001800241b0 f   GuOverlapTests.obj
 0001:00023260       ?GeomOverlapCallback_ConvexConvex@@YA_NAEBVPxGeometry@physx@@AEBVPxTransform@2@01PEAUTriggerCache@Gu@2@@Z 0000000180024260 f   GuOverlapTests.obj
 0001:00024080       ?GeomOverlapCallback_HeightfieldUnregistered@@YA_NAEBVPxGeometry@physx@@AEBVPxTransform@2@01PEAUTriggerCache@Gu@2@@Z 0000000180025080 f   GuOverlapTests.obj
 0001:00025ec0       ?intersectBoxConvex@@YA_NAEBVPxBoxGeometry@physx@@AEBVPxTransform@2@AEBVConvexMesh@Gu@2@AEBVPxMeshScale@2@1PEAVPxVec3@2@@Z 0000000180026ec0 f   GuOverlapTests.obj
 0001:00026790       ?intersectCapsuleConvex@@YA_NAEBVPxCapsuleGeometry@physx@@AEBVPxTransform@2@AEBVConvexMesh@Gu@2@AEBVPxMeshScale@2@1PEAVPxVec3@2@@Z 0000000180027790 f   GuOverlapTests.obj
 0001:00026fa0       ?intersectSphereConvex@@YA_NAEBVPxTransform@physx@@MAEBVConvexMesh@Gu@2@AEBVPxMeshScale@2@0PEAVPxVec3@2@@Z 0000000180027fa0 f   GuOverlapTests.obj
 0001:00027680       ?projectHull_@@YA?AVPxVec3@physx@@AEBUConvexHullData@Gu@2@AEAM1AEBV12@AEBVPxMat33@2@@Z 0000000180028680 f   GuOverlapTests.obj
 0001:00028720       ?raycast_heightField_unregistered@@YAIAEBVPxGeometry@physx@@AEBVPxTransform@2@AEBVPxVec3@2@2MV?$PxFlags@W4Enum@PxHitFlag@physx@@G@2@IPEIAUPxRaycastHit@2@@Z 0000000180029720 f   GuRaycastTests.obj
 0001:00029480       ??$traceSegment@UHFTraceSegmentCallback@?A0x7ce52419@@$0A@$0A@@HeightFieldTraceUtil@Gu@physx@@QEBAXAEBVPxVec3@2@0MPEAUHFTraceSegmentCallback@?A0x7ce52419@@AEBVPxBounds3@2@_NPEBV32@@Z 000000018002a480 f   GuRaycastTests.obj
 0001:0002ae20       ?faceHit@HFTraceSegmentCallback@?A0x7ce52419@@QEAA_NAEBVHeightFieldUtil@Gu@physx@@AEBVPxVec3@5@IMM@Z 000000018002be20 f   GuRaycastTests.obj
 0001:0002cac0       ??1AccumCallback@?A0x6bf2891a@Gu@physx@@UEAA@XZ 000000018002dac0 f i GuCCDSweepConvexMesh.obj
 0001:0003bc50       ?computeSweepConvexPlane@@YAIAEBVPxConvexMeshGeometry@physx@@PEAUConvexHullData@Gu@2@AEBIAEBVPxTransform@2@AEBVPxVec3@2@4@Z 000000018003cc50 f   GuSweepSharedTests.obj
 0001:00043780       ?sweepCapsule_HeightfieldUnregistered@@YA_NAEBVPxGeometry@physx@@AEBVPxTransform@2@AEBVPxCapsuleGeometry@2@1AEBVCapsule@Gu@2@AEBVPxVec3@2@MAEAUPxSweepHit@2@V?$PxFlags@W4Enum@PxHitFlag@physx@@G@2@M@Z 0000000180044780 f   GuSweepTests.obj
 0001:000437c0       ?sweepBox_HeightfieldUnregistered@@YA_NAEBVPxGeometry@physx@@AEBVPxTransform@2@AEBVPxBoxGeometry@2@1AEBVBox@Gu@2@AEBVPxVec3@2@MAEAUPxSweepHit@2@V?$PxFlags@W4Enum@PxHitFlag@physx@@G@2@M@Z 00000001800447c0 f   GuSweepTests.obj
 0001:00043800       ?sweepConvex_HeightfieldUnregistered@@YA_NAEBVPxGeometry@physx@@AEBVPxTransform@2@AEBVPxConvexMeshGeometry@2@1AEBVPxVec3@2@MAEAUPxSweepHit@2@V?$PxFlags@W4Enum@PxHitFlag@physx@@G@2@M@Z 0000000180044800 f   GuSweepTests.obj
 0001:0004a610       ?split@@YAIAEBVPxBounds3@physx@@IQEIAIIAEBVAABBTreeBuildParams@Gu@2@@Z 000000018004b610 f   GuAABBTreeBuild.obj
 0001:0004c5e0       ??1CB@?1??SweepEstimateAnyShapeMesh@Gu@physx@@YAMAEBUCCDShape@23@0AEBVPxTransform@3@111MM@Z@UEAA@XZ 000000018004d5e0 f   GuCCDSweepConvexMesh.obj
 0001:0004c5e0       ??1CapsuleMeshContactGenerationCallback_NoScale@?A0x951b4974@@UEAA@XZ 000000018004d5e0 f   GuContactCapsuleMesh.obj
 0001:0004c5e0       ??1CapsuleMeshContactGenerationCallback_Scale@?A0x951b4974@@UEAA@XZ 000000018004d5e0 f   GuContactCapsuleMesh.obj
 0001:0004c5e0       ??1?$IntersectBoxVsMeshCallback@$00@?A0x58369943@@UEAA@XZ 000000018004d5e0 f   GuMidphaseRTree.obj
 0001:0004c5e0       ??1?$IntersectBoxVsMeshCallback@$0A@@?A0x58369943@@UEAA@XZ 000000018004d5e0 f   GuMidphaseRTree.obj
 0001:0004c5e0       ??1?$IntersectCapsuleVsMeshCallback@$00@?A0x58369943@@UEAA@XZ 000000018004d5e0 f   GuMidphaseRTree.obj
 0001:0004c5e0       ??1?$IntersectCapsuleVsMeshCallback@$0A@@?A0x58369943@@UEAA@XZ 000000018004d5e0 f   GuMidphaseRTree.obj
 0001:0004c5e0       ??1?$IntersectSphereVsMeshCallback@$00@?A0x58369943@@UEAA@XZ 000000018004d5e0 f   GuMidphaseRTree.obj
 0001:0004c5e0       ??1?$IntersectSphereVsMeshCallback@$0A@@?A0x58369943@@UEAA@XZ 000000018004d5e0 f   GuMidphaseRTree.obj
 0001:0004c5f0       ??_GAccumCallback@?A0x6bf2891a@Gu@physx@@UEAAPEAXI@Z 000000018004d5f0 f   GuCCDSweepConvexMesh.obj
 0001:0004c620       ??_GCB@?1??SweepEstimateAnyShapeMesh@Gu@physx@@YAMAEBUCCDShape@23@0AEBVPxTransform@3@111MM@Z@UEAAPEAXI@Z 000000018004d620 f   GuCCDSweepConvexMesh.obj
 0001:0004c620       ??_G?$IntersectCapsuleVsMeshCallback@$00@?A0x58369943@@UEAAPEAXI@Z 000000018004d620 f   GuMidphaseRTree.obj
 0001:0004c620       ??_G?$IntersectCapsuleVsMeshCallback@$0A@@?A0x58369943@@UEAAPEAXI@Z 000000018004d620 f   GuMidphaseRTree.obj
 0001:0004c650       ??_GEntityReportContainerCallback@?A0x6bf2891a@Gu@physx@@UEAAPEAXI@Z 000000018004d650 f   GuCCDSweepConvexMesh.obj
 0001:0004fb00       ?calcCenterAndBounds@ConvexTriangles@?A0x6bf2891a@Gu@physx@@AEBAXAEBVPxTransform@4@@Z 0000000180050b00 f   GuCCDSweepConvexMesh.obj
 0001:000502b0       ?getPolygonNormal@ConvexTriangles@?A0x6bf2891a@Gu@physx@@QEBA?AVPxVec3@4@I@Z 00000001800512b0 f   GuCCDSweepConvexMesh.obj
 0001:000507a0       ?onEvent@EntityReportContainerCallback@?A0x6bf2891a@Gu@physx@@UEAA_NIPEAI@Z 00000001800517a0 f   GuCCDSweepConvexMesh.obj
 0001:00050820       ?processHit@AccumCallback@?A0x6bf2891a@Gu@physx@@UEAA_NAEBUPxRaycastHit@4@AEBVPxVec3@4@11AEAMPEBI@Z 0000000180051820 f   GuCCDSweepConvexMesh.obj
 0001:00050880       ?processHit@CB@?1??SweepEstimateAnyShapeMesh@Gu@physx@@YAMAEBUCCDShape@34@0AEBVPxTransform@4@111MM@Z@UEAA_NAEBUPxRaycastHit@4@AEBVPxVec3@4@33AEAMPEBI@Z 0000000180051880 f   GuCCDSweepConvexMesh.obj
 0001:00053a20       ??$CCDSweep@VBoxV@Gu@physx@@V123@@Gu@physx@@YAMAEAVBoxV@01@0AEBVPxTransform@1@111AEBT__m128@@AEAVPxVec3@1@3M@Z 0000000180054a20 f   GuCCDSweepPrimitives.obj
 0001:00054120       ??$CCDSweep@VBoxV@Gu@physx@@VConvexHullV@23@@Gu@physx@@YAMAEAVBoxV@01@AEAVConvexHullV@01@AEBVPxTransform@1@222AEBT__m128@@AEAVPxVec3@1@4M@Z 0000000180055120 f   GuCCDSweepPrimitives.obj
 0001:00054820       ??$CCDSweep@VCapsuleV@Gu@physx@@V123@@Gu@physx@@YAMAEAVCapsuleV@01@0AEBVPxTransform@1@111AEBT__m128@@AEAVPxVec3@1@3M@Z 0000000180055820 f   GuCCDSweepPrimitives.obj
 0001:00054f20       ??$CCDSweep@VCapsuleV@Gu@physx@@VBoxV@23@@Gu@physx@@YAMAEAVCapsuleV@01@AEAVBoxV@01@AEBVPxTransform@1@222AEBT__m128@@AEAVPxVec3@1@4M@Z 0000000180055f20 f   GuCCDSweepPrimitives.obj
 0001:00055620       ??$CCDSweep@VCapsuleV@Gu@physx@@VConvexHullV@23@@Gu@physx@@YAMAEAVCapsuleV@01@AEAVConvexHullV@01@AEBVPxTransform@1@222AEBT__m128@@AEAVPxVec3@1@4M@Z 0000000180056620 f   GuCCDSweepPrimitives.obj
 0001:00055d20       ??$CCDSweep@VConvexHullV@Gu@physx@@V123@@Gu@physx@@YAMAEAVConvexHullV@01@0AEBVPxTransform@1@111AEBT__m128@@AEAVPxVec3@1@3M@Z 0000000180056d20 f   GuCCDSweepPrimitives.obj
 0001:00056420       ??$CCDSweep@VTriangleV@Gu@physx@@VBoxV@23@@Gu@physx@@YAMAEAVTriangleV@01@AEAVBoxV@01@AEBVPxTransform@1@222AEBT__m128@@AEAVPxVec3@1@4M@Z 0000000180057420 f   GuCCDSweepPrimitives.obj
 0001:00056b20       ??$CCDSweep@VTriangleV@Gu@physx@@VCapsuleV@23@@Gu@physx@@YAMAEAVTriangleV@01@AEAVCapsuleV@01@AEBVPxTransform@1@222AEBT__m128@@AEAVPxVec3@1@4M@Z 0000000180057b20 f   GuCCDSweepPrimitives.obj
 0001:00057220       ??$CCDSweep@VTriangleV@Gu@physx@@VConvexHullV@23@@Gu@physx@@YAMAEAVTriangleV@01@AEAVConvexHullV@01@AEBVPxTransform@1@222AEBT__m128@@AEAVPxVec3@1@4M@Z 0000000180058220 f   GuCCDSweepPrimitives.obj
 0001:000660e0       ?doBoxBoxContactGeneration@@YAHAEAVContactBuffer@Gu@physx@@AEBVPxVec3@3@1AEAIAEBVMatrix34@Cm@3@3M@Z 00000001800670e0 f   GuContactBoxBox.obj
 0001:0006746c       $LN541                     000000018006846c     GuContactBoxBox.obj
 0001:00067490       ?generateContacts@@YAHAEAVContactBuffer@Gu@physx@@AEBVPxVec3@3@MM1AEBVMatrix34@Cm@3@2M@Z 0000000180068490 f   GuContactBoxBox.obj
 0001:00068980       ?GuCapsuleOBBOverlap3@@YA_NAEBVSegment@Gu@physx@@MAEBVBox@23@PEAMPEAVPxVec3@3@@Z 0000000180069980 f   GuContactCapsuleBox.obj
 0001:00068d30       ?GuGenerateEEContacts2@@YAXAEAVContactBuffer@Gu@physx@@AEBVSegment@23@MAEBVBox@23@AEBVPxVec3@3@M@Z 0000000180069d30 f   GuContactCapsuleBox.obj
 0001:000695c0       ?GuGenerateEEContacts@@YAXAEAVContactBuffer@Gu@physx@@AEBVSegment@23@MAEBVBox@23@AEBVPxVec3@3@@Z 000000018006a5c0 f   GuContactCapsuleBox.obj
 0001:00069d80       ?GuGenerateVFContacts@@YAXAEAVContactBuffer@Gu@physx@@AEBVSegment@23@MAEBVBox@23@AEBVPxVec3@3@M@Z 000000018006ad80 f   GuContactCapsuleBox.obj
 0001:0006a020       ?GuTestAxis@@YA_NAEBVPxVec3@physx@@AEBVSegment@Gu@2@MAEBVBox@42@AEAM@Z 000000018006b020 f   GuContactCapsuleBox.obj
 0001:0006b150       ?GuCapsuleConvexOverlap@@YA_NAEBVSegment@Gu@physx@@MAEBUPolygonalData@23@AEBVFastVertex2ShapeScaling@Cm@3@AEBVPxTransform@3@PEAMPEAVPxVec3@3@_N@Z 000000018006c150 f   GuContactCapsuleConvex.obj
 0001:0006ba10       ?GuGenerateEEContacts2b@@YAXAEAVContactBuffer@Gu@physx@@AEBVSegment@23@MAEBVMatrix34@Cm@3@AEBUPolygonalData@23@AEBVFastVertex2ShapeScaling@63@AEBVPxVec3@3@M@Z 000000018006ca10 f   GuContactCapsuleConvex.obj
 0001:0006c300       ?GuGenerateEEContacts@@YAXAEAVContactBuffer@Gu@physx@@AEBVSegment@23@MMAEBUPolygonalData@23@AEBVPxTransform@3@AEBVFastVertex2ShapeScaling@Cm@3@AEBVPxVec3@3@@Z 000000018006d300 f   GuContactCapsuleConvex.obj
 0001:0006cbf0       ?GuGenerateVFContacts2@@YAXAEAVContactBuffer@Gu@physx@@AEBVPxTransform@3@AEBUPolygonalData@23@AEBVPxMeshScale@3@IPEIBVPxVec3@3@MAEBV73@M@Z 000000018006dbf0 f   GuContactCapsuleConvex.obj
 0001:0006e020       ??0CapsuleMeshContactGeneration@?A0x951b4974@@QEAA@AEAVContactBuffer@Gu@physx@@AEBVPxTransform@4@AEBVSegment@34@MMM@Z 000000018006f020 f   GuContactCapsuleMesh.obj
 0001:0006e270       ??_GCapsuleHeightfieldContactGenerationCallback@?A0x951b4974@@UEAAPEAXI@Z 000000018006f270 f   GuContactCapsuleMesh.obj
 0001:0006e2a0       ??_GCapsuleMeshContactGenerationCallback_NoScale@?A0x951b4974@@UEAAPEAXI@Z 000000018006f2a0 f   GuContactCapsuleMesh.obj
 0001:0006e2d0       ??_GCapsuleMeshContactGenerationCallback_Scale@?A0x951b4974@@UEAAPEAXI@Z 000000018006f2d0 f   GuContactCapsuleMesh.obj
 0001:0006e300       ?PxcCapsuleTriOverlap3@@YA_NEAEBVSegment@Gu@physx@@MPEIBVPxVec3@3@PEIAMPEIAV43@@Z 000000018006f300 f   GuContactCapsuleMesh.obj
 0001:0006e810       ?PxcGenerateEEContacts2@@YAXAEBVMatrix34@Cm@physx@@AEAVContactBuffer@Gu@3@AEBVSegment@53@MPEIBVPxVec3@3@AEBV73@IM@Z 000000018006f810 f   GuContactCapsuleMesh.obj
 0001:0006ec00       ?PxcGenerateEEContacts@@YAXAEBVMatrix34@Cm@physx@@AEAVContactBuffer@Gu@3@AEBVSegment@53@MPEIBVPxVec3@3@AEBV73@I@Z 000000018006fc00 f   GuContactCapsuleMesh.obj
 0001:0006f010       ?PxcGenerateVFContacts@@YAXAEBVMatrix34@Cm@physx@@AEAVContactBuffer@Gu@3@AEBVSegment@53@MPEIBVPxVec3@3@AEBV73@IM@Z 0000000180070010 f   GuContactCapsuleMesh.obj
 0001:0006f560       ?PxcTestAxis@@YA_NAEBVPxVec3@physx@@AEBVSegment@Gu@2@MPEIBV12@AEAM@Z 0000000180070560 f   GuContactCapsuleMesh.obj
 0001:00070290       ?onEvent@CapsuleHeightfieldContactGenerationCallback@?A0x951b4974@@UEAA_NIPEAI@Z 0000000180071290 f   GuContactCapsuleMesh.obj
 0001:000706b0       ?processHit@CapsuleMeshContactGenerationCallback_NoScale@?A0x951b4974@@UEAA_NAEBUPxRaycastHit@physx@@AEBVPxVec3@4@11AEAMPEBI@Z 00000001800716b0 f   GuContactCapsuleMesh.obj
 0001:00070780       ?processHit@CapsuleMeshContactGenerationCallback_Scale@?A0x951b4974@@UEAA_NAEBUPxRaycastHit@physx@@AEBVPxVec3@4@11AEAMPEBI@Z 0000000180071780 f   GuContactCapsuleMesh.obj
 0001:000709e0       ?processTriangle@CapsuleMeshContactGeneration@?A0x951b4974@@QEAAXIAEBVTrianglePadded@Gu@physx@@E@Z 00000001800719e0 f   GuContactCapsuleMesh.obj
 0001:000714e0       ?GuContactHullHull@@YA_NAEBUPolygonalData@Gu@physx@@0AEBVPxBounds3@3@1AEBVPxTransform@3@2AEBUNarrowPhaseParams@23@AEAVContactBuffer@23@AEBVFastVertex2ShapeScaling@Cm@3@5_N6@Z 00000001800724e0 f   GuContactConvexConvex.obj
 0001:000735c0       ?GuTestFacesSepAxesBackfaceRoughPass@@YA_NAEBUPolygonalData@Gu@physx@@0AEBVMatrix34@Cm@3@1AEBVFastVertex2ShapeScaling@53@21AEBVPxVec3@3@3AEAMAEAV73@AEAIMM3@Z 00000001800745c0 f   GuContactConvexConvex.obj
 0001:00073c70       ?PxcBruteForceOverlapBackface@@YA_NAEBVPxBounds3@physx@@0AEBUPolygonalData@Gu@2@1AEBVMatrix34@Cm@2@2AEBVFastVertex2ShapeScaling@62@322AEBVPxVec3@2@AEAI5AEAMAEAV82@AEAW4PxcSepAxisType@42@MM@Z 0000000180074c70 f   GuContactConvexConvex.obj
 0001:00074680       ?PxcFindSeparatingAxes@@YAXAEAVSeparatingAxes@Gu@physx@@PEIBIIAEBUPolygonalData@23@AEBVMatrix34@Cm@3@AEBVPxPlane@3@3AEBVPxBounds3@3@MAEBVFastVertex2ShapeScaling@63@@Z 0000000180075680 f   GuContactConvexConvex.obj
 0001:00074e30       ?PxcSegmentAABBIntersect@@YA_NAEBVPxVec3@physx@@000AEBVMatrix34@Cm@2@@Z 0000000180075e30 f   GuContactConvexConvex.obj
 0001:000751c0       ?PxcTestFacesSepAxesBackface@@YA_NAEBUPolygonalData@Gu@physx@@0AEBVMatrix34@Cm@3@1AEBVFastVertex2ShapeScaling@53@21AEBVPxVec3@3@AEAMAEAV73@AEAIPEIAI6MM3@Z 00000001800761c0 f   GuContactConvexConvex.obj
 0001:00075c00       ?prepareData@@YAXAEAVPxPlane@physx@@0AEAVPxBounds3@2@1AEBV32@2AEBV12@3AEBVFastVertex2ShapeScaling@Cm@2@4AEBVMatrix34@52@5M@Z 0000000180076c00 f   GuContactConvexConvex.obj
 0001:00076170       ??0ConvexMeshContactGeneration@?A0xcce33876@@QEAA@AEAV?$InlineArray@I$0EEA@V?$ReflectionAllocator@I@shdfnd@physx@@@shdfnd@physx@@AEBVPxTransform@4@1AEBUPolygonalData@Gu@4@AEBVMatrix34@Cm@4@3AEBVFastVertex2ShapeScaling@94@MM_NM11AEAVContactBuffer@74@@Z 0000000180077170 f   GuContactConvexMesh.obj
 0001:00076750       ??_GConvexVsHeightfieldContactGenerationCallback@?A0xcce33876@@UEAAPEAXI@Z 0000000180077750 f   GuContactConvexMesh.obj
 0001:000768f0       ?computeFeatureCode@@YA?AW4FeatureCode@@AEBVPxVec3@physx@@PEBV23@@Z 00000001800778f0 f   GuContactConvexMesh.obj
 0001:00077250       ?contactHullHeightfield2@@YA_NAEBUPolygonalData@Gu@physx@@AEBVPxBounds3@3@AEBVPxHeightFieldGeometry@3@AEBVPxTransform@3@3AEBUNarrowPhaseParams@23@AEAVContactBuffer@23@AEBVFastVertex2ShapeScaling@Cm@3@_N@Z 0000000180078250 f   GuContactConvexMesh.obj
 0001:000779b0       ?contactHullMesh2@@YA_NAEBUPolygonalData@Gu@physx@@AEBVPxBounds3@3@AEBUPxTriangleMeshGeometryLL@3@AEBVPxTransform@3@3AEBUNarrowPhaseParams@23@AEAVContactBuffer@23@AEBVFastVertex2ShapeScaling@Cm@3@6_N7@Z 00000001800789b0 f   GuContactConvexMesh.obj
 0001:00078160       ?generateContacts@ConvexMeshContactGeneration@?A0xcce33876@@QEBA_NAEBVPxPlane@physx@@PEIBVPxVec3@4@AEBV54@AEAV54@MI@Z 0000000180079160 f   GuContactConvexMesh.obj
 0001:00079070       ?generateLastContacts@ConvexMeshContactGeneration@?A0xcce33876@@QEAAXXZ 000000018007a070 f   GuContactConvexMesh.obj
 0001:000795c4       $LN197                     000000018007a5c4     GuContactConvexMesh.obj
 0001:000795e0       ?onEvent@ConvexVsHeightfieldContactGenerationCallback@?A0xcce33876@@UEAA_NIPEAI@Z 000000018007a5e0 f   GuContactConvexMesh.obj
 0001:00079a00       ?performEETests@@YA_NAEBUPolygonalData@Gu@physx@@EAEBVMatrix34@Cm@3@1PEIBVPxVec3@3@IPEIBIAEBVPxPlane@3@AEBVFastVertex2ShapeScaling@53@AEAV63@AEAMMMII@Z 000000018007aa00 f   GuContactConvexMesh.obj
 0001:0007ab90       ?processTriangle@ConvexMeshContactGeneration@?A0xcce33876@@QEAAXPEBVPxVec3@physx@@IEPEBI@Z 000000018007bb90 f   GuContactConvexMesh.obj
 0001:0007b220       ?testFacesSepAxesBackface@@YA_NAEBUPolygonalData@Gu@physx@@AEBVMatrix34@Cm@3@11AEBVPxVec3@3@PEIBV63@AEBVFastVertex2ShapeScaling@53@AEAIPEAIAEAMAEAV63@5M_N@Z 000000018007c220 f   GuContactConvexMesh.obj
 0001:0007bd60       ?triangleConvexTest@@YA_NAEBUPolygonalData@Gu@physx@@EIPEIBVPxVec3@3@AEBVPxPlane@3@AEBV43@AEBVMatrix34@Cm@3@444AEBVFastVertex2ShapeScaling@73@MMAEAV43@AEAMAEA_N_N@Z 000000018007cd60 f   GuContactConvexMesh.obj
 0001:0007dca0       ?ContactReductionAllIn@@YAXAEAVContactBuffer@Gu@physx@@IIAEBVPxMat33@3@PEIBVPxVec3@3@PEIBE@Z 000000018007eca0 f   GuContactPolygonPolygon.obj
 0001:0007eef0       ?PointInConvexPolygon2D_OutCodes@@YA_NPEIBMIMMMMAEAE@Z 000000018007fef0 f   GuContactPolygonPolygon.obj
 0001:00080aa0       ?transformVertices@@YAXAEAM000PEIAMIPEIBVPxVec3@physx@@PEIBEAEBVPxMat33@2@@Z 0000000180081aa0 f   GuContactPolygonPolygon.obj
 0001:00081be0       ??$sort@USortKey@@U?$Less@USortKey@@@shdfnd@physx@@VNullAllocator@?A0x36591462@@@shdfnd@physx@@YAXPEAUSortKey@@IAEBU?$Less@USortKey@@@01@AEBVNullAllocator@?A0x36591462@@I@Z 0000000180082be0 f   GuContactSphereMesh.obj
 0001:00082010       ??1SphereMeshContactGenerationCallback_NoScale@?A0x36591462@@UEAA@XZ 0000000180083010 f   GuContactSphereMesh.obj
 0001:00082040       ??1SphereMeshContactGenerationCallback_Scale@?A0x36591462@@UEAA@XZ 0000000180083040 f   GuContactSphereMesh.obj
 0001:00082070       ??_GSphereHeightfieldContactGenerationCallback@?A0x36591462@@UEAAPEAXI@Z 0000000180083070 f   GuContactSphereMesh.obj
 0001:000820a0       ??_GSphereMeshContactGenerationCallback_NoScale@?A0x36591462@@UEAAPEAXI@Z 00000001800830a0 f   GuContactSphereMesh.obj
 0001:000820f0       ??_GSphereMeshContactGenerationCallback_Scale@?A0x36591462@@UEAAPEAXI@Z 00000001800830f0 f   GuContactSphereMesh.obj
 0001:00082140       ?closestPtPointTriangle@@YA?AVPxVec3@physx@@AEBV12@000AEAM1AEAW4FeatureCode@Gu@2@@Z 0000000180083140 f   GuContactSphereMesh.obj
 0001:00083054       $LN258                     0000000180084054     GuContactSphereMesh.obj
 0001:000841e4       $LN520                     00000001800851e4     GuContactSphereMesh.obj
 0001:000841fc       $LN519                     00000001800851fc     GuContactSphereMesh.obj
 0001:00084220       ?generateLastContacts@SphereMeshContactGeneration@?A0x36591462@@QEAAXXZ 0000000180085220 f   GuContactSphereMesh.obj
 0001:00084984       $LN200                     0000000180085984     GuContactSphereMesh.obj
 0001:000849a0       ?onEvent@SphereHeightfieldContactGenerationCallback@?A0x36591462@@UEAA_NIPEAI@Z 00000001800859a0 f   GuContactSphereMesh.obj
 0001:00084a80       ?processHit@SphereMeshContactGenerationCallback_NoScale@?A0x36591462@@UEAA_NAEBUPxRaycastHit@physx@@AEBVPxVec3@4@11AEAMPEBI@Z 0000000180085a80 f   GuContactSphereMesh.obj
 0001:00084ab0       ?processHit@SphereMeshContactGenerationCallback_Scale@?A0x36591462@@UEAA_NAEBUPxRaycastHit@physx@@AEBVPxVec3@4@11AEAMPEBI@Z 0000000180085ab0 f   GuContactSphereMesh.obj
 0001:00084d60       ?processTriangle@SphereMeshContactGeneration@?A0x36591462@@QEAAXIAEBVPxVec3@physx@@00PEBI@Z 0000000180085d60 f   GuContactSphereMesh.obj
 0001:000866f0       ?convexHullLoad@@YA_NAEAUConvexHullData@Gu@physx@@AEAVPxInputStream@3@AEAV?$PxBitAndDataT@I$0IAAAAAAA@@3@@Z 00000001800876f0 f   GuConvexMesh.obj
 0001:00088f30       ?HullProjectionCB_BigConvex@@YAXAEBUPolygonalData@Gu@physx@@AEBVPxVec3@3@AEBVMatrix34@Cm@3@AEBVFastVertex2ShapeScaling@63@AEAM4@Z 0000000180089f30 f   GuShapeConvex.obj
 0001:000892d0       ?HullProjectionCB_Box@@YAXAEBUPolygonalData@Gu@physx@@AEBVPxVec3@3@AEBVMatrix34@Cm@3@AEBVFastVertex2ShapeScaling@63@AEAM4@Z 000000018008a2d0 f   GuShapeConvex.obj
 0001:00089410       ?HullProjectionCB_SmallConvex@@YAXAEBUPolygonalData@Gu@physx@@AEBVPxVec3@3@AEBVMatrix34@Cm@3@AEBVFastVertex2ShapeScaling@63@AEAM4@Z 000000018008a410 f   GuShapeConvex.obj
 0001:000895d0       ?SelectClosestEdgeCB_Box@@YAIAEBUPolygonalData@Gu@physx@@AEBVFastVertex2ShapeScaling@Cm@3@AEBVPxVec3@3@@Z 000000018008a5d0 f   GuShapeConvex.obj
 0001:00089ba0       ?SelectClosestEdgeCB_Convex@@YAIAEBUPolygonalData@Gu@physx@@AEBVFastVertex2ShapeScaling@Cm@3@AEBVPxVec3@3@@Z 000000018008aba0 f   GuShapeConvex.obj
 0001:0008ae60       ?case0@@YAXIIIAEAVPxVec3@physx@@AEBV12@1PEAMAEAM@Z 000000018008be60 f   GuDistanceSegmentBox.obj
 0001:0008b0e0       ?distanceLineBoxSquared@@YAMAEBVPxVec3@physx@@000AEBVPxMat33@2@PEAMPEAV12@@Z 000000018008c0e0 f   GuDistanceSegmentBox.obj
 0001:0008b840       ?face@@YAXIIIAEAVPxVec3@physx@@AEBV12@11PEAMAEAM@Z 000000018008c840 f   GuDistanceSegmentBox.obj
 0001:0008f8c0       ?calculateContactInformation@Gu@physx@@YAXPEIBT__m128@@0PEAVFacet@12@AEBUGjkConvex@12@2_NAEAUGjkOutput@12@@Z 00000001800908c0 f   GuEPA.obj
 0001:00090e50       ?getClosestPtPointTriangle@Gu@physx@@YA?AT__m128@@PEIAT3@AEBT3@PEAIAEAI@Z 0000000180091e50 f   GuGJKSimplex.obj
 0001:0009aa90       ?intersectHeightFieldBox@@YA_NAEBVHeightFieldTraceUtil@Gu@physx@@AEBVBox@23@@Z 000000018009ba90 f   GuOverlapTestsHF.obj
 0001:0009b5c0       ?intersectHeightFieldCapsule@@YA_NAEBVHeightFieldUtil@Gu@physx@@AEBVPxCapsuleGeometry@3@AEBVPxTransform@3@@Z 000000018009c5c0 f   GuOverlapTestsHF.obj
 0001:0009bce0       ?intersectHeightFieldConvex@@YA_NAEBVHeightFieldTraceUtil@Gu@physx@@AEBVPxTransform@3@AEBVConvexMesh@23@1AEBVPxMeshScale@3@@Z 000000018009cce0 f   GuOverlapTestsHF.obj
 0001:0009d1a0       ?intersectHeightFieldSphere@@YA_NAEBVHeightFieldUtil@Gu@physx@@AEBVSphere@23@@Z 000000018009e1a0 f   GuOverlapTestsHF.obj
 0001:0009d560       ?multiplyInverseRTLeft@@YA?AVMatrix34@Cm@physx@@AEBV123@0@Z 000000018009e560 f   GuOverlapTestsHF.obj
 0001:000a7d80       ?BuildBV4FromRoot@@YA_NAEAVBV4Tree@Gu@physx@@PEAUBV4Node@@AEAUBV4BuildParams@@_NM@Z 00000001800a8d80 f   GuBV4Build.obj
 0001:000a8290       ?_BuildBV4@@YAXAEBVAABBTree@Gu@physx@@PEAUBV4Node@@PEBVAABBTreeNode@23@AEAUBV4BuildParams@@@Z 00000001800a9290 f   GuBV4Build.obj
 0001:000a85d0       ?_Check@Local@?5??BuildBV32Internal@@YA_NAEAVBV32Tree@Gu@physx@@AEBVAABBTree@45@PEAVSourceMesh@45@M@Z@SAXPEAVAABBTreeNode@45@@Z 00000001800a95d0 f   GuBV32Build.obj
 0001:000a85d0       ?_Check@Local@?4??BuildBV4Internal@@YA_NAEAVBV4Tree@Gu@physx@@AEBVAABBTree@45@PEAVSourceMesh@45@M_N@Z@SAXPEAVAABBTreeNode@45@@Z 00000001800a95d0 f   GuBV4Build.obj
 0001:000a8750       ?_CheckMD@Local@?5??BuildBV32Internal@@YA_NAEAVBV32Tree@Gu@physx@@AEBVAABBTree@45@PEAVSourceMesh@45@M@Z@SAXPEBVAABBTreeNode@45@AEAI4@Z 00000001800a9750 f   GuBV32Build.obj
 0001:000a8750       ?_CheckMD@Local@?4??BuildBV4Internal@@YA_NAEAVBV4Tree@Gu@physx@@AEBVAABBTree@45@PEAVSourceMesh@45@M_N@Z@SAXPEBVAABBTreeNode@45@AEAI5@Z 00000001800a9750 f   GuBV4Build.obj
 0001:000a87c0       ?_ComputeMaxValues@@YAXPEBUBV4Node@@AEAVPxVec3@physx@@1@Z 00000001800a97c0 f   GuBV4Build.obj
 0001:000a8900       ?_FlattenQ@@YAXQEAU?$BVDataPackedT@VQuantizedAABB@Gu@physx@@@Gu@physx@@IAEAIPEBUBV4Node@@11AEBVPxVec3@3@333@Z 00000001800a9900 f   GuBV4Build.obj
 0001:000a8de0       ?_Walk@Local@?1??walk@AABBTree@Gu@physx@@QEBAIP6A_NPEBVAABBTreeNode@45@IPEAX@Z1@Z@SAX0AEAI321@Z 00000001800a9de0 f   GuBV4Build.obj
 0001:000a93e0       ?gReorderCallback@@YA_NPEBVAABBTreeNode@Gu@physx@@IPEAX@Z 00000001800aa3e0 f   GuBV4Build.obj
 0001:000a9430       ?local_BuildHierarchy@@YAXPEIAVAABBTreeNode@Gu@physx@@PEIBVPxBounds3@3@PEIBVPxVec3@3@AEAUBuildStats@23@QEIBV123@I@Z 00000001800aa430 f   GuBV4Build.obj
 0001:000a94f0       ?local_Split@@YAIPEIBVAABBTreeNode@Gu@physx@@PEIBVPxBounds3@3@PEIBVPxVec3@3@I@Z 00000001800aa4f0 f   GuBV4Build.obj
 0001:000a9650       ?local_Subdivide@@YA_NPEIAVAABBTreeNode@Gu@physx@@PEIBVPxBounds3@3@PEIBVPxVec3@3@AEAUBuildStats@23@QEIBV123@I@Z 00000001800aa650 f   GuBV4Build.obj
 0001:000a9980       ?precomputeNodeSorting@@YAIAEBVPxBounds3@physx@@0@Z 00000001800aa980 f   GuBV4Build.obj
 0001:000a9cb0       ?setNode@@YAPEAUBV4Node@@AEBVAABBTree@Gu@physx@@PEAU1@IPEBVAABBTreeNode@34@AEAUBV4BuildParams@@@Z 00000001800aacb0 f   GuBV4Build.obj
 0001:000a9df0       ?setPrimitive@@YAXAEBVAABBTree@Gu@physx@@PEAUBV4Node@@IPEBVAABBTreeNode@23@M@Z 00000001800aadf0 f   GuBV4Build.obj
 0001:000a9fd0       ??$BV4_ProcessStreamKajiyaNoOrderQ@$00VLeafFunction_BoxSweepAny@?A0x88741555@@UBoxSweepParams@2@@@YAHPEIBU?$BVDataPackedT@VQuantizedAABB@Gu@physx@@@Gu@physx@@IPEIAUBoxSweepParams@?A0x88741555@@@Z 00000001800aafd0 f   GuBV4_AABBSweep.obj
 0001:000aa480       ??$BV4_ProcessStreamKajiyaNoOrderQ@$00VLeafFunction_BoxSweepAnyCB@?A0x88741555@@UGenericSweepParamsCB@2@@@YAHPEIBU?$BVDataPackedT@VQuantizedAABB@Gu@physx@@@Gu@physx@@IPEIAUGenericSweepParamsCB@?A0x88741555@@@Z 00000001800ab480 f   GuBV4_AABBSweep.obj
 0001:000aab60       ??$BV4_ProcessStreamKajiyaOrderedQ@$00VLeafFunction_BoxSweepClosest@?A0x88741555@@UBoxSweepParams@2@@@YAXPEIBU?$BVDataPackedT@VQuantizedAABB@Gu@physx@@@Gu@physx@@IPEIAUBoxSweepParams@?A0x88741555@@@Z 00000001800abb60 f   GuBV4_AABBSweep.obj
 0001:000ab2d0       ??$BV4_ProcessStreamKajiyaOrderedQ@$00VLeafFunction_BoxSweepClosestCB@?A0x88741555@@UGenericSweepParamsCB@2@@@YAXPEIBU?$BVDataPackedT@VQuantizedAABB@Gu@physx@@@Gu@physx@@IPEIAUGenericSweepParamsCB@?A0x88741555@@@Z 00000001800ac2d0 f   GuBV4_AABBSweep.obj
 0001:000abfa0       ??$doBruteForceTests@VLeafFunction_BoxSweepAnyCB@?A0x88741555@@VLeafFunction_BoxSweepClosestCB@2@UGenericSweepParamsCB@2@@Gu@physx@@YAXIPEIAUGenericSweepParamsCB@?A0x88741555@@@Z 00000001800acfa0 f   GuBV4_AABBSweep.obj
 0001:000ac860       ?prepareSweepData@@YAXAEBVBox@Gu@physx@@AEBVPxVec3@3@MPEIAUBoxSweepParams@?A0x88741555@@@Z 00000001800ad860 f   GuBV4_AABBSweep.obj
 0001:000ac860       ?prepareSweepData@@YAXAEBVBox@Gu@physx@@AEBVPxVec3@3@MPEIAUBoxSweepParams@?A0x32830d07@@@Z 00000001800ad860 f   GuBV4_CapsuleSweepAA.obj
 0001:000acf80       ?triBoxSweep@@YA_NPEIAUBoxSweepParams@?A0x88741555@@I_N@Z 00000001800adf80 f   GuBV4_AABBSweep.obj
 0001:000adbd0       ??$BV4_ProcessStreamSwizzledNoOrderQ@VLeafFunction_BoxOverlapAll@?A0x6ea70503@@UOBBParamsAll@@@@YAHPEIBU?$BVDataPackedT@VQuantizedAABB@Gu@physx@@@Gu@physx@@IPEIAUOBBParamsAll@@@Z 00000001800aebd0 f   GuBV4_BoxOverlap.obj
 0001:000ae4b0       ??$BV4_ProcessStreamSwizzledNoOrderQ@VLeafFunction_BoxOverlapAny@?A0x6ea70503@@UOBBParams@@@@YAHPEIBU?$BVDataPackedT@VQuantizedAABB@Gu@physx@@@Gu@physx@@IPEIAUOBBParams@@@Z 00000001800af4b0 f   GuBV4_BoxOverlap.obj
 0001:000aed10       ??$BV4_ProcessStreamSwizzledNoOrderQ@VLeafFunction_BoxOverlapCB@?A0x6ea70503@@UOBBParamsCB@@@@YAHPEIBU?$BVDataPackedT@VQuantizedAABB@Gu@physx@@@Gu@physx@@IPEIAUOBBParamsCB@@@Z 00000001800afd10 f   GuBV4_BoxOverlap.obj
 0001:000af7a0       ??$BV4_ProcessStreamSwizzledNoOrderQ@VLeafFunction_CapsuleOverlapAll@?A0x6ea70503@@UCapsuleParamsAll@@@@YAHPEIBU?$BVDataPackedT@VQuantizedAABB@Gu@physx@@@Gu@physx@@IPEIAUCapsuleParamsAll@@@Z 00000001800b07a0 f   GuBV4_BoxOverlap.obj
 0001:000affd0       ??$BV4_ProcessStreamSwizzledNoOrderQ@VLeafFunction_CapsuleOverlapAny@?A0x6ea70503@@UCapsuleParamsAny@@@@YAHPEIBU?$BVDataPackedT@VQuantizedAABB@Gu@physx@@@Gu@physx@@IPEIAUCapsuleParamsAny@@@Z 00000001800b0fd0 f   GuBV4_BoxOverlap.obj
 0001:000b29f0       ?CapsuleVsTriangle_SAT@@YA_NAEBVPxVec3@physx@@00PEIBUCapsuleParamsAny@@@Z 00000001800b39f0 f   GuBV4_BoxOverlap.obj
 0001:000b3640       ??$BV4_ProcessStreamSwizzledNoOrderQ@VLeafFunction_CapsuleSweepAny@?A0x982805c8@@UCapsuleSweepParams@2@@@YAHPEIBU?$BVDataPackedT@VQuantizedAABB@Gu@physx@@@Gu@physx@@IPEIAUCapsuleSweepParams@?A0x982805c8@@@Z 00000001800b4640 f   GuBV4_CapsuleSweep.obj
 0001:000b3c30       ??$BV4_ProcessStreamSwizzledOrderedQ@VLeafFunction_CapsuleSweepClosest@?A0x982805c8@@UCapsuleSweepParams@2@@@YAXPEIBU?$BVDataPackedT@VQuantizedAABB@Gu@physx@@@Gu@physx@@IPEIAUCapsuleSweepParams@?A0x982805c8@@@Z 00000001800b4c30 f   GuBV4_CapsuleSweep.obj
 0001:000b4b50       ?computeBoxAroundCapsule@@YAXAEBVCapsule@Gu@physx@@AEAVBox@23@AEAVPxVec3@3@@Z 00000001800b5b50 f   GuBV4_CapsuleSweep.obj
 0001:000b4b50       ?computeBoxAroundCapsule@@YAXAEBVCapsule@Gu@physx@@AEAVBox@23@AEAVPxVec3@3@@Z 00000001800b5b50 f   GuBV4_CapsuleSweepAA.obj
 0001:000b4ce0       ?prepareSweepData@@YAXAEBVBox@Gu@physx@@AEBVPxVec3@3@MPEIAUBoxSweepParams@?A0x982805c8@@@Z 00000001800b5ce0 f   GuBV4_CapsuleSweep.obj
 0001:000b4ce0       ?prepareSweepData@@YAXAEBVBox@Gu@physx@@AEBVPxVec3@3@MPEIAUBoxSweepParams@?A0xa90aee63@@@Z 00000001800b5ce0 f   GuBV4_OBBSweep.obj
 0001:000b5770       ?testQuad@@YAXPEIBUCapsuleSweepParams@?A0x982805c8@@AEBVPxVec3@physx@@11111MMAEAMAEA_N@Z 00000001800b6770 f   GuBV4_CapsuleSweep.obj
 0001:000b5c30       ?testTri@@YA_NPEIBUCapsuleSweepParams@?A0x982805c8@@AEBVPxVec3@physx@@1111MMAEAMAEA_N@Z 00000001800b6c30 f   GuBV4_CapsuleSweep.obj
 0001:000b6090       ?triCapsuleSweep@@YA_NPEIAUCapsuleSweepParams@?A0x982805c8@@I_N@Z 00000001800b7090 f   GuBV4_CapsuleSweep.obj
 0001:000b6dd0       ??$BV4_ProcessStreamKajiyaNoOrderQ@$00VLeafFunction_CapsuleSweepAny@?A0x32830d07@@UCapsuleSweepParams@2@@@YAHPEIBU?$BVDataPackedT@VQuantizedAABB@Gu@physx@@@Gu@physx@@IPEIAUCapsuleSweepParams@?A0x32830d07@@@Z 00000001800b7dd0 f   GuBV4_CapsuleSweepAA.obj
 0001:000b7270       ??$BV4_ProcessStreamKajiyaOrderedQ@$00VLeafFunction_CapsuleSweepClosest@?A0x32830d07@@UCapsuleSweepParams@2@@@YAXPEIBU?$BVDataPackedT@VQuantizedAABB@Gu@physx@@@Gu@physx@@IPEIAUCapsuleSweepParams@?A0x32830d07@@@Z 00000001800b8270 f   GuBV4_CapsuleSweepAA.obj
 0001:000b80f0       ?testQuad@@YAXPEIBUCapsuleSweepParams@?A0x32830d07@@AEBVPxVec3@physx@@11111MMAEAMAEA_N@Z 00000001800b90f0 f   GuBV4_CapsuleSweepAA.obj
 0001:000b85b0       ?testTri@@YA_NPEIBUCapsuleSweepParams@?A0x32830d07@@AEBVPxVec3@physx@@1111MMAEAMAEA_N@Z 00000001800b95b0 f   GuBV4_CapsuleSweepAA.obj
 0001:000b8a10       ?triCapsuleSweep@@YA_NPEIAUCapsuleSweepParams@?A0x32830d07@@I_N@Z 00000001800b9a10 f   GuBV4_CapsuleSweepAA.obj
 0001:000b9600       ??$BV4_ProcessStreamSwizzledNoOrderQ@VLeafFunction_BoxSweepAny@?A0xa90aee63@@UBoxSweepParams@2@@@YAHPEIBU?$BVDataPackedT@VQuantizedAABB@Gu@physx@@@Gu@physx@@IPEIAUBoxSweepParams@?A0xa90aee63@@@Z 00000001800ba600 f   GuBV4_OBBSweep.obj
 0001:000b9bf0       ??$BV4_ProcessStreamSwizzledNoOrderQ@VLeafFunction_BoxSweepAnyCB@?A0xa90aee63@@UGenericSweepParamsCB@2@@@YAHPEIBU?$BVDataPackedT@VQuantizedAABB@Gu@physx@@@Gu@physx@@IPEIAUGenericSweepParamsCB@?A0xa90aee63@@@Z 00000001800babf0 f   GuBV4_OBBSweep.obj
 0001:000ba440       ??$BV4_ProcessStreamSwizzledOrderedQ@VLeafFunction_BoxSweepClosest@?A0xa90aee63@@UBoxSweepParams@2@@@YAXPEIBU?$BVDataPackedT@VQuantizedAABB@Gu@physx@@@Gu@physx@@IPEIAUBoxSweepParams@?A0xa90aee63@@@Z 00000001800bb440 f   GuBV4_OBBSweep.obj
 0001:000bace0       ??$BV4_ProcessStreamSwizzledOrderedQ@VLeafFunction_BoxSweepClosestCB@?A0xa90aee63@@UGenericSweepParamsCB@2@@@YAXPEIBU?$BVDataPackedT@VQuantizedAABB@Gu@physx@@@Gu@physx@@IPEIAUGenericSweepParamsCB@?A0xa90aee63@@@Z 00000001800bbce0 f   GuBV4_OBBSweep.obj
 0001:000bc010       ??$doBruteForceTests@VLeafFunction_BoxSweepAnyCB@?A0xa90aee63@@VLeafFunction_BoxSweepClosestCB@2@UGenericSweepParamsCB@2@@Gu@physx@@YAXIPEIAUGenericSweepParamsCB@?A0xa90aee63@@@Z 00000001800bd010 f   GuBV4_OBBSweep.obj
 0001:000bd260       ?triBoxSweep@@YA_NPEIAUBoxSweepParams@?A0xa90aee63@@I_N@Z 00000001800be260 f   GuBV4_OBBSweep.obj
 0001:000be030       ??$BV4_ProcessStreamKajiyaNoOrderQ@$0A@VLeafFunction_RaycastAny@?A0x18f35fa8@@URayParams@@@@YAHPEIBU?$BVDataPackedT@VQuantizedAABB@Gu@physx@@@Gu@physx@@IPEIAURayParams@@@Z 00000001800bf030 f   GuBV4_Raycast.obj
 0001:000be3f0       ??$BV4_ProcessStreamKajiyaNoOrderQ@$0A@VLeafFunction_RaycastCB@?A0x18f35fa8@@URayParamsCB@2@@@YAHPEIBU?$BVDataPackedT@VQuantizedAABB@Gu@physx@@@Gu@physx@@IPEIAURayParamsCB@?A0x18f35fa8@@@Z 00000001800bf3f0 f   GuBV4_Raycast.obj
 0001:000be7b0       ??$BV4_ProcessStreamKajiyaOrderedQ@$0A@VLeafFunction_RaycastClosest@?A0x18f35fa8@@URayParams@@@@YAXPEIBU?$BVDataPackedT@VQuantizedAABB@Gu@physx@@@Gu@physx@@IPEIAURayParams@@@Z 00000001800bf7b0 f   GuBV4_Raycast.obj
 0001:000bf720       ?doLeafTest@LeafFunction_RaycastAny@?A0x18f35fa8@@SAHPEIAURayParams@@I@Z 00000001800c0720 f   GuBV4_Raycast.obj
 0001:000bfbf0       ?doLeafTest@LeafFunction_RaycastCB@?A0x18f35fa8@@SAHPEIAURayParamsCB@2@I@Z 00000001800c0bf0 f   GuBV4_Raycast.obj
 0001:000c00a0       ?doLeafTest@LeafFunction_RaycastClosest@?A0x18f35fa8@@SAHPEIAURayParams@@I@Z 00000001800c10a0 f   GuBV4_Raycast.obj
 0001:000c0540       ??$BV4_ProcessStreamSwizzledNoOrderQ@VLeafFunction_SphereOverlapAll@?A0x6f8fe402@@USphereParamsAll@@@@YAHPEIBU?$BVDataPackedT@VQuantizedAABB@Gu@physx@@@Gu@physx@@IPEIAUSphereParamsAll@@@Z 00000001800c1540 f   GuBV4_SphereOverlap.obj
 0001:000c0a80       ??$BV4_ProcessStreamSwizzledNoOrderQ@VLeafFunction_SphereOverlapAny@?A0x6f8fe402@@USphereParams@@@@YAHPEIBU?$BVDataPackedT@VQuantizedAABB@Gu@physx@@@Gu@physx@@IPEIAUSphereParams@@@Z 00000001800c1a80 f   GuBV4_SphereOverlap.obj
 0001:000c1540       ?__SphereTriangle@@YAHPEIBUSphereParams@@I@Z 00000001800c2540 f   GuBV4_SphereOverlap.obj
 0001:000c1a80       ??$BV4_ProcessStreamKajiyaNoOrderQ@$00VLeafFunction_SphereSweepAny@?A0x15a61aae@@USphereSweepParams@2@@@YAHPEIBU?$BVDataPackedT@VQuantizedAABB@Gu@physx@@@Gu@physx@@IPEIAUSphereSweepParams@?A0x15a61aae@@@Z 00000001800c2a80 f   GuBV4_SphereSweep.obj
 0001:000c1f20       ??$BV4_ProcessStreamKajiyaOrderedQ@$00VExLeafTestSweepCB@?A0x15a61aae@@UBoxSweepParamsCB@2@@@YAXPEIBU?$BVDataPackedT@VQuantizedAABB@Gu@physx@@@Gu@physx@@IPEIAUBoxSweepParamsCB@?A0x15a61aae@@@Z 00000001800c2f20 f   GuBV4_SphereSweep.obj
 0001:000c2970       ??$BV4_ProcessStreamKajiyaOrderedQ@$00VLeafFunction_SphereSweepClosest@?A0x15a61aae@@USphereSweepParams@2@@@YAXPEIBU?$BVDataPackedT@VQuantizedAABB@Gu@physx@@@Gu@physx@@IPEIAUSphereSweepParams@?A0x15a61aae@@@Z 00000001800c3970 f   GuBV4_SphereSweep.obj
 0001:000c3c00       ?triSphereSweep@@YA_NPEIAUSphereSweepParams@?A0x15a61aae@@I_N@Z 00000001800c4c00 f   GuBV4_SphereSweep.obj
 0001:000c3ff0       ?boxSweepVsMesh@@YAHAEAVSweepHit@Gu@physx@@AEBVBV4Tree@23@PEBM2AEBVBox@23@AEBVPxVec3@3@M_N55@Z 00000001800c4ff0 f   GuMidphaseBV4.obj
 0001:000c4280       ?capsuleSweepVsMesh@@YA_NAEAVSweepHit@Gu@physx@@AEBVBV4Tree@23@AEBVCapsule@23@AEBVPxVec3@3@MPEBVPxMat44@3@I@Z 00000001800c5280 f   GuMidphaseBV4.obj
 0001:000c4b80       ?gBoxMeshSweepCallback@@YA_NPEAXAEBVPxVec3@physx@@11IAEAM@Z 00000001800c5b80 f   GuMidphaseBV4.obj
 0001:000c4c00       ?gBoxVsMeshCallback@@YA_NPEAXAEBVPxVec3@physx@@11IPEBI@Z 00000001800c5c00 f   GuMidphaseBV4.obj
 0001:000c4ee0       ?gCapsuleMeshSweepCallback@@YA_NPEAXAEBVPxVec3@physx@@11IAEAM@Z 00000001800c5ee0 f   GuMidphaseBV4.obj
 0001:000c4f60       ?gCapsuleVsMeshCallback@@YA_NPEAXAEBVPxVec3@physx@@11IPEBI@Z 00000001800c5f60 f   GuMidphaseBV4.obj
 0001:000c52d0       ?gConvexVsMeshSweepCallback@@YA_NPEAXAEBVPxVec3@physx@@11IAEAM@Z 00000001800c62d0 f   GuMidphaseBV4.obj
 0001:000c5340       ?gRayCallback@@YA?AW4HitCode@Gu@physx@@PEAXAEBVPxVec3@3@11IMMM@Z 00000001800c6340 f   GuMidphaseBV4.obj
 0001:000c5970       ?gSphereVsMeshCallback@@YA_NPEAXAEBVPxVec3@physx@@11IPEBI@Z 00000001800c6970 f   GuMidphaseBV4.obj
 0001:000c5c50       ?gVolumeCallback@@YA_NPEAXAEBVPxVec3@physx@@11IPEBI@Z 00000001800c6c50 f   GuMidphaseBV4.obj
 0001:000cb174       $LN273                     00000001800cc174     GuMeshQuery.obj
 0001:000cb8c0       ?onEvent@HfTrianglesEntityReport2@?A0x43a716c0@@UEAA_NIPEAI@Z 00000001800cc8c0 f   GuMeshQuery.obj
 0001:000cc860       ??$intersectAnyVsMesh@$0A@@@YA_NPEBVSphere@Gu@physx@@PEBVCapsule@12@PEBVBox@12@AEBVTriangleMesh@12@AEBVPxTransform@2@AEBVPxMeshScale@2@PEAULimitedResults@12@@Z 00000001800cd860 f   GuMidphaseRTree.obj
 0001:000ccb10       ??$intersectAnyVsMeshT@$00$00@@YA_NPEBVSphere@Gu@physx@@PEBVCapsule@12@PEBVBox@12@AEBVTriangleMesh@12@AEBVPxTransform@2@AEBVPxMeshScale@2@PEAULimitedResults@12@@Z 00000001800cdb10 f   GuMidphaseRTree.obj
 0001:000cced0       ??$intersectAnyVsMeshT@$00$0A@@@YA_NPEBVSphere@Gu@physx@@PEBVCapsule@12@PEBVBox@12@AEBVTriangleMesh@12@AEBVPxTransform@2@AEBVPxMeshScale@2@PEAULimitedResults@12@@Z 00000001800cded0 f   GuMidphaseRTree.obj
 0001:000cd580       ??$intersectAnyVsMeshT@$01$00@@YA_NPEBVSphere@Gu@physx@@PEBVCapsule@12@PEBVBox@12@AEBVTriangleMesh@12@AEBVPxTransform@2@AEBVPxMeshScale@2@PEAULimitedResults@12@@Z 00000001800ce580 f   GuMidphaseRTree.obj
 0001:000cd9e0       ??$intersectAnyVsMeshT@$01$0A@@@YA_NPEBVSphere@Gu@physx@@PEBVCapsule@12@PEBVBox@12@AEBVTriangleMesh@12@AEBVPxTransform@2@AEBVPxMeshScale@2@PEAULimitedResults@12@@Z 00000001800ce9e0 f   GuMidphaseRTree.obj
 0001:000ce340       ??$intersectAnyVsMeshT@$0A@$0A@@@YA_NPEBVSphere@Gu@physx@@PEBVCapsule@12@PEBVBox@12@AEBVTriangleMesh@12@AEBVPxTransform@2@AEBVPxMeshScale@2@PEAULimitedResults@12@@Z 00000001800cf340 f   GuMidphaseRTree.obj
 0001:000ceb70       ??_G?$IntersectBoxVsMeshCallback@$00@?A0x58369943@@UEAAPEAXI@Z 00000001800cfb70 f   GuMidphaseRTree.obj
 0001:000ceb70       ??_G?$IntersectBoxVsMeshCallback@$0A@@?A0x58369943@@UEAAPEAXI@Z 00000001800cfb70 f   GuMidphaseRTree.obj
 0001:000ceba0       ??_G?$IntersectSphereVsMeshCallback@$00@?A0x58369943@@UEAAPEAXI@Z 00000001800cfba0 f   GuMidphaseRTree.obj
 0001:000ceba0       ??_G?$IntersectSphereVsMeshCallback@$0A@@?A0x58369943@@UEAAPEAXI@Z 00000001800cfba0 f   GuMidphaseRTree.obj
 0001:000cf090       ?computeSweptAABBAroundOBB@@YAXAEBVBox@Gu@physx@@AEAVPxVec3@3@11AEAM@Z 00000001800d0090 f   GuMidphaseRTree.obj
 0001:000cf3e0       ?processHit@?$IntersectBoxVsMeshCallback@$00@?A0x58369943@@UEAA_NAEBUPxRaycastHit@physx@@AEBVPxVec3@4@11AEAMPEBI@Z 00000001800d03e0 f   GuMidphaseRTree.obj
 0001:000cf6a0       ?processHit@?$IntersectBoxVsMeshCallback@$0A@@?A0x58369943@@UEAA_NAEBUPxRaycastHit@physx@@AEBVPxVec3@4@11AEAMPEBI@Z 00000001800d06a0 f   GuMidphaseRTree.obj
 0001:000cf9a0       ?processHit@?$IntersectCapsuleVsMeshCallback@$00@?A0x58369943@@UEAA_NAEBUPxRaycastHit@physx@@AEBVPxVec3@4@11AEAMPEBI@Z 00000001800d09a0 f   GuMidphaseRTree.obj
 0001:000cfac0       ?processHit@?$IntersectCapsuleVsMeshCallback@$0A@@?A0x58369943@@UEAA_NAEBUPxRaycastHit@physx@@AEBVPxVec3@4@11AEAMPEBI@Z 00000001800d0ac0 f   GuMidphaseRTree.obj
 0001:000cfe50       ?processHit@?$IntersectSphereVsMeshCallback@$00@?A0x58369943@@UEAA_NAEBUPxRaycastHit@physx@@AEBVPxVec3@4@11AEAMPEBI@Z 00000001800d0e50 f   GuMidphaseRTree.obj
 0001:000cff70       ?processHit@?$IntersectSphereVsMeshCallback@$0A@@?A0x58369943@@UEAA_NAEBUPxRaycastHit@physx@@AEBVPxVec3@4@11AEAMPEBI@Z 00000001800d0f70 f   GuMidphaseRTree.obj
 0001:000dc5b0       ?sweepSphereTriangle@@YA_NAEBVPxTriangle@physx@@AEBVPxVec3@2@M1MAEAUPxSweepHit@2@AEAV32@V?$PxFlags@W4Enum@PxHitFlag@physx@@G@2@_N@Z 00000001800dd5b0 f   GuSweepsMesh.obj
 0001:000def40       ?BuildBV32Internal@@YA_NAEAVBV32Tree@Gu@physx@@AEBVAABBTree@23@PEAVSourceMesh@23@M@Z 00000001800dff40 f   GuBV32Build.obj
 0001:000df3e0       ?_BuildBV32@@YAXAEBVAABBTree@Gu@physx@@PEAUBV32Node@@PEBVAABBTreeNode@23@MAEAI@Z 00000001800e03e0 f   GuBV32Build.obj
 0001:000df590       ?_Flatten@Local@?8??BuildBV32Internal@@YA_NAEAVBV32Tree@Gu@physx@@AEBVAABBTree@45@PEAVSourceMesh@45@M@Z@SAXQEAUBV32Data@45@IAEAIPEBUBV32Node@@44I@Z 00000001800e0590 f   GuBV32Build.obj
 0001:000df7b0       ?fillInNodes@@YAXPEBVAABBTreeNode@Gu@physx@@IIPEAPEBV123@AEAI@Z 00000001800e07b0 f   GuBV32Build.obj
 0001:000df870       ?gReorderCallback@@YA_NPEBVAABBTreeNode@Gu@physx@@IPEAX@Z 00000001800e0870 f   GuBV32Build.obj
 0001:000df8c0       ?setNode@@YAPEAUBV32Node@@AEBVAABBTree@Gu@physx@@PEAU1@IPEBVAABBTreeNode@34@M@Z 00000001800e08c0 f   GuBV32Build.obj
 0001:000dfb20       ?calculateContacts@Gu@physx@@YAXAEBT__m128@@0PEAT3@00PEAVPersistentContact@12@AEAI0@Z 00000001800e0b20 f   GuPCMContactBoxBox.obj
 0001:000e07c0       ?doBoxBoxGenerateContacts@Gu@physx@@YAIAEBT__m128@@0AEBVPsMatTransformV@aos@shdfnd@2@10PEAVPersistentContact@12@AEAI@Z 00000001800e17c0 f   GuPCMContactBoxBox.obj
 0001:000e2384       $LN1863                    00000001800e3384     GuPCMContactBoxBox.obj
 0001:000e23a0       ?getIncidentPolygon@Gu@physx@@YAXPEAT__m128@@AEAT3@AEBT3@AEBVPsMatTransformV@aos@shdfnd@2@2@Z 00000001800e33a0 f   GuPCMContactBoxBox.obj
 0001:000e4af0       ?fullContactsGenerationBoxConvex@Gu@physx@@YA_NPEBUGjkConvex@12@0AEBVPsTransformV@aos@shdfnd@2@1PEAVPersistentContact@12@AEAVContactBuffer@12@AEAVPersistentContactManifold@12@AEAT__m128@@AEBT__m128@@66_N7PEAVRenderOutput@Cm@2@M@Z 00000001800e5af0 f   GuPCMContactBoxConvex.obj
 0001:000e4ec0       ?generateOrProcessContactsBoxConvex@Gu@physx@@YA_NPEBUGjkConvex@12@0AEBVPsTransformV@aos@shdfnd@2@1AEBVPsMatTransformV@562@W4GjkStatus@12@AEAUGjkOutput@12@AEAVPersistentContactManifold@12@AEAVContactBuffer@12@IT__m128@@7_NMPEAVRenderOutput@Cm@2@@Z 00000001800e5ec0 f   GuPCMContactBoxConvex.obj
 0001:000e9160       ?fullContactsGenerationCapsuleConvex@Gu@physx@@YA_NAEBVCapsuleV@12@AEBVConvexHullV@12@AEBVPsMatTransformV@aos@shdfnd@2@AEBVPsTransformV@672@3PEAVPersistentContact@12@AEAVContactBuffer@12@_NAEAVPersistentContactManifold@12@AEAT__m128@@AEBT__m128@@M96PEAVRenderOutput@Cm@2@M@Z 00000001800ea160 f   GuPCMContactCapsuleConvex.obj
 0001:000f0160       ?pcmDistancePointTriangleSquared@Gu@physx@@YA?AT__m128@@AEBT3@000EAEAT3@AEA_N2@Z 00000001800f1160 f   GuPCMContactConvexCommon.obj
 0001:000f7360       ?convexHullHasScale0@Gu@physx@@YA_NAEBVConvexHullV@12@0AEBVPsTransformV@aos@shdfnd@2@1AEBVPsMatTransformV@562@AEAUGjkOutput@12@AEAVPersistentContactManifold@12@AEAVContactBuffer@12@IT__m128@@6_NMPEAVRenderOutput@Cm@2@@Z 00000001800f8360 f   GuPCMContactConvexConvex.obj
 0001:000f75d0       ?convexHullNoScale0@Gu@physx@@YA_NAEBVConvexHullV@12@0AEBVPsTransformV@aos@shdfnd@2@1AEBVPsMatTransformV@562@AEAUGjkOutput@12@AEAVPersistentContactManifold@12@AEAVContactBuffer@12@IT__m128@@6_NMPEAVRenderOutput@Cm@2@@Z 00000001800f85d0 f   GuPCMContactConvexConvex.obj
 0001:000f7840       ?fullContactsGenerationConvexConvex@Gu@physx@@YA_NPEBUGjkConvex@12@0AEBVPsTransformV@aos@shdfnd@2@1_N2PEAVPersistentContact@12@AEAVContactBuffer@12@AEAVPersistentContactManifold@12@AEAT__m128@@AEBT__m128@@772PEAVRenderOutput@Cm@2@M@Z 00000001800f8840 f   GuPCMContactConvexConvex.obj
 0001:000f7bc0       ?generateOrProcessContactsConvexConvex@Gu@physx@@YA_NPEBUGjkConvex@12@0AEBVPsTransformV@aos@shdfnd@2@1AEBVPsMatTransformV@562@W4GjkStatus@12@AEAUGjkOutput@12@AEAVPersistentContactManifold@12@AEAVContactBuffer@12@IT__m128@@7_N8MPEAVRenderOutput@Cm@2@@Z 00000001800f8bc0 f   GuPCMContactConvexConvex.obj
 0001:000ffe60       ?testEdgeNormal@Gu@physx@@YA_NAEBUPolygonalData@12@0PEAVSupportLocal@12@1AEBVPsMatTransformV@aos@shdfnd@2@2AEBT__m128@@AEAT8@4W4FeatureStatus@12@AEAW4912@@Z 0000000180100e60 f   GuPCMContactGenBoxConvex.obj
 0001:001003d0       ?testFaceNormal@Gu@physx@@YA_NAEBUPolygonalData@12@0PEAVSupportLocal@12@1AEBVPsMatTransformV@aos@shdfnd@2@2AEBT__m128@@AEAT8@AEAI4W4FeatureStatus@12@AEAW4912@@Z 00000001801013d0 f   GuPCMContactGenBoxConvex.obj
 0001:00102a20       ?generatedFaceContacts@Gu@physx@@YAXAEBVCapsuleV@12@AEAUPolygonalData@12@PEAVSupportLocal@12@AEBVPsMatTransformV@aos@shdfnd@2@PEAVPersistentContact@12@AEAIAEBT__m128@@6@Z 0000000180103a20 f   GuPCMContactGenSphereCapsule.obj
 0001:00102ec0       ?testSATCapsulePoly@Gu@physx@@YA_NAEBVCapsuleV@12@AEBUPolygonalData@12@PEAVSupportLocal@12@AEBT__m128@@AEAT6@4@Z 0000000180103ec0 f   GuPCMContactGenSphereCapsule.obj
 0001:001056f0       ?fullContactsGenerationSphereConvex@Gu@physx@@YA_NAEBVCapsuleV@12@AEBVConvexHullV@12@AEBVPsTransformV@aos@shdfnd@2@2PEAVPersistentContact@12@AEAVContactBuffer@12@_NAEAVPersistentContactManifold@12@AEAT__m128@@AEBT__m128@@_NPEAVRenderOutput@Cm@2@@Z 00000001801066f0 f   GuPCMContactSphereConvex.obj
 0001:0010a050       ?generatedPolyContacts@physx@@YAXAEBUPolygonalData@Gu@1@AEBUHullPolygonData@31@AEBVTriangleV@31@IEPEAVSupportLocal@31@PEAVMeshPersistentContact@31@AEAIAEBT__m128@@6PEAVRenderOutput@Cm@1@@Z 000000018010b050 f   GuPCMTriangleContactGen.obj
 0001:0010ad20       ?generatedTriangleContacts@physx@@YAXAEBVTriangleV@Gu@1@IEAEBUPolygonalData@31@AEBUHullPolygonData@31@PEAVSupportLocal@31@PEAVMeshPersistentContact@31@AEAIAEBT__m128@@6PEAVRenderOutput@Cm@1@@Z 000000018010bd20 f   GuPCMTriangleContactGen.obj
 0001:0010baa0       ?testPolyEdgeNormal@physx@@YA_NAEBVTriangleV@Gu@1@EAEBUPolygonalData@31@PEAV?$SupportLocalImpl@VTriangleV@Gu@physx@@@31@PEAVSupportLocal@31@AEBT__m128@@AEAT7@5W4FeatureStatus@31@AEAW4831@@Z 000000018010caa0 f   GuPCMTriangleContactGen.obj
 0001:0010bfa0       ?testPolyFaceNormal@physx@@YA_NAEBVTriangleV@Gu@1@AEBUPolygonalData@31@PEAV?$SupportLocalImpl@VTriangleV@Gu@physx@@@31@PEAVSupportLocal@31@AEBT__m128@@AEAT7@AEAI5W4FeatureStatus@31@AEAW4831@@Z 000000018010cfa0 f   GuPCMTriangleContactGen.obj
 0001:0010c440       ?addBatchManifoldContactsToSingleManifold@@YA?AT__m128@@PEAVSinglePersistentContactManifold@Gu@physx@@PEAVMeshPersistentContact@34@IPEAUPCMContactPatch@34@AEBT1@E@Z 000000018010d440 f   GuPersistentContactManifold.obj
 0001:0010d6e0       ?distancePointTriangleSquaredLocal@Gu@physx@@YA?AT__m128@@AEBT3@000@Z 000000018010e6e0 f   GuPersistentContactManifold.obj
 0001:0010dc90       ?drawManifoldPoint@@YAXAEBVPersistentContact@Gu@physx@@AEBVPsTransformV@aos@shdfnd@3@1AEAVRenderOutput@Cm@3@I@Z 000000018010ec90 f   GuPersistentContactManifold.obj
 0001:00112d30       ?inflateTriangle@@YA?AVPxTriangle@physx@@AEBV12@M@Z 0000000180113d30 f   GuSweepBoxTriangle_FeatureBased.obj
 0001:00114ed0       ?extrudeBox@@YAIAEBVPxBounds3@physx@@PEBVPxTransform@2@AEBVPxVec3@2@PEAVPxTriangle@2@2@Z 0000000180115ed0 f   GuSweepCapsuleBox.obj
 0001:001154a0       ?extrudeMesh@@YAIIPEBVPxTriangle@physx@@AEBVPxVec3@2@PEAV12@PEAI1@Z 00000001801164a0 f   GuSweepCapsuleBox.obj
 0001:001163b0       ?edgeEdgeDist@@YAXAEAVPxVec3@physx@@0AEBV12@111@Z 00000001801173b0 f   GuSweepCapsuleCapsule.obj
 0001:0011e050       ?runBackupProcedure@@YA_NAEAVPxVec3@physx@@0AEBV12@1AEBVPxTriangle@2@@Z 000000018011f050 f   GuSweepTriangleUtils.obj
 0001:0011ec70       $$000000                   000000018011fc70     MSVCRT:chkstk.obj
 0001:0011ecd0       $$000000                   000000018011fcd0     MSVCRT:amdsecgs.obj
 0001:0011ed00       $$000000                   000000018011fd00     MSVCRT:svml_ssinf4_dispatch.obj
 0001:0011f020       capture_current_context    0000000180120020 f   MSVCRT:gs_report.obj
 0001:0011f090       capture_previous_context   0000000180120090 f   MSVCRT:gs_report.obj
 0001:0011f104       ?dllmain_crt_dispatch@@YAHQEAUHINSTANCE__@@KQEAX@Z 0000000180120104 f   MSVCRT:dll_dllmain.obj
 0001:0011f154       ?dllmain_crt_process_attach@@YAHQEAUHINSTANCE__@@QEAX@Z 0000000180120154 f   MSVCRT:dll_dllmain.obj
 0001:0011f26c       ?dllmain_crt_process_detach@@YAH_N@Z 000000018012026c f   MSVCRT:dll_dllmain.obj
 0001:0011f2f0       ?dllmain_dispatch@@YAHQEAUHINSTANCE__@@KQEAX@Z 00000001801202f0 f   MSVCRT:dll_dllmain.obj
 0001:0011f620       $$000000                   0000000180120620     MSVCRT:svml_ssinf4_sse2.obj
 0001:0011ff60       $$000000                   0000000180120f60     MSVCRT:svml_ssinf4_sse4.obj
 0001:00120cd0       $$000000                   0000000180121cd0     MSVCRT:svml_s_sin_cout.obj
 0001:00120df0       $$000000                   0000000180121df0     MSVCRT:guard_dispatch.obj
 0001:00120e10       $$000000                   0000000180121e10     MSVCRT:guard_xfg_dispatch.obj
 0001:00120e30       ?dtor$0@?0??PxCreateCollection@@YAPEAVPxCollection@physx@@XZ@4HA 0000000180121e30 f   CmCollection.obj
 0001:00120e60       ?dtor$1@?0??PxCreateCollection@@YAPEAVPxCollection@physx@@XZ@4HA 0000000180121e60 f   CmCollection.obj
 0001:00120e70       ?dtor$2@?0??PxCreateCollection@@YAPEAVPxCollection@physx@@XZ@4HA 0000000180121e70 f   CmCollection.obj
 0001:00120e80       ?dtor$0@?0??sweepBox_HeightFieldGeom_Precise@@YA_NAEBVPxGeometry@physx@@AEBVPxTransform@2@AEBVPxBoxGeometry@2@1AEBVBox@Gu@2@AEBVPxVec3@2@MAEAUPxSweepHit@2@V?$PxFlags@W4Enum@PxHitFlag@physx@@G@2@M@Z@4HA 0000000180121e80 f   GuCCTSweepTests.obj
 0001:00120e90       ?dtor$0@?0??computePenetration@PxGeometryQuery@physx@@SA_NAEAVPxVec3@2@AEAMAEBVPxGeometry@2@AEBVPxTransform@2@23@Z@4HA 0000000180121e90 f   GuGeometryQuery.obj
 0001:00120e90       ?dtor$0@?0??getWorldBounds@PxGeometryQuery@physx@@SA?AVPxBounds3@2@AEBVPxGeometry@2@AEBVPxTransform@2@M@Z@4HA 0000000180121e90 f   GuGeometryQuery.obj
 0001:00120ea0       ?dtor$0@?0??overlap@PxGeometryQuery@physx@@SA_NAEBVPxGeometry@2@AEBVPxTransform@2@01@Z@4HA 0000000180121ea0 f   GuGeometryQuery.obj
 0001:00120eb0       ?dtor$0@?0??pointDistance@PxGeometryQuery@physx@@SAMAEBVPxVec3@2@AEBVPxGeometry@2@AEBVPxTransform@2@PEAV32@@Z@4HA 0000000180121eb0 f   GuGeometryQuery.obj
 0001:00120ec0       ?dtor$0@?0??raycast@PxGeometryQuery@physx@@SAIAEBVPxVec3@2@0AEBVPxGeometry@2@AEBVPxTransform@2@MV?$PxFlags@W4Enum@PxHitFlag@physx@@G@2@IPEIAUPxRaycastHit@2@@Z@4HA 0000000180121ec0 f   GuGeometryQuery.obj
 0001:00120ed0       ?dtor$0@?0??sweep@PxGeometryQuery@physx@@SA_NAEBVPxVec3@2@MAEBVPxGeometry@2@AEBVPxTransform@2@12AEAUPxSweepHit@2@V?$PxFlags@W4Enum@PxHitFlag@physx@@G@2@M@Z@4HA 0000000180121ed0 f   GuGeometryQuery.obj
 0001:00120ee0       ?dtor$0@?0???0GuMeshFactory@physx@@QEAA@XZ@4HA 0000000180121ee0 f   GuMeshFactory.obj
 0001:00120ef0       ?dtor$1@?0???0GuMeshFactory@physx@@QEAA@XZ@4HA 0000000180121ef0 f   GuMeshFactory.obj
 0001:00120f00       ?dtor$2@?0???0GuMeshFactory@physx@@QEAA@XZ@4HA 0000000180121f00 f   GuMeshFactory.obj
 0001:00120f10       ?dtor$3@?0???0GuMeshFactory@physx@@QEAA@XZ@4HA 0000000180121f10 f   GuMeshFactory.obj
 0001:00120f30       ?dtor$0@?0??addFactoryListener@GuMeshFactory@physx@@QEAAXAEAVGuMeshFactoryListener@2@@Z@4HA 0000000180121f30 f   GuMeshFactory.obj
 0001:00120f40       ?dtor$0@?0??createBVHStructure@GuMeshFactory@physx@@IEAAPEAVPxBVHStructure@2@AEAUBVHStructureData@Gu@2@@Z@4HA 0000000180121f40 f   GuMeshFactory.obj
 0001:00120f70       ?dtor$0@?0??createBVHStructure@GuMeshFactory@physx@@QEAAPEAVPxBVHStructure@2@AEAVPxInputStream@2@@Z@4HA 0000000180121f70 f   GuMeshFactory.obj
 0001:00120fa0       ?dtor$0@?0??createConvexMesh@GuMeshFactory@physx@@IEAAPEAVPxConvexMesh@2@AEAUConvexHullInitData@Gu@2@@Z@4HA 0000000180121fa0 f   GuMeshFactory.obj
 0001:00120fd0       ?dtor$0@?0??createConvexMesh@GuMeshFactory@physx@@QEAAPEAVPxConvexMesh@2@AEAVPxInputStream@2@@Z@4HA 0000000180121fd0 f   GuMeshFactory.obj
 0001:00121000       ?dtor$0@?0??createHeightField@GuMeshFactory@physx@@QEAAPEAVPxHeightField@2@AEAVPxInputStream@2@@Z@4HA 0000000180122000 f   GuMeshFactory.obj
 0001:00121030       ?dtor$0@?0??createHeightField@GuMeshFactory@physx@@QEAAPEAVPxHeightField@2@PEAX@Z@4HA 0000000180122030 f   GuMeshFactory.obj
 0001:00121060       ?dtor$0@?0??createTriangleMesh@GuMeshFactory@physx@@IEAAPEAVPxTriangleMesh@2@AEAVTriangleMeshData@Gu@2@@Z@4HA 0000000180122060 f   GuMeshFactory.obj
 0001:00121090       ?dtor$1@?0??createTriangleMesh@GuMeshFactory@physx@@IEAAPEAVPxTriangleMesh@2@AEAVTriangleMeshData@Gu@2@@Z@4HA 0000000180122090 f   GuMeshFactory.obj
 0001:001210c0       ?dtor$1@?0??loadMeshData@@YAPEAVTriangleMeshData@Gu@physx@@AEAVPxInputStream@3@@Z@4HA 00000001801220c0 f   GuMeshFactory.obj
 0001:001210f0       ?dtor$2@?0??loadMeshData@@YAPEAVTriangleMeshData@Gu@physx@@AEAVPxInputStream@3@@Z@4HA 00000001801220f0 f   GuMeshFactory.obj
 0001:00121120       ?dtor$3@?0??loadMeshData@@YAPEAVTriangleMeshData@Gu@physx@@AEAVPxInputStream@3@@Z@4HA 0000000180122120 f   GuMeshFactory.obj
 0001:00121130       ?dtor$4@?0??loadMeshData@@YAPEAVTriangleMeshData@Gu@physx@@AEAVPxInputStream@3@@Z@4HA 0000000180122130 f   GuMeshFactory.obj
 0001:00121150       ?dtor$0@?0??computeMTD_BoxConvex@@YA_NAEAVPxVec3@physx@@AEAMAEBVBox@Gu@2@AEBVPxConvexMeshGeometry@2@AEBVPxTransform@2@@Z@4HA 0000000180122150 f   GuMTD.obj
 0001:00121150       ?dtor$0@?0??pcmContactConvexMesh@Gu@physx@@YA_NAEBVGeometryUnion@12@0AEBVPxTransform@2@1AEBUNarrowPhaseParams@12@AEAUCache@12@AEAVContactBuffer@12@PEAVRenderOutput@Cm@2@@Z@4HA 0000000180122150 f   GuPCMContactConvexMesh.obj
 0001:00121150       ?dtor$1@?0??pcmContactConvexMesh@Gu@physx@@YA_NAEBVGeometryUnion@12@0AEBVPxTransform@2@1AEBUNarrowPhaseParams@12@AEAUCache@12@AEAVContactBuffer@12@PEAVRenderOutput@Cm@2@@Z@4HA 0000000180122150 f   GuPCMContactConvexMesh.obj
 0001:00121150       ?dtor$1@?0??computeBox_TriangleMeshMTD@Gu@physx@@YA_NAEBVPxTriangleMeshGeometry@2@AEBVPxTransform@2@AEBVBox@12@1M_NAEAUPxSweepHit@2@@Z@4HA 0000000180122150 f   GuSweepMTD.obj
 0001:00121160       ?dtor$0@?0??contactCapsuleConvex@Gu@physx@@YA_NAEBVGeometryUnion@12@0AEBVPxTransform@2@1AEBUNarrowPhaseParams@12@AEAUCache@12@AEAVContactBuffer@12@PEAVRenderOutput@Cm@2@@Z@4HA 0000000180122160 f   GuContactCapsuleConvex.obj
 0001:00121160       ?dtor$0@?0??pointConvexDistance@@YA_NAEAVPxVec3@physx@@0AEAMAEBV12@PEBVConvexMesh@Gu@2@AEBVPxMeshScale@2@AEBVPxTransform@2@@Z@4HA 0000000180122160 f   GuMTD.obj
 0001:00121160       ?dtor$0@?0??intersectCapsuleConvex@@YA_NAEBVPxCapsuleGeometry@physx@@AEBVPxTransform@2@AEBVConvexMesh@Gu@2@AEBVPxMeshScale@2@1PEAVPxVec3@2@@Z@4HA 0000000180122160 f   GuOverlapTests.obj
 0001:00121160       ?dtor$1@?0??GeomOverlapCallback_ConvexConvex@@YA_NAEBVPxGeometry@physx@@AEBVPxTransform@2@01PEAUTriggerCache@Gu@2@@Z@4HA 0000000180122160 f   GuOverlapTests.obj
 0001:00121160       ?dtor$1@?0??intersectBoxConvex@@YA_NAEBVPxBoxGeometry@physx@@AEBVPxTransform@2@AEBVConvexMesh@Gu@2@AEBVPxMeshScale@2@1PEAVPxVec3@2@@Z@4HA 0000000180122160 f   GuOverlapTests.obj
 0001:00121160       ?dtor$1@?0??intersectSphereConvex@@YA_NAEBVPxTransform@physx@@MAEBVConvexMesh@Gu@2@AEBVPxMeshScale@2@0PEAVPxVec3@2@@Z@4HA 0000000180122160 f   GuOverlapTests.obj
 0001:00121160       ?dtor$0@?0??runBackupProcedure@@YA_NAEAVPxVec3@physx@@0AEBV12@1AEBVPxTriangle@2@@Z@4HA 0000000180122160 f   GuSweepTriangleUtils.obj
 0001:00121160       ?dtor$1@?0??onEvent@BoxTraceSegmentReport@@UEAA_NIPEAI@Z@4HA 0000000180122160 f   GuSweepsHF.obj
 0001:00121170       ?dtor$1@?0??pointConvexDistance@@YA_NAEAVPxVec3@physx@@0AEAMAEBV12@PEBVConvexMesh@Gu@2@AEBVPxMeshScale@2@AEBVPxTransform@2@@Z@4HA 0000000180122170 f   GuMTD.obj
 0001:00121170       ?dtor$1@?0??intersectCapsuleConvex@@YA_NAEBVPxCapsuleGeometry@physx@@AEBVPxTransform@2@AEBVConvexMesh@Gu@2@AEBVPxMeshScale@2@1PEAVPxVec3@2@@Z@4HA 0000000180122170 f   GuOverlapTests.obj
 0001:00121170       ?dtor$1@?0??pcmContactSphereConvex@Gu@physx@@YA_NAEBVGeometryUnion@12@0AEBVPxTransform@2@1AEBUNarrowPhaseParams@12@AEAUCache@12@AEAVContactBuffer@12@PEAVRenderOutput@Cm@2@@Z@4HA 0000000180122170 f   GuPCMContactSphereConvex.obj
 0001:00121170       ?dtor$2@?0??pcmContactSphereConvex@Gu@physx@@YA_NAEBVGeometryUnion@12@0AEBVPxTransform@2@1AEBUNarrowPhaseParams@12@AEAUCache@12@AEAVContactBuffer@12@PEAVRenderOutput@Cm@2@@Z@4HA 0000000180122170 f   GuPCMContactSphereConvex.obj
 0001:00121170       ?dtor$3@?0??pcmContactSphereConvex@Gu@physx@@YA_NAEBVGeometryUnion@12@0AEBVPxTransform@2@1AEBUNarrowPhaseParams@12@AEAUCache@12@AEAVContactBuffer@12@PEAVRenderOutput@Cm@2@@Z@4HA 0000000180122170 f   GuPCMContactSphereConvex.obj
 0001:00121170       ?dtor$4@?0??pcmContactSphereConvex@Gu@physx@@YA_NAEBVGeometryUnion@12@0AEBVPxTransform@2@1AEBUNarrowPhaseParams@12@AEAUCache@12@AEAVContactBuffer@12@PEAVRenderOutput@Cm@2@@Z@4HA 0000000180122170 f   GuPCMContactSphereConvex.obj
 0001:00121170       ?dtor$0@?0??sweepConvex_SphereGeom@@YA_NAEBVPxGeometry@physx@@AEBVPxTransform@2@AEBVPxConvexMeshGeometry@2@1AEBVPxVec3@2@MAEAUPxSweepHit@2@V?$PxFlags@W4Enum@PxHitFlag@physx@@G@2@M@Z@4HA 0000000180122170 f   GuSweepSharedTests.obj
 0001:00121170       ?dtor$1@?0??sweepBox_ConvexGeom@@YA_NAEBVPxGeometry@physx@@AEBVPxTransform@2@AEBVPxBoxGeometry@2@1AEBVBox@Gu@2@AEBVPxVec3@2@MAEAUPxSweepHit@2@V?$PxFlags@W4Enum@PxHitFlag@physx@@G@2@M@Z@4HA 0000000180122170 f   GuSweepSharedTests.obj
 0001:00121170       ?dtor$1@?0??sweepCapsule_ConvexGeom@@YA_NAEBVPxGeometry@physx@@AEBVPxTransform@2@AEBVPxCapsuleGeometry@2@1AEBVCapsule@Gu@2@AEBVPxVec3@2@MAEAUPxSweepHit@2@V?$PxFlags@W4Enum@PxHitFlag@physx@@G@2@M@Z@4HA 0000000180122170 f   GuSweepSharedTests.obj
 0001:00121170       ?dtor$1@?0??sweepBox_BoxGeom@@YA_NAEBVPxGeometry@physx@@AEBVPxTransform@2@AEBVPxBoxGeometry@2@1AEBVBox@Gu@2@AEBVPxVec3@2@MAEAUPxSweepHit@2@V?$PxFlags@W4Enum@PxHitFlag@physx@@G@2@M@Z@4HA 0000000180122170 f   GuSweepTests.obj
 0001:00121170       ?dtor$1@?0??sweepBox_CapsuleGeom@@YA_NAEBVPxGeometry@physx@@AEBVPxTransform@2@AEBVPxBoxGeometry@2@1AEBVBox@Gu@2@AEBVPxVec3@2@MAEAUPxSweepHit@2@V?$PxFlags@W4Enum@PxHitFlag@physx@@G@2@M@Z@4HA 0000000180122170 f   GuSweepTests.obj
 0001:00121170       ?dtor$2@?0??sweepBox_SphereGeom@@YA_NAEBVPxGeometry@physx@@AEBVPxTransform@2@AEBVPxBoxGeometry@2@1AEBVBox@Gu@2@AEBVPxVec3@2@MAEAUPxSweepHit@2@V?$PxFlags@W4Enum@PxHitFlag@physx@@G@2@M@Z@4HA 0000000180122170 f   GuSweepTests.obj
 0001:00121170       ?dtor$3@?0??sweepCapsule_BoxGeom@@YA_NAEBVPxGeometry@physx@@AEBVPxTransform@2@AEBVPxCapsuleGeometry@2@1AEBVCapsule@Gu@2@AEBVPxVec3@2@MAEAUPxSweepHit@2@V?$PxFlags@W4Enum@PxHitFlag@physx@@G@2@M@Z@4HA 0000000180122170 f   GuSweepTests.obj
 0001:00121170       ?dtor$0@?0??onEvent@BoxTraceSegmentReport@@UEAA_NIPEAI@Z@4HA 0000000180122170 f   GuSweepsHF.obj
 0001:00121180       ?dtor$0@?0??GeomOverlapCallback_ConvexConvex@@YA_NAEBVPxGeometry@physx@@AEBVPxTransform@2@01PEAUTriggerCache@Gu@2@@Z@4HA 0000000180122180 f   GuOverlapTests.obj
 0001:00121180       ?dtor$1@?0??pcmContactCapsuleBox@Gu@physx@@YA_NAEBVGeometryUnion@12@0AEBVPxTransform@2@1AEBUNarrowPhaseParams@12@AEAUCache@12@AEAVContactBuffer@12@PEAVRenderOutput@Cm@2@@Z@4HA 0000000180122180 f   GuPCMContactCapsuleBox.obj
 0001:00121180       ?dtor$2@?0??pcmContactCapsuleConvex@Gu@physx@@YA_NAEBVGeometryUnion@12@0AEBVPxTransform@2@1AEBUNarrowPhaseParams@12@AEAUCache@12@AEAVContactBuffer@12@PEAVRenderOutput@Cm@2@@Z@4HA 0000000180122180 f   GuPCMContactCapsuleConvex.obj
 0001:00121190       ?dtor$0@?0??intersectBoxConvex@@YA_NAEBVPxBoxGeometry@physx@@AEBVPxTransform@2@AEBVConvexMesh@Gu@2@AEBVPxMeshScale@2@1PEAVPxVec3@2@@Z@4HA 0000000180122190 f   GuOverlapTests.obj
 0001:00121190       ?dtor$0@?0??pcmContactBoxBox@Gu@physx@@YA_NAEBVGeometryUnion@12@0AEBVPxTransform@2@1AEBUNarrowPhaseParams@12@AEAUCache@12@AEAVContactBuffer@12@PEAVRenderOutput@Cm@2@@Z@4HA 0000000180122190 f   GuPCMContactBoxBox.obj
 0001:001211a0       ?dtor$0@?0??intersectSphereConvex@@YA_NAEBVPxTransform@physx@@MAEBVConvexMesh@Gu@2@AEBVPxMeshScale@2@0PEAVPxVec3@2@@Z@4HA 00000001801221a0 f   GuOverlapTests.obj
 0001:001211a0       ?dtor$1@?0??processHit@ConvexVsMeshOverlapCallback@@UEAA_NAEBUPxRaycastHit@physx@@AEBVPxVec3@3@11AEAMPEBI@Z@4HA 00000001801221a0 f   GuOverlapTestsMesh.obj
 0001:001211a0       ?dtor$1@?0??runBackupProcedure@@YA_NAEAVPxVec3@physx@@0AEBV12@1AEBVPxTriangle@2@@Z@4HA 00000001801221a0 f   GuSweepTriangleUtils.obj
 0001:001211b0       ?dtor$0@?0??computeBox_HeightFieldMTD@Gu@physx@@YA_NAEBVPxHeightFieldGeometry@2@AEBVPxTransform@2@AEBVBox@12@1M_NIAEAUPxSweepHit@2@@Z@4HA 00000001801221b0 f   GuSweepMTD.obj
 0001:001211c0       ?dtor$1@?0??computeBox_HeightFieldMTD@Gu@physx@@YA_NAEBVPxHeightFieldGeometry@2@AEBVPxTransform@2@AEBVBox@12@1M_NIAEAUPxSweepHit@2@@Z@4HA 00000001801221c0 f   GuSweepMTD.obj
 0001:001211d0       ?dtor$2@?0??computeBox_HeightFieldMTD@Gu@physx@@YA_NAEBVPxHeightFieldGeometry@2@AEBVPxTransform@2@AEBVBox@12@1M_NIAEAUPxSweepHit@2@@Z@4HA 00000001801221d0 f   GuSweepMTD.obj
 0001:00121200       ?dtor$3@?0??computeBox_HeightFieldMTD@Gu@physx@@YA_NAEBVPxHeightFieldGeometry@2@AEBVPxTransform@2@AEBVBox@12@1M_NIAEAUPxSweepHit@2@@Z@4HA 0000000180122200 f   GuSweepMTD.obj
 0001:00121210       ?dtor$0@?0??computeBox_TriangleMeshMTD@Gu@physx@@YA_NAEBVPxTriangleMeshGeometry@2@AEBVPxTransform@2@AEBVBox@12@1M_NAEAUPxSweepHit@2@@Z@4HA 0000000180122210 f   GuSweepMTD.obj
 0001:00121220       ?dtor$2@?0??computeBox_TriangleMeshMTD@Gu@physx@@YA_NAEBVPxTriangleMeshGeometry@2@AEBVPxTransform@2@AEBVBox@12@1M_NAEAUPxSweepHit@2@@Z@4HA 0000000180122220 f   GuSweepMTD.obj
 0001:00121250       ?dtor$1@?0??contactHullMesh2@@YA_NAEBUPolygonalData@Gu@physx@@AEBVPxBounds3@3@AEBUPxTriangleMeshGeometryLL@3@AEBVPxTransform@3@3AEBUNarrowPhaseParams@23@AEAVContactBuffer@23@AEBVFastVertex2ShapeScaling@Cm@3@6_N7@Z@4HA 0000000180122250 f   GuContactConvexMesh.obj
 0001:00121250       ?dtor$0@?0??sweepCapsule_MeshGeom_BV4@Gu@physx@@YA_NPEBVTriangleMesh@12@AEBVPxTriangleMeshGeometry@2@AEBVPxTransform@2@AEBVCapsule@12@AEBVPxVec3@2@MAEAUPxSweepHit@2@V?$PxFlags@W4Enum@PxHitFlag@physx@@G@2@M@Z@4HA 0000000180122250 f   GuMidphaseBV4.obj
 0001:00121250       ?dtor$3@?0??computeBox_TriangleMeshMTD@Gu@physx@@YA_NAEBVPxTriangleMeshGeometry@2@AEBVPxTransform@2@AEBVBox@12@1M_NAEAUPxSweepHit@2@@Z@4HA 0000000180122250 f   GuSweepMTD.obj
 0001:00121260       ?dtor$0@?0??computeCapsule_HeightFieldMTD@Gu@physx@@YA_NAEBVPxHeightFieldGeometry@2@AEBVPxTransform@2@AEAVCapsuleV@12@M_NIAEAUPxSweepHit@2@@Z@4HA 0000000180122260 f   GuSweepMTD.obj
 0001:00121270       ?dtor$1@?0??computeCapsule_HeightFieldMTD@Gu@physx@@YA_NAEBVPxHeightFieldGeometry@2@AEBVPxTransform@2@AEAVCapsuleV@12@M_NIAEAUPxSweepHit@2@@Z@4HA 0000000180122270 f   GuSweepMTD.obj
 0001:001212a0       ?dtor$2@?0??computeCapsule_HeightFieldMTD@Gu@physx@@YA_NAEBVPxHeightFieldGeometry@2@AEBVPxTransform@2@AEAVCapsuleV@12@M_NIAEAUPxSweepHit@2@@Z@4HA 00000001801222a0 f   GuSweepMTD.obj
 0001:001212b0       ?dtor$0@?0??computeCapsule_TriangleMeshMTD@Gu@physx@@YA_NAEBVPxTriangleMeshGeometry@2@AEBVPxTransform@2@AEAVCapsuleV@12@M_NAEAUPxSweepHit@2@@Z@4HA 00000001801222b0 f   GuSweepMTD.obj
 0001:001212c0       ?dtor$1@?0??computeCapsule_TriangleMeshMTD@Gu@physx@@YA_NAEBVPxTriangleMeshGeometry@2@AEBVPxTransform@2@AEAVCapsuleV@12@M_NAEAUPxSweepHit@2@@Z@4HA 00000001801222c0 f   GuSweepMTD.obj
 0001:001212f0       ?dtor$2@?0??computeCapsule_TriangleMeshMTD@Gu@physx@@YA_NAEBVPxTriangleMeshGeometry@2@AEBVPxTransform@2@AEAVCapsuleV@12@M_NAEAUPxSweepHit@2@@Z@4HA 00000001801222f0 f   GuSweepMTD.obj
 0001:00121300       ?dtor$0@?0??computeConvex_HeightFieldMTD@Gu@physx@@YA_NAEBVPxHeightFieldGeometry@2@AEBVPxTransform@2@AEBVPxConvexMeshGeometry@2@1M_NIAEAUPxSweepHit@2@@Z@4HA 0000000180122300 f   GuSweepMTD.obj
 0001:00121310       ?dtor$1@?0??computeConvex_HeightFieldMTD@Gu@physx@@YA_NAEBVPxHeightFieldGeometry@2@AEBVPxTransform@2@AEBVPxConvexMeshGeometry@2@1M_NIAEAUPxSweepHit@2@@Z@4HA 0000000180122310 f   GuSweepMTD.obj
 0001:00121340       ?dtor$2@?0??computeConvex_HeightFieldMTD@Gu@physx@@YA_NAEBVPxHeightFieldGeometry@2@AEBVPxTransform@2@AEBVPxConvexMeshGeometry@2@1M_NIAEAUPxSweepHit@2@@Z@4HA 0000000180122340 f   GuSweepMTD.obj
 0001:00121340       ?dtor$0@?0??sweepBox_HeightFieldGeom@@YA_NAEBVPxGeometry@physx@@AEBVPxTransform@2@AEBVPxBoxGeometry@2@1AEBVBox@Gu@2@AEBVPxVec3@2@MAEAUPxSweepHit@2@V?$PxFlags@W4Enum@PxHitFlag@physx@@G@2@M@Z@4HA 0000000180122340 f   GuSweepsHF.obj
 0001:00121350       ?dtor$0@?0??computeConvex_TriangleMeshMTD@Gu@physx@@YA_NAEBVPxTriangleMeshGeometry@2@AEBVPxTransform@2@AEBVPxConvexMeshGeometry@2@1M_NAEAUPxSweepHit@2@@Z@4HA 0000000180122350 f   GuSweepMTD.obj
 0001:00121360       ?dtor$1@?0??computeConvex_TriangleMeshMTD@Gu@physx@@YA_NAEBVPxTriangleMeshGeometry@2@AEBVPxTransform@2@AEBVPxConvexMeshGeometry@2@1M_NAEAUPxSweepHit@2@@Z@4HA 0000000180122360 f   GuSweepMTD.obj
 0001:00121390       ?dtor$0@?0??GeomOverlapCallback_ConvexMesh@@YA_NAEBVPxGeometry@physx@@AEBVPxTransform@2@01PEAUTriggerCache@Gu@2@@Z@4HA 0000000180122390 f   GuOverlapTestsMesh.obj
 0001:00121390       ?dtor$3@?0??pcmContactSphereMesh@Gu@physx@@YA_NAEBVGeometryUnion@12@0AEBVPxTransform@2@1AEBUNarrowPhaseParams@12@AEAUCache@12@AEAVContactBuffer@12@PEAVRenderOutput@Cm@2@@Z@4HA 0000000180122390 f   GuPCMContactSphereMesh.obj
 0001:00121390       ?dtor$2@?0??computeConvex_TriangleMeshMTD@Gu@physx@@YA_NAEBVPxTriangleMeshGeometry@2@AEBVPxTransform@2@AEBVPxConvexMeshGeometry@2@1M_NAEAUPxSweepHit@2@@Z@4HA 0000000180122390 f   GuSweepMTD.obj
 0001:001213a0       ?dtor$3@?0??pcmContactBoxBox@Gu@physx@@YA_NAEBVGeometryUnion@12@0AEBVPxTransform@2@1AEBUNarrowPhaseParams@12@AEAUCache@12@AEAVContactBuffer@12@PEAVRenderOutput@Cm@2@@Z@4HA 00000001801223a0 f   GuPCMContactBoxBox.obj
 0001:001213a0       ?dtor$1@?0??pcmContactBoxConvex@Gu@physx@@YA_NAEBVGeometryUnion@12@0AEBVPxTransform@2@1AEBUNarrowPhaseParams@12@AEAUCache@12@AEAVContactBuffer@12@PEAVRenderOutput@Cm@2@@Z@4HA 00000001801223a0 f   GuPCMContactBoxConvex.obj
 0001:001213a0       ?dtor$2@?0??pcmContactBoxConvex@Gu@physx@@YA_NAEBVGeometryUnion@12@0AEBVPxTransform@2@1AEBUNarrowPhaseParams@12@AEAUCache@12@AEAVContactBuffer@12@PEAVRenderOutput@Cm@2@@Z@4HA 00000001801223a0 f   GuPCMContactBoxConvex.obj
 0001:001213a0       ?dtor$0@?0??pcmContactCapsuleBox@Gu@physx@@YA_NAEBVGeometryUnion@12@0AEBVPxTransform@2@1AEBUNarrowPhaseParams@12@AEAUCache@12@AEAVContactBuffer@12@PEAVRenderOutput@Cm@2@@Z@4HA 00000001801223a0 f   GuPCMContactCapsuleBox.obj
 0001:001213a0       ?dtor$0@?0???$gjkRaycastPenetration@U?$RelativeConvex@VConvexHullV@Gu@physx@@@Gu@physx@@U?$LocalConvex@VConvexHullV@Gu@physx@@@23@@Gu@physx@@YA_NAEBU?$RelativeConvex@VConvexHullV@Gu@physx@@@01@AEBU?$LocalConvex@VConvexHullV@Gu@physx@@@01@AEBT__m128@@222AEAT4@33M_N@Z@4HA 00000001801223a0 f   GuSweepSharedTests.obj
 0001:001213a0       ?dtor$2@?0??sweepCapsule_ConvexGeom@@YA_NAEBVPxGeometry@physx@@AEBVPxTransform@2@AEBVPxCapsuleGeometry@2@1AEBVCapsule@Gu@2@AEBVPxVec3@2@MAEAUPxSweepHit@2@V?$PxFlags@W4Enum@PxHitFlag@physx@@G@2@M@Z@4HA 00000001801223a0 f   GuSweepSharedTests.obj
 0001:001213a0       ?dtor$0@?0??sweepBox_SphereGeom@@YA_NAEBVPxGeometry@physx@@AEBVPxTransform@2@AEBVPxBoxGeometry@2@1AEBVBox@Gu@2@AEBVPxVec3@2@MAEAUPxSweepHit@2@V?$PxFlags@W4Enum@PxHitFlag@physx@@G@2@M@Z@4HA 00000001801223a0 f   GuSweepTests.obj
 0001:001213a0       ?dtor$1@?0??sweepCapsule_BoxGeom@@YA_NAEBVPxGeometry@physx@@AEBVPxTransform@2@AEBVPxCapsuleGeometry@2@1AEBVCapsule@Gu@2@AEBVPxVec3@2@MAEAUPxSweepHit@2@V?$PxFlags@W4Enum@PxHitFlag@physx@@G@2@M@Z@4HA 00000001801223a0 f   GuSweepTests.obj
 0001:001213a0       ?dtor$2@?0??sweepBox_CapsuleGeom@@YA_NAEBVPxGeometry@physx@@AEBVPxTransform@2@AEBVPxBoxGeometry@2@1AEBVBox@Gu@2@AEBVPxVec3@2@MAEAUPxSweepHit@2@V?$PxFlags@W4Enum@PxHitFlag@physx@@G@2@M@Z@4HA 00000001801223a0 f   GuSweepTests.obj
 0001:001213b0       ?dtor$1@?0???$CCDSweep@VBoxV@Gu@physx@@V123@@Gu@physx@@YAMAEAVBoxV@01@0AEBVPxTransform@1@111AEBT__m128@@AEAVPxVec3@1@3M@Z@4HA 00000001801223b0 f   GuCCDSweepPrimitives.obj
 0001:001213b0       ?dtor$1@?0???$CCDSweep@VBoxV@Gu@physx@@VConvexHullV@23@@Gu@physx@@YAMAEAVBoxV@01@AEAVConvexHullV@01@AEBVPxTransform@1@222AEBT__m128@@AEAVPxVec3@1@4M@Z@4HA 00000001801223b0 f   GuCCDSweepPrimitives.obj
 0001:001213b0       ?dtor$1@?0???$CCDSweep@VCapsuleV@Gu@physx@@V123@@Gu@physx@@YAMAEAVCapsuleV@01@0AEBVPxTransform@1@111AEBT__m128@@AEAVPxVec3@1@3M@Z@4HA 00000001801223b0 f   GuCCDSweepPrimitives.obj
 0001:001213b0       ?dtor$1@?0???$CCDSweep@VCapsuleV@Gu@physx@@VBoxV@23@@Gu@physx@@YAMAEAVCapsuleV@01@AEAVBoxV@01@AEBVPxTransform@1@222AEBT__m128@@AEAVPxVec3@1@4M@Z@4HA 00000001801223b0 f   GuCCDSweepPrimitives.obj
 0001:001213b0       ?dtor$1@?0???$CCDSweep@VCapsuleV@Gu@physx@@VConvexHullV@23@@Gu@physx@@YAMAEAVCapsuleV@01@AEAVConvexHullV@01@AEBVPxTransform@1@222AEBT__m128@@AEAVPxVec3@1@4M@Z@4HA 00000001801223b0 f   GuCCDSweepPrimitives.obj
 0001:001213b0       ?dtor$1@?0???$CCDSweep@VConvexHullV@Gu@physx@@V123@@Gu@physx@@YAMAEAVConvexHullV@01@0AEBVPxTransform@1@111AEBT__m128@@AEAVPxVec3@1@3M@Z@4HA 00000001801223b0 f   GuCCDSweepPrimitives.obj
 0001:001213b0       ?dtor$1@?0???$CCDSweep@VTriangleV@Gu@physx@@VBoxV@23@@Gu@physx@@YAMAEAVTriangleV@01@AEAVBoxV@01@AEBVPxTransform@1@222AEBT__m128@@AEAVPxVec3@1@4M@Z@4HA 00000001801223b0 f   GuCCDSweepPrimitives.obj
 0001:001213b0       ?dtor$1@?0???$CCDSweep@VTriangleV@Gu@physx@@VCapsuleV@23@@Gu@physx@@YAMAEAVTriangleV@01@AEAVCapsuleV@01@AEBVPxTransform@1@222AEBT__m128@@AEAVPxVec3@1@4M@Z@4HA 00000001801223b0 f   GuCCDSweepPrimitives.obj
 0001:001213b0       ?dtor$1@?0???$CCDSweep@VTriangleV@Gu@physx@@VConvexHullV@23@@Gu@physx@@YAMAEAVTriangleV@01@AEAVConvexHullV@01@AEBVPxTransform@1@222AEBT__m128@@AEAVPxVec3@1@4M@Z@4HA 00000001801223b0 f   GuCCDSweepPrimitives.obj
 0001:001213b0       ?dtor$0@?0??pcmContactSphereConvex@Gu@physx@@YA_NAEBVGeometryUnion@12@0AEBVPxTransform@2@1AEBUNarrowPhaseParams@12@AEAUCache@12@AEAVContactBuffer@12@PEAVRenderOutput@Cm@2@@Z@4HA 00000001801223b0 f   GuPCMContactSphereConvex.obj
 0001:001213b0       ?dtor$0@?0??sweepCapsule_ConvexGeom@@YA_NAEBVPxGeometry@physx@@AEBVPxTransform@2@AEBVPxCapsuleGeometry@2@1AEBVCapsule@Gu@2@AEBVPxVec3@2@MAEAUPxSweepHit@2@V?$PxFlags@W4Enum@PxHitFlag@physx@@G@2@M@Z@4HA 00000001801223b0 f   GuSweepSharedTests.obj
 0001:001213b0       ?dtor$1@?0???$gjkRaycastPenetration@U?$RelativeConvex@VConvexHullV@Gu@physx@@@Gu@physx@@U?$LocalConvex@VConvexHullV@Gu@physx@@@23@@Gu@physx@@YA_NAEBU?$RelativeConvex@VConvexHullV@Gu@physx@@@01@AEBU?$LocalConvex@VConvexHullV@Gu@physx@@@01@AEBT__m128@@222AEAT4@33M_N@Z@4HA 00000001801223b0 f   GuSweepSharedTests.obj
 0001:001213b0       ?dtor$1@?0??sweepConvex_ConvexGeom@@YA_NAEBVPxGeometry@physx@@AEBVPxTransform@2@AEBVPxConvexMeshGeometry@2@1AEBVPxVec3@2@MAEAUPxSweepHit@2@V?$PxFlags@W4Enum@PxHitFlag@physx@@G@2@M@Z@4HA 00000001801223b0 f   GuSweepSharedTests.obj
 0001:001213b0       ?dtor$0@?0??sweepBoxTriangles@Gu@physx@@YA_NIPEBVPxTriangle@2@_NAEBVPxBoxGeometry@2@AEBVPxTransform@2@AEBVPxVec3@2@MAEAUPxSweepHit@2@PEBIMV?$PxFlags@W4Enum@PxHitFlag@physx@@G@2@@Z@4HA 00000001801223b0 f   GuSweepTests.obj
 0001:001213b0       ?dtor$0@?0??sweepBox_CapsuleGeom@@YA_NAEBVPxGeometry@physx@@AEBVPxTransform@2@AEBVPxBoxGeometry@2@1AEBVBox@Gu@2@AEBVPxVec3@2@MAEAUPxSweepHit@2@V?$PxFlags@W4Enum@PxHitFlag@physx@@G@2@M@Z@4HA 00000001801223b0 f   GuSweepTests.obj
 0001:001213b0       ?dtor$2@?0??sweepCapsule_BoxGeom@@YA_NAEBVPxGeometry@physx@@AEBVPxTransform@2@AEBVPxCapsuleGeometry@2@1AEBVCapsule@Gu@2@AEBVPxVec3@2@MAEAUPxSweepHit@2@V?$PxFlags@W4Enum@PxHitFlag@physx@@G@2@M@Z@4HA 00000001801223b0 f   GuSweepTests.obj
 0001:001213b0       ?dtor$3@?0??sweepBox_BoxGeom@@YA_NAEBVPxGeometry@physx@@AEBVPxTransform@2@AEBVPxBoxGeometry@2@1AEBVBox@Gu@2@AEBVPxVec3@2@MAEAUPxSweepHit@2@V?$PxFlags@W4Enum@PxHitFlag@physx@@G@2@M@Z@4HA 00000001801223b0 f   GuSweepTests.obj
 0001:001213c0       ?dtor$0@?0??sweepBox_ConvexGeom@@YA_NAEBVPxGeometry@physx@@AEBVPxTransform@2@AEBVPxBoxGeometry@2@1AEBVBox@Gu@2@AEBVPxVec3@2@MAEAUPxSweepHit@2@V?$PxFlags@W4Enum@PxHitFlag@physx@@G@2@M@Z@4HA 00000001801223c0 f   GuSweepSharedTests.obj
 0001:001213d0       ?dtor$2@?0??sweepBox_ConvexGeom@@YA_NAEBVPxGeometry@physx@@AEBVPxTransform@2@AEBVPxBoxGeometry@2@1AEBVBox@Gu@2@AEBVPxVec3@2@MAEAUPxSweepHit@2@V?$PxFlags@W4Enum@PxHitFlag@physx@@G@2@M@Z@4HA 00000001801223d0 f   GuSweepSharedTests.obj
 0001:001213e0       ?dtor$3@?0???$CCDSweep@VBoxV@Gu@physx@@V123@@Gu@physx@@YAMAEAVBoxV@01@0AEBVPxTransform@1@111AEBT__m128@@AEAVPxVec3@1@3M@Z@4HA 00000001801223e0 f   GuCCDSweepPrimitives.obj
 0001:001213e0       ?dtor$3@?0???$CCDSweep@VBoxV@Gu@physx@@VConvexHullV@23@@Gu@physx@@YAMAEAVBoxV@01@AEAVConvexHullV@01@AEBVPxTransform@1@222AEBT__m128@@AEAVPxVec3@1@4M@Z@4HA 00000001801223e0 f   GuCCDSweepPrimitives.obj
 0001:001213e0       ?dtor$3@?0???$CCDSweep@VCapsuleV@Gu@physx@@V123@@Gu@physx@@YAMAEAVCapsuleV@01@0AEBVPxTransform@1@111AEBT__m128@@AEAVPxVec3@1@3M@Z@4HA 00000001801223e0 f   GuCCDSweepPrimitives.obj
 0001:001213e0       ?dtor$3@?0???$CCDSweep@VCapsuleV@Gu@physx@@VBoxV@23@@Gu@physx@@YAMAEAVCapsuleV@01@AEAVBoxV@01@AEBVPxTransform@1@222AEBT__m128@@AEAVPxVec3@1@4M@Z@4HA 00000001801223e0 f   GuCCDSweepPrimitives.obj
 0001:001213e0       ?dtor$3@?0???$CCDSweep@VCapsuleV@Gu@physx@@VConvexHullV@23@@Gu@physx@@YAMAEAVCapsuleV@01@AEAVConvexHullV@01@AEBVPxTransform@1@222AEBT__m128@@AEAVPxVec3@1@4M@Z@4HA 00000001801223e0 f   GuCCDSweepPrimitives.obj
 0001:001213e0       ?dtor$3@?0???$CCDSweep@VConvexHullV@Gu@physx@@V123@@Gu@physx@@YAMAEAVConvexHullV@01@0AEBVPxTransform@1@111AEBT__m128@@AEAVPxVec3@1@3M@Z@4HA 00000001801223e0 f   GuCCDSweepPrimitives.obj
 0001:001213e0       ?dtor$3@?0???$CCDSweep@VTriangleV@Gu@physx@@VBoxV@23@@Gu@physx@@YAMAEAVTriangleV@01@AEAVBoxV@01@AEBVPxTransform@1@222AEBT__m128@@AEAVPxVec3@1@4M@Z@4HA 00000001801223e0 f   GuCCDSweepPrimitives.obj
 0001:001213e0       ?dtor$3@?0???$CCDSweep@VTriangleV@Gu@physx@@VCapsuleV@23@@Gu@physx@@YAMAEAVTriangleV@01@AEAVCapsuleV@01@AEBVPxTransform@1@222AEBT__m128@@AEAVPxVec3@1@4M@Z@4HA 00000001801223e0 f   GuCCDSweepPrimitives.obj
 0001:001213e0       ?dtor$3@?0???$CCDSweep@VTriangleV@Gu@physx@@VConvexHullV@23@@Gu@physx@@YAMAEAVTriangleV@01@AEAVConvexHullV@01@AEBVPxTransform@1@222AEBT__m128@@AEAVPxVec3@1@4M@Z@4HA 00000001801223e0 f   GuCCDSweepPrimitives.obj
 0001:001213e0       ?dtor$1@?0??convexHullHasScale0@Gu@physx@@YA_NAEBVConvexHullV@12@0AEBVPsTransformV@aos@shdfnd@2@1AEBVPsMatTransformV@562@AEAUGjkOutput@12@AEAVPersistentContactManifold@12@AEAVContactBuffer@12@IT__m128@@6_NMPEAVRenderOutput@Cm@2@@Z@4HA 00000001801223e0 f   GuPCMContactConvexConvex.obj
 0001:001213e0       ?dtor$1@?0??convexHullNoScale0@Gu@physx@@YA_NAEBVConvexHullV@12@0AEBVPsTransformV@aos@shdfnd@2@1AEBVPsMatTransformV@562@AEAUGjkOutput@12@AEAVPersistentContactManifold@12@AEAVContactBuffer@12@IT__m128@@6_NMPEAVRenderOutput@Cm@2@@Z@4HA 00000001801223e0 f   GuPCMContactConvexConvex.obj
 0001:001213e0       ?dtor$2@?0??convexHullHasScale0@Gu@physx@@YA_NAEBVConvexHullV@12@0AEBVPsTransformV@aos@shdfnd@2@1AEBVPsMatTransformV@562@AEAUGjkOutput@12@AEAVPersistentContactManifold@12@AEAVContactBuffer@12@IT__m128@@6_NMPEAVRenderOutput@Cm@2@@Z@4HA 00000001801223e0 f   GuPCMContactConvexConvex.obj
 0001:001213e0       ?dtor$2@?0??convexHullNoScale0@Gu@physx@@YA_NAEBVConvexHullV@12@0AEBVPsTransformV@aos@shdfnd@2@1AEBVPsMatTransformV@562@AEAUGjkOutput@12@AEAVPersistentContactManifold@12@AEAVContactBuffer@12@IT__m128@@6_NMPEAVRenderOutput@Cm@2@@Z@4HA 00000001801223e0 f   GuPCMContactConvexConvex.obj
 0001:001213e0       ?dtor$1@?0??sweepConvex_SphereGeom@@YA_NAEBVPxGeometry@physx@@AEBVPxTransform@2@AEBVPxConvexMeshGeometry@2@1AEBVPxVec3@2@MAEAUPxSweepHit@2@V?$PxFlags@W4Enum@PxHitFlag@physx@@G@2@M@Z@4HA 00000001801223e0 f   GuSweepSharedTests.obj
 0001:001213e0       ?dtor$3@?0??sweepBox_ConvexGeom@@YA_NAEBVPxGeometry@physx@@AEBVPxTransform@2@AEBVPxBoxGeometry@2@1AEBVBox@Gu@2@AEBVPxVec3@2@MAEAUPxSweepHit@2@V?$PxFlags@W4Enum@PxHitFlag@physx@@G@2@M@Z@4HA 00000001801223e0 f   GuSweepSharedTests.obj
 0001:001213e0       ?dtor$1@?0??sweepBox_SphereGeom@@YA_NAEBVPxGeometry@physx@@AEBVPxTransform@2@AEBVPxBoxGeometry@2@1AEBVBox@Gu@2@AEBVPxVec3@2@MAEAUPxSweepHit@2@V?$PxFlags@W4Enum@PxHitFlag@physx@@G@2@M@Z@4HA 00000001801223e0 f   GuSweepTests.obj
 0001:001213e0       ?dtor$3@?0??sweepBox_CapsuleGeom@@YA_NAEBVPxGeometry@physx@@AEBVPxTransform@2@AEBVPxBoxGeometry@2@1AEBVBox@Gu@2@AEBVPxVec3@2@MAEAUPxSweepHit@2@V?$PxFlags@W4Enum@PxHitFlag@physx@@G@2@M@Z@4HA 00000001801223e0 f   GuSweepTests.obj
 0001:001213f0       ?dtor$1@?0??pcmContactCapsuleConvex@Gu@physx@@YA_NAEBVGeometryUnion@12@0AEBVPxTransform@2@1AEBUNarrowPhaseParams@12@AEAUCache@12@AEAVContactBuffer@12@PEAVRenderOutput@Cm@2@@Z@4HA 00000001801223f0 f   GuPCMContactCapsuleConvex.obj
 0001:001213f0       ?dtor$0@?0??convexHullHasScale0@Gu@physx@@YA_NAEBVConvexHullV@12@0AEBVPsTransformV@aos@shdfnd@2@1AEBVPsMatTransformV@562@AEAUGjkOutput@12@AEAVPersistentContactManifold@12@AEAVContactBuffer@12@IT__m128@@6_NMPEAVRenderOutput@Cm@2@@Z@4HA 00000001801223f0 f   GuPCMContactConvexConvex.obj
 0001:001213f0       ?dtor$0@?0??convexHullNoScale0@Gu@physx@@YA_NAEBVConvexHullV@12@0AEBVPsTransformV@aos@shdfnd@2@1AEBVPsMatTransformV@562@AEAUGjkOutput@12@AEAVPersistentContactManifold@12@AEAVContactBuffer@12@IT__m128@@6_NMPEAVRenderOutput@Cm@2@@Z@4HA 00000001801223f0 f   GuPCMContactConvexConvex.obj
 0001:001213f0       ?dtor$2@?0??sweepConvex_SphereGeom@@YA_NAEBVPxGeometry@physx@@AEBVPxTransform@2@AEBVPxConvexMeshGeometry@2@1AEBVPxVec3@2@MAEAUPxSweepHit@2@V?$PxFlags@W4Enum@PxHitFlag@physx@@G@2@M@Z@4HA 00000001801223f0 f   GuSweepSharedTests.obj
 0001:001213f0       ?dtor$3@?0??sweepCapsule_ConvexGeom@@YA_NAEBVPxGeometry@physx@@AEBVPxTransform@2@AEBVPxCapsuleGeometry@2@1AEBVCapsule@Gu@2@AEBVPxVec3@2@MAEAUPxSweepHit@2@V?$PxFlags@W4Enum@PxHitFlag@physx@@G@2@M@Z@4HA 00000001801223f0 f   GuSweepSharedTests.obj
 0001:00121400       ?dtor$0@?0??sweepConvex_ConvexGeom@@YA_NAEBVPxGeometry@physx@@AEBVPxTransform@2@AEBVPxConvexMeshGeometry@2@1AEBVPxVec3@2@MAEAUPxSweepHit@2@V?$PxFlags@W4Enum@PxHitFlag@physx@@G@2@M@Z@4HA 0000000180122400 f   GuSweepSharedTests.obj
 0001:00121410       ?dtor$0@?0??pcmContactCapsuleConvex@Gu@physx@@YA_NAEBVGeometryUnion@12@0AEBVPxTransform@2@1AEBUNarrowPhaseParams@12@AEAUCache@12@AEAVContactBuffer@12@PEAVRenderOutput@Cm@2@@Z@4HA 0000000180122410 f   GuPCMContactCapsuleConvex.obj
 0001:00121410       ?dtor$3@?0??sweepConvex_SphereGeom@@YA_NAEBVPxGeometry@physx@@AEBVPxTransform@2@AEBVPxConvexMeshGeometry@2@1AEBVPxVec3@2@MAEAUPxSweepHit@2@V?$PxFlags@W4Enum@PxHitFlag@physx@@G@2@M@Z@4HA 0000000180122410 f   GuSweepSharedTests.obj
 0001:00121410       ?dtor$1@?0??sweepBoxTriangles@Gu@physx@@YA_NIPEBVPxTriangle@2@_NAEBVPxBoxGeometry@2@AEBVPxTransform@2@AEBVPxVec3@2@MAEAUPxSweepHit@2@PEBIMV?$PxFlags@W4Enum@PxHitFlag@physx@@G@2@@Z@4HA 0000000180122410 f   GuSweepTests.obj
 0001:00121420       ?dtor$0@?0??sweepBox_BoxGeom@@YA_NAEBVPxGeometry@physx@@AEBVPxTransform@2@AEBVPxBoxGeometry@2@1AEBVBox@Gu@2@AEBVPxVec3@2@MAEAUPxSweepHit@2@V?$PxFlags@W4Enum@PxHitFlag@physx@@G@2@M@Z@4HA 0000000180122420 f   GuSweepTests.obj
 0001:00121430       ?dtor$2@?0???$CCDSweep@VBoxV@Gu@physx@@V123@@Gu@physx@@YAMAEAVBoxV@01@0AEBVPxTransform@1@111AEBT__m128@@AEAVPxVec3@1@3M@Z@4HA 0000000180122430 f   GuCCDSweepPrimitives.obj
 0001:00121430       ?dtor$2@?0???$CCDSweep@VBoxV@Gu@physx@@VConvexHullV@23@@Gu@physx@@YAMAEAVBoxV@01@AEAVConvexHullV@01@AEBVPxTransform@1@222AEBT__m128@@AEAVPxVec3@1@4M@Z@4HA 0000000180122430 f   GuCCDSweepPrimitives.obj
 0001:00121430       ?dtor$2@?0???$CCDSweep@VCapsuleV@Gu@physx@@V123@@Gu@physx@@YAMAEAVCapsuleV@01@0AEBVPxTransform@1@111AEBT__m128@@AEAVPxVec3@1@3M@Z@4HA 0000000180122430 f   GuCCDSweepPrimitives.obj
 0001:00121430       ?dtor$2@?0???$CCDSweep@VCapsuleV@Gu@physx@@VBoxV@23@@Gu@physx@@YAMAEAVCapsuleV@01@AEAVBoxV@01@AEBVPxTransform@1@222AEBT__m128@@AEAVPxVec3@1@4M@Z@4HA 0000000180122430 f   GuCCDSweepPrimitives.obj
 0001:00121430       ?dtor$2@?0???$CCDSweep@VCapsuleV@Gu@physx@@VConvexHullV@23@@Gu@physx@@YAMAEAVCapsuleV@01@AEAVConvexHullV@01@AEBVPxTransform@1@222AEBT__m128@@AEAVPxVec3@1@4M@Z@4HA 0000000180122430 f   GuCCDSweepPrimitives.obj
 0001:00121430       ?dtor$2@?0???$CCDSweep@VConvexHullV@Gu@physx@@V123@@Gu@physx@@YAMAEAVConvexHullV@01@0AEBVPxTransform@1@111AEBT__m128@@AEAVPxVec3@1@3M@Z@4HA 0000000180122430 f   GuCCDSweepPrimitives.obj
 0001:00121430       ?dtor$2@?0???$CCDSweep@VTriangleV@Gu@physx@@VBoxV@23@@Gu@physx@@YAMAEAVTriangleV@01@AEAVBoxV@01@AEBVPxTransform@1@222AEBT__m128@@AEAVPxVec3@1@4M@Z@4HA 0000000180122430 f   GuCCDSweepPrimitives.obj
 0001:00121430       ?dtor$2@?0???$CCDSweep@VTriangleV@Gu@physx@@VCapsuleV@23@@Gu@physx@@YAMAEAVTriangleV@01@AEAVCapsuleV@01@AEBVPxTransform@1@222AEBT__m128@@AEAVPxVec3@1@4M@Z@4HA 0000000180122430 f   GuCCDSweepPrimitives.obj
 0001:00121430       ?dtor$2@?0???$CCDSweep@VTriangleV@Gu@physx@@VConvexHullV@23@@Gu@physx@@YAMAEAVTriangleV@01@AEAVConvexHullV@01@AEBVPxTransform@1@222AEBT__m128@@AEAVPxVec3@1@4M@Z@4HA 0000000180122430 f   GuCCDSweepPrimitives.obj
 0001:00121430       ?dtor$4@?0??pcmContactCapsuleConvex@Gu@physx@@YA_NAEBVGeometryUnion@12@0AEBVPxTransform@2@1AEBUNarrowPhaseParams@12@AEAUCache@12@AEAVContactBuffer@12@PEAVRenderOutput@Cm@2@@Z@4HA 0000000180122430 f   GuPCMContactCapsuleConvex.obj
 0001:00121430       ?dtor$2@?0??sweepBox_BoxGeom@@YA_NAEBVPxGeometry@physx@@AEBVPxTransform@2@AEBVPxBoxGeometry@2@1AEBVBox@Gu@2@AEBVPxVec3@2@MAEAUPxSweepHit@2@V?$PxFlags@W4Enum@PxHitFlag@physx@@G@2@M@Z@4HA 0000000180122430 f   GuSweepTests.obj
 0001:00121440       ?dtor$1@?0??contactCapsuleConvex@Gu@physx@@YA_NAEBVGeometryUnion@12@0AEBVPxTransform@2@1AEBUNarrowPhaseParams@12@AEAUCache@12@AEAVContactBuffer@12@PEAVRenderOutput@Cm@2@@Z@4HA 0000000180122440 f   GuContactCapsuleConvex.obj
 0001:00121440       ?dtor$0@?0??processHit@ConvexVsMeshOverlapCallback@@UEAA_NAEBUPxRaycastHit@physx@@AEBVPxVec3@3@11AEAMPEBI@Z@4HA 0000000180122440 f   GuOverlapTestsMesh.obj
 0001:00121440       ?dtor$1@?0??pcmContactBoxBox@Gu@physx@@YA_NAEBVGeometryUnion@12@0AEBVPxTransform@2@1AEBUNarrowPhaseParams@12@AEAUCache@12@AEAVContactBuffer@12@PEAVRenderOutput@Cm@2@@Z@4HA 0000000180122440 f   GuPCMContactBoxBox.obj
 0001:00121440       ?dtor$0@?0??sweepCapsule_BoxGeom@@YA_NAEBVPxGeometry@physx@@AEBVPxTransform@2@AEBVPxCapsuleGeometry@2@1AEBVCapsule@Gu@2@AEBVPxVec3@2@MAEAUPxSweepHit@2@V?$PxFlags@W4Enum@PxHitFlag@physx@@G@2@M@Z@4HA 0000000180122440 f   GuSweepTests.obj
 0001:00121440       ?dtor$3@?0??sweepBox_SphereGeom@@YA_NAEBVPxGeometry@physx@@AEBVPxTransform@2@AEBVPxBoxGeometry@2@1AEBVBox@Gu@2@AEBVPxVec3@2@MAEAUPxSweepHit@2@V?$PxFlags@W4Enum@PxHitFlag@physx@@G@2@M@Z@4HA 0000000180122440 f   GuSweepTests.obj
 0001:00121450       ?dtor$0@?0??getBiNode@NodeAllocator@Gu@physx@@QEAAPEAVAABBTreeBuildNode@23@XZ@4HA 0000000180122450 f   GuAABBTreeBuild.obj
 0001:00121480       ?dtor$0@?0??init@NodeAllocator@Gu@physx@@QEAAXII@Z@4HA 0000000180122480 f   GuAABBTreeBuild.obj
 0001:001214b0       ?dtor$0@?0???R?$AABBTreeOverlap@UAABBAABBTest@Gu@physx@@UBVHTree@23@UBVHNode@23@IUBVHCallback@23@@Gu@physx@@QEAA_NPEBIPEBVPxBounds3@2@AEBUBVHTree@12@AEBUAABBAABBTest@12@AEAUBVHCallback@12@@Z@4HA 00000001801224b0 f   GuBVHStructure.obj
 0001:001214c0       ?dtor$1@?0???R?$AABBTreeOverlap@UAABBAABBTest@Gu@physx@@UBVHTree@23@UBVHNode@23@IUBVHCallback@23@@Gu@physx@@QEAA_NPEBIPEBVPxBounds3@2@AEBUBVHTree@12@AEBUAABBAABBTest@12@AEAUBVHCallback@12@@Z@4HA 00000001801224c0 f   GuBVHStructure.obj
 0001:001214d0       ?dtor$0@?0???R?$AABBTreeRaycast@$00UBVHTree@Gu@physx@@UBVHNode@23@IUBVHCallback@23@@Gu@physx@@QEAA_NPEBIPEBVPxBounds3@2@AEBUBVHTree@12@AEBVPxVec3@2@3AEAM3AEAUBVHCallback@12@@Z@4HA 00000001801224d0 f   GuBVHStructure.obj
 0001:001214e0       ?dtor$1@?0???R?$AABBTreeRaycast@$00UBVHTree@Gu@physx@@UBVHNode@23@IUBVHCallback@23@@Gu@physx@@QEAA_NPEBIPEBVPxBounds3@2@AEBUBVHTree@12@AEBVPxVec3@2@3AEAM3AEAUBVHCallback@12@@Z@4HA 00000001801224e0 f   GuBVHStructure.obj
 0001:001214f0       ?dtor$0@?0???R?$AABBTreeRaycast@$0A@UBVHTree@Gu@physx@@UBVHNode@23@IUBVHCallback@23@@Gu@physx@@QEAA_NPEBIPEBVPxBounds3@2@AEBUBVHTree@12@AEBVPxVec3@2@3AEAM3AEAUBVHCallback@12@@Z@4HA 00000001801224f0 f   GuBVHStructure.obj
 0001:00121500       ?dtor$1@?0???R?$AABBTreeRaycast@$0A@UBVHTree@Gu@physx@@UBVHNode@23@IUBVHCallback@23@@Gu@physx@@QEAA_NPEBIPEBVPxBounds3@2@AEBUBVHTree@12@AEBVPxVec3@2@3AEAM3AEAUBVHCallback@12@@Z@4HA 0000000180122500 f   GuBVHStructure.obj
 0001:00121510       ?dtor$0@?0??SweepAnyShapeHeightfield@Gu@physx@@YAMAEBUCCDShape@12@0AEBVPxTransform@2@111MAEAVPxVec3@2@2MAEAIM@Z@4HA 0000000180122510 f   GuCCDSweepConvexMesh.obj
 0001:00121520       ?dtor$1@?0??SweepAnyShapeHeightfield@Gu@physx@@YAMAEBUCCDShape@12@0AEBVPxTransform@2@111MAEAVPxVec3@2@2MAEAIM@Z@4HA 0000000180122520 f   GuCCDSweepConvexMesh.obj
 0001:00121530       ?dtor$2@?0??SweepAnyShapeHeightfield@Gu@physx@@YAMAEBUCCDShape@12@0AEBVPxTransform@2@111MAEAVPxVec3@2@2MAEAIM@Z@4HA 0000000180122530 f   GuCCDSweepConvexMesh.obj
 0001:00121540       ?dtor$3@?0??SweepAnyShapeHeightfield@Gu@physx@@YAMAEBUCCDShape@12@0AEBVPxTransform@2@111MAEAVPxVec3@2@2MAEAIM@Z@4HA 0000000180122540 f   GuCCDSweepConvexMesh.obj
 0001:00121550       ?dtor$4@?0??SweepAnyShapeHeightfield@Gu@physx@@YAMAEBUCCDShape@12@0AEBVPxTransform@2@111MAEAVPxVec3@2@2MAEAIM@Z@4HA 0000000180122550 f   GuCCDSweepConvexMesh.obj
 0001:00121560       ?dtor$0@?0??SweepAnyShapeMesh@Gu@physx@@YAMAEBUCCDShape@12@0AEBVPxTransform@2@111MAEAVPxVec3@2@2MAEAIM@Z@4HA 0000000180122560 f   GuCCDSweepConvexMesh.obj
 0001:00121570       ?dtor$1@?0??SweepAnyShapeMesh@Gu@physx@@YAMAEBUCCDShape@12@0AEBVPxTransform@2@111MAEAVPxVec3@2@2MAEAIM@Z@4HA 0000000180122570 f   GuCCDSweepConvexMesh.obj
 0001:00121580       ?dtor$2@?0??SweepAnyShapeMesh@Gu@physx@@YAMAEBUCCDShape@12@0AEBVPxTransform@2@111MAEAVPxVec3@2@2MAEAIM@Z@4HA 0000000180122580 f   GuCCDSweepConvexMesh.obj
 0001:00121590       ?dtor$3@?0??SweepAnyShapeMesh@Gu@physx@@YAMAEBUCCDShape@12@0AEBVPxTransform@2@111MAEAVPxVec3@2@2MAEAIM@Z@4HA 0000000180122590 f   GuCCDSweepConvexMesh.obj
 0001:001215a0       ?dtor$4@?0??SweepAnyShapeMesh@Gu@physx@@YAMAEBUCCDShape@12@0AEBVPxTransform@2@111MAEAVPxVec3@2@2MAEAIM@Z@4HA 00000001801225a0 f   GuCCDSweepConvexMesh.obj
 0001:001215b0       ?dtor$7@?0??SweepAnyShapeMesh@Gu@physx@@YAMAEBUCCDShape@12@0AEBVPxTransform@2@111MAEAVPxVec3@2@2MAEAIM@Z@4HA 00000001801225b0 f   GuCCDSweepConvexMesh.obj
 0001:001215c0       ?dtor$8@?0??SweepAnyShapeMesh@Gu@physx@@YAMAEBUCCDShape@12@0AEBVPxTransform@2@111MAEAVPxVec3@2@2MAEAIM@Z@4HA 00000001801225c0 f   GuCCDSweepConvexMesh.obj
 0001:001215d0       ?dtor$0@?0??SweepEstimateAnyShapeHeightfield@Gu@physx@@YAMAEBUCCDShape@12@0AEBVPxTransform@2@111MM@Z@4HA 00000001801225d0 f   GuCCDSweepConvexMesh.obj
 0001:001215e0       ?dtor$1@?0??SweepEstimateAnyShapeHeightfield@Gu@physx@@YAMAEBUCCDShape@12@0AEBVPxTransform@2@111MM@Z@4HA 00000001801225e0 f   GuCCDSweepConvexMesh.obj
 0001:001215e0       ?dtor$1@?0??findOverlapHeightField@PxMeshQuery@physx@@SAIAEBVPxGeometry@2@AEBVPxTransform@2@AEBVPxHeightFieldGeometry@2@1PEAIIIAEA_N@Z@4HA 00000001801225e0 f   GuMeshQuery.obj
 0001:001215f0       ?dtor$2@?0??SweepEstimateAnyShapeHeightfield@Gu@physx@@YAMAEBUCCDShape@12@0AEBVPxTransform@2@111MM@Z@4HA 00000001801225f0 f   GuCCDSweepConvexMesh.obj
 0001:00121600       ?dtor$0@?0??SweepEstimateAnyShapeMesh@Gu@physx@@YAMAEBUCCDShape@12@0AEBVPxTransform@2@111MM@Z@4HA 0000000180122600 f   GuCCDSweepConvexMesh.obj
 0001:00121610       ?dtor$0@?0???$CCDSweep@VBoxV@Gu@physx@@V123@@Gu@physx@@YAMAEAVBoxV@01@0AEBVPxTransform@1@111AEBT__m128@@AEAVPxVec3@1@3M@Z@4HA 0000000180122610 f   GuCCDSweepPrimitives.obj
 0001:00121610       ?dtor$0@?0???$CCDSweep@VBoxV@Gu@physx@@VConvexHullV@23@@Gu@physx@@YAMAEAVBoxV@01@AEAVConvexHullV@01@AEBVPxTransform@1@222AEBT__m128@@AEAVPxVec3@1@4M@Z@4HA 0000000180122610 f   GuCCDSweepPrimitives.obj
 0001:00121610       ?dtor$0@?0???$CCDSweep@VCapsuleV@Gu@physx@@V123@@Gu@physx@@YAMAEAVCapsuleV@01@0AEBVPxTransform@1@111AEBT__m128@@AEAVPxVec3@1@3M@Z@4HA 0000000180122610 f   GuCCDSweepPrimitives.obj
 0001:00121610       ?dtor$0@?0???$CCDSweep@VCapsuleV@Gu@physx@@VBoxV@23@@Gu@physx@@YAMAEAVCapsuleV@01@AEAVBoxV@01@AEBVPxTransform@1@222AEBT__m128@@AEAVPxVec3@1@4M@Z@4HA 0000000180122610 f   GuCCDSweepPrimitives.obj
 0001:00121610       ?dtor$0@?0???$CCDSweep@VCapsuleV@Gu@physx@@VConvexHullV@23@@Gu@physx@@YAMAEAVCapsuleV@01@AEAVConvexHullV@01@AEBVPxTransform@1@222AEBT__m128@@AEAVPxVec3@1@4M@Z@4HA 0000000180122610 f   GuCCDSweepPrimitives.obj
