 PhysXCooking_64

 Timestamp is 6368da55 (Mon Nov  7 19:13:41 2022)

 Preferred load address is 0000000180000000

 Start         Length     Name                   Class
 0001:00000000 000003c0H .text$di                CODE
 0001:000003c0 00029690H .text$mn                CODE
 0001:00029a50 00000040H .text$mn$00             CODE
 0001:00029a90 00000768H .text$x                 CODE
 0002:00000000 000001c0H .idata$5                DATA
 0002:000001c0 00000038H .00cfg                  DATA
 0002:000001f8 00000008H .CRT$XCA                DATA
 0002:00000200 000001e0H .CRT$XCU                DATA
 0002:000003e0 00000008H .CRT$XCZ                DATA
 0002:000003e8 00000008H .CRT$XIA                DATA
 0002:000003f0 00000008H .CRT$XIZ                DATA
 0002:000003f8 00000008H .CRT$XPA                DATA
 0002:00000400 00000008H .CRT$XPZ                DATA
 0002:00000408 00000008H .CRT$XTA                DATA
 0002:00000410 00000010H .CRT$XTZ                DATA
 0002:00000418 00000000H .gehcont$y              DATA
 0002:00000418 00000000H .gfids$y                DATA
 0002:00000420 00002260H .rdata                  DATA
 0002:00002680 00000000H .rdata$CastGuardVftablesA DATA
 0002:00002680 00000000H .rdata$CastGuardVftablesC DATA
 0002:00002680 00000a2cH .rdata$r                DATA
 0002:000030ac 000000dcH .rdata$voltmd           DATA
 0002:00003188 000003f0H .rdata$zzzdbg           DATA
 0002:00003578 00000008H .rtc$IAA                DATA
 0002:00003580 00000008H .rtc$IZZ                DATA
 0002:00003588 00000008H .rtc$TAA                DATA
 0002:00003590 00000008H .rtc$TZZ                DATA
 0002:00003598 000035f8H .xdata                  DATA
 0002:00006b90 00000040H .didat$2                DATA
 0002:00006bd0 00000020H .didat$3                DATA
 0002:00006bf0 00000188H .didat$4                DATA
 0002:00006d78 00000950H .didat$6                DATA
 0002:000076c8 00000188H .didat$7                DATA
 0002:00007850 00001d00H .edata                  DATA
 0002:00009550 0000008cH .idata$2                DATA
 0002:000095dc 00000014H .idata$3                DATA
 0002:000095f0 000001c0H .idata$4                DATA
 0002:000097b0 00000478H .idata$6                DATA
 0003:00000000 00000070H .data                   DATA
 0003:00000070 00000598H .data$r                 DATA
 0003:00000608 00000328H .data$rs                DATA
 0003:00000930 00000190H .didat$5                DATA
 0003:00000ac0 00000a00H .bss                    DATA
 0004:00000000 00001ca4H .pdata                  DATA
 0005:00000000 00002208H _RDATA                  DATA
 0006:00000000 000000a0H .rsrc$01                DATA
 0006:000000a0 000004b0H .rsrc$02                DATA

  Address         Publics by Value              Rva+Base               Lib:Object

 0000:00000000       __guard_iat_count          0000000000000000     <absolute>
 0000:00000000       __AbsoluteZero             0000000000000000     <absolute>
 0000:00000000       __x64_code_ranges_to_entry_points 0000000000000000     <absolute>
 0000:00000000       __guard_iat_table          0000000000000000     <absolute>
 0000:00000000       __guard_check_icall_a64n_fptr 0000000000000000     <absolute>
 0000:00000000       __guard_eh_cont_count      0000000000000000     <absolute>
 0000:00000000       __guard_longjmp_table      0000000000000000     <absolute>
 0000:00000000       __guard_fids_count         0000000000000000     <absolute>
 0000:00000000       __guard_fids_table         0000000000000000     <absolute>
 0000:00000000       __x64_code_ranges_to_entry_points_count 0000000000000000     <absolute>
 0000:00000000       __hybrid_auxiliary_iat_copy 0000000000000000     <absolute>
 0000:00000000       __arm64x_redirection_metadata 0000000000000000     <absolute>
 0000:00000000       __guard_longjmp_count      0000000000000000     <absolute>
 0000:00000000       ___safe_se_handler_count   0000000000000000     <absolute>
 0000:00000000       __hybrid_auxiliary_iat     0000000000000000     <absolute>
 0000:00000000       ___safe_se_handler_table   0000000000000000     <absolute>
 0000:00000000       __arm64x_extra_rfe_table_size 0000000000000000     <absolute>
 0000:00000000       __arm64x_redirection_metadata_count 0000000000000000     <absolute>
 0000:00000000       __enclave_config           0000000000000000     <absolute>
 0000:00000000       __hybrid_code_map          0000000000000000     <absolute>
 0000:00000000       __arm64x_extra_rfe_table   0000000000000000     <absolute>
 0000:00000000       __dynamic_value_reloc_table 0000000000000000     <absolute>
 0000:00000000       __guard_eh_cont_table      0000000000000000     <absolute>
 0000:00000000       __arm64x_native_entrypoint 0000000000000000     <absolute>
 0000:00000000       __hybrid_code_map_count    0000000000000000     <absolute>
 0000:00000100       __guard_flags              0000000000000100     <absolute>
 0000:00000000       __ImageBase                0000000180000000     <linker-defined>
 0001:000003c0       ??$?_UV?$ReflectionAllocator@VAdjTriangle@physx@@@shdfnd@physx@@@UserAllocated@shdfnd@physx@@SAPEAX_KV?$ReflectionAllocator@VAdjTriangle@physx@@@12@PEBDH@Z 00000001800013c0 f i Adjacencies.obj
 0001:00000460       ??$?3V?$ReflectionAllocator@VBV32Tree@Gu@physx@@@shdfnd@physx@@@UserAllocated@shdfnd@physx@@SAXPEAXV?$ReflectionAllocator@VBV32Tree@Gu@physx@@@12@PEBDH@Z 0000000180001460 f i TriangleMeshBuilder.obj
 0001:00000460       ??$?3V?$ReflectionAllocator@VEdgeListBuilder@Gu@physx@@@shdfnd@physx@@@UserAllocated@shdfnd@physx@@SAXPEAXV?$ReflectionAllocator@VEdgeListBuilder@Gu@physx@@@12@PEBDH@Z 0000000180001460 f i TriangleMeshBuilder.obj
 0001:00000460       ??$?3V?$ReflectionAllocator@VConvexHull@physx@@@shdfnd@physx@@@UserAllocated@shdfnd@physx@@SAXPEAXV?$ReflectionAllocator@VConvexHull@physx@@@12@PEBDH@Z 0000000180001460 f i ConvexHullUtils.obj
 0001:00000460       ??$?_VV?$ReflectionAllocator@VAdjTriangle@physx@@@shdfnd@physx@@@UserAllocated@shdfnd@physx@@SAXPEAXV?$ReflectionAllocator@VAdjTriangle@physx@@@12@PEBDH@Z 0000000180001460 f i Adjacencies.obj
 0001:00000460       ??$?3V?$ReflectionAllocator@VBigConvexData@physx@@@shdfnd@physx@@@UserAllocated@shdfnd@physx@@SAXPEAXV?$ReflectionAllocator@VBigConvexData@physx@@@12@PEBDH@Z 0000000180001460 f i ConvexMeshBuilder.obj
 0001:00000460       ??$?_VV?$ReflectionAllocator@VAdjEdge@@@shdfnd@physx@@@UserAllocated@shdfnd@physx@@SAXPEAXV?$ReflectionAllocator@VAdjEdge@@@12@PEBDH@Z 0000000180001460 f i Adjacencies.obj
 0001:00000460       ??$?3V?$ReflectionAllocator@VHeightField@Gu@physx@@@shdfnd@physx@@@UserAllocated@shdfnd@physx@@SAXPEAXV?$ReflectionAllocator@VHeightField@Gu@physx@@@12@PEBDH@Z 0000000180001460 f i Cooking.obj
 0001:00000460       ??$?3V?$ReflectionAllocator@VQuickHullConvexHullLib@physx@@@shdfnd@physx@@@UserAllocated@shdfnd@physx@@SAXPEAXV?$ReflectionAllocator@VQuickHullConvexHullLib@physx@@@12@PEBDH@Z 0000000180001460 f i Cooking.obj
 0001:00000490       ??4PxFoundation@physx@@QEAAAEAV01@AEBV01@@Z 0000000180001490 f i Adjacencies.obj
 0001:00000490       ?getAABB@AABBTreeBuildNode@Gu@physx@@QEBAAEBVPxBounds3@3@XZ 0000000180001490 f i BVHStructureBuilder.obj
 0001:00000490       ?getPaddedBounds@HeightFieldData@Gu@physx@@QEBAAEBVCenterExtentsPadded@23@XZ 0000000180001490 f i Cooking.obj
 0001:00000490       ??0Box@Gu@physx@@QEAA@XZ   0000000180001490 f i ConvexHullUtils.obj
 0001:00000490       ??0AABBTreeBuildNode@Gu@physx@@QEAA@XZ 0000000180001490 f i BVHStructureBuilder.obj
 0001:00000490       ??4MutexImpl@shdfnd@physx@@QEAAAEAV012@AEBV012@@Z 0000000180001490 f i Adjacencies.obj
 0001:00000490       ??0AdjTriangle@physx@@QEAA@XZ 0000000180001490 f i Adjacencies.obj
 0001:00000490       ??4Allocator@shdfnd@physx@@QEAAAEAV012@AEBV012@@Z 0000000180001490 f i Adjacencies.obj
 0001:00000490       ??0AdjEdge@@QEAA@XZ        0000000180001490 f i Adjacencies.obj
 0001:00000490       ??0Allocator@shdfnd@physx@@QEAA@PEBD@Z 0000000180001490 f i Adjacencies.obj
 0001:00000490       ??0HeightFieldData@Gu@physx@@QEAA@W4PxEMPTY@2@@Z 0000000180001490 f i Cooking.obj
 0001:00000490       ??4Allocator@shdfnd@physx@@QEAAAEAV012@$$QEAV012@@Z 0000000180001490 f i Adjacencies.obj
 0001:00000490       ??0BigConvexData@physx@@QEAA@W4PxEMPTY@1@@Z 0000000180001490 f i BigConvexDataBuilder.obj
 0001:000004a0       ??0AdjacenciesBuilder@physx@@QEAA@XZ 00000001800014a0 f   Adjacencies.obj
 0001:000004b0       ??0PxFoundation@physx@@QEAA@XZ 00000001800014b0 f i Adjacencies.obj
 0001:000004b0       ??0PxFoundation@physx@@QEAA@AEBV01@@Z 00000001800014b0 f i Adjacencies.obj
 0001:000004c0       ??1Box@Gu@physx@@QEAA@XZ   00000001800014c0 f i ConvexHullUtils.obj
 0001:000004c0       ??1BigConvexDataBuilder@physx@@QEAA@XZ 00000001800014c0 f i BigConvexDataBuilder.obj
 0001:000004c0       ??1AABBTreeBuildNode@Gu@physx@@QEAA@XZ 00000001800014c0 f i BVHStructureBuilder.obj
 0001:000004c0       ??1HeightFieldData@Gu@physx@@QEAA@XZ 00000001800014c0 f i Cooking.obj
 0001:000004c0       ?onMeshIndexFormatChange@TriangleMeshBuilder@physx@@UEAAXXZ 00000001800014c0 f i TriangleMeshBuilder.obj
 0001:000004c0       ??_FAllocator@shdfnd@physx@@QEAAXXZ 00000001800014c0 f i Adjacencies.obj
 0001:000004c0       ??1AdjTriangle@physx@@QEAA@XZ 00000001800014c0 f i Adjacencies.obj
 0001:000004c0       ??1AdjEdge@@QEAA@XZ        00000001800014c0 f i Adjacencies.obj
 0001:000004d0       ??1AdjacenciesBuilder@physx@@QEAA@XZ 00000001800014d0 f   Adjacencies.obj
 0001:00000530       ??1PxFoundation@physx@@MEAA@XZ 0000000180001530 f i Adjacencies.obj
 0001:00000540       ??_EPxFoundation@physx@@MEAAPEAXI@Z 0000000180001540 f i Adjacencies.obj
 0001:000006d0       ?ComputeNbBoundaryEdges@Adjacencies@physx@@QEBAIXZ 00000001800016d0 f   Adjacencies.obj
 0001:000009d0       ?GetNbHits@RadixSort@Cm@physx@@QEBAIXZ 00000001800019d0 f i Adjacencies.obj
 0001:000009e0       ?GetNbTotalCalls@RadixSort@Cm@physx@@QEBAIXZ 00000001800019e0 f i Adjacencies.obj
 0001:000009f0       ?GetRanks@RadixSort@Cm@physx@@QEBAPEBIXZ 00000001800019f0 f i Adjacencies.obj
 0001:000009f0       ?getErrorCallback@Foundation@shdfnd@physx@@UEAAAEAVPxErrorCallback@3@XZ 00000001800019f0 f i Adjacencies.obj
 0001:00000a00       ?GetRecyclable@RadixSort@Cm@physx@@QEBAPEAIXZ 0000000180001a00 f i Adjacencies.obj
 0001:00000a00       ?getPos@AABBTreeBuildNode@Gu@physx@@QEBAPEBV123@XZ 0000000180001a00 f i BVHStructureBuilder.obj
 0001:00000a00       ?GetValencies@BigConvexData@physx@@QEBAPEBUValency@Gu@2@XZ 0000000180001a00 f i BigConvexDataBuilder.obj
 0001:00000a10       ?Init@AdjacenciesBuilder@physx@@QEAA_NAEBUADJACENCIESCREATE@2@@Z 0000000180001a10 f   Adjacencies.obj
 0001:00000fc0       ?getAllocator@Foundation@shdfnd@physx@@QEAAAEAVPxAllocatorCallback@3@XZ 0000000180001fc0 f i Adjacencies.obj
 0001:00000fd0       ?getAllocatorCallback@Foundation@shdfnd@physx@@UEAAAEAVPxAllocatorCallback@3@XZ 0000000180001fd0 f i Adjacencies.obj
 0001:00000fe0       ?getErrorLevel@Foundation@shdfnd@physx@@UEBA?AW4Enum@PxErrorCode@3@XZ 0000000180001fe0 f i Adjacencies.obj
 0001:00000ff0       ?getInternalErrorCallback@Foundation@shdfnd@physx@@QEAAAEAVPxErrorCallback@3@XZ 0000000180001ff0 f i Adjacencies.obj
 0001:00001000       ?getNamedAllocMap@Foundation@shdfnd@physx@@QEAAAEAV?$HashMap@PEBVNamedAllocator@shdfnd@physx@@PEBDU?$Hash@PEBVNamedAllocator@shdfnd@physx@@@23@VNonTrackingAllocator@23@@23@XZ 0000000180002000 f i Adjacencies.obj
 0001:00001010       ?getNamedAllocMutex@Foundation@shdfnd@physx@@QEAAAEAV?$MutexT@VAllocator@shdfnd@physx@@@23@XZ 0000000180002010 f i Adjacencies.obj
 0001:00001020       ?getReportAllocationNames@Foundation@shdfnd@physx@@UEBA_NXZ 0000000180002020 f i Adjacencies.obj
 0001:00001030       ?getTempAllocFreeTable@Foundation@shdfnd@physx@@QEAAAEAV?$Array@PEATTempAllocatorChunk@shdfnd@physx@@VAllocator@23@@23@XZ 0000000180002030 f i Adjacencies.obj
 0001:00001040       ?getTempAllocMutex@Foundation@shdfnd@physx@@QEAAAEAV?$MutexT@VAllocator@shdfnd@physx@@@23@XZ 0000000180002040 f i Adjacencies.obj
 0001:00001050       ?invalidateRanks@RadixSort@Cm@physx@@QEAAXXZ 0000000180002050 f i Adjacencies.obj
 0001:00001060       ?setErrorLevel@Foundation@shdfnd@physx@@UEAAXW4Enum@PxErrorCode@3@@Z 0000000180002060 f i Adjacencies.obj
 0001:00001070       ?setReportAllocationNames@Foundation@shdfnd@physx@@UEAAX_N@Z 0000000180002070 f i Adjacencies.obj
 0001:00001080       ??0DebugText@Cm@physx@@QEAA@AEBU012@@Z 0000000180002080 f i Cooking.obj
 0001:00001080       ??0DebugText@Cm@physx@@QEAA@$$QEAU012@@Z 0000000180002080 f i Cooking.obj
 0001:00001160       ??0HeightFieldData@Gu@physx@@QEAA@AEBU012@@Z 0000000180002160 f i Cooking.obj
 0001:00001160       ??4HeightFieldData@Gu@physx@@QEAAAEAU012@$$QEAU012@@Z 0000000180002160 f i Cooking.obj
 0001:00001160       ??4HeightFieldData@Gu@physx@@QEAAAEAU012@AEBU012@@Z 0000000180002160 f i Cooking.obj
 0001:00001160       ??0HeightFieldData@Gu@physx@@QEAA@$$QEAU012@@Z 0000000180002160 f i Cooking.obj
 0001:000011c0       ??0HeightFieldData@Gu@physx@@QEAA@XZ 00000001800021c0 f i Cooking.obj
 0001:000011d0       ??0RenderOutput@Cm@physx@@QEAA@AEAVRenderBuffer@12@@Z 00000001800021d0 f i Cooking.obj
 0001:00001220       ??0RenderOutput@Cm@physx@@QEAA@AEBV012@@Z 0000000180002220 f i Cooking.obj
 0001:000012c0       ??1PxHeightField@physx@@MEAA@XZ 00000001800022c0 f i Cooking.obj
 0001:000012c0       ??1PxConvexMesh@physx@@MEAA@XZ 00000001800022c0 f i Cooking.obj
 0001:000012d0       ??4DebugText@Cm@physx@@QEAAAEAU012@AEBU012@@Z 00000001800022d0 f i Cooking.obj
 0001:000012d0       ??4DebugText@Cm@physx@@QEAAAEAU012@$$QEAU012@@Z 00000001800022d0 f i Cooking.obj
 0001:00001400       ??4FPUGuard@shdfnd@physx@@QEAAAEAV012@AEBV012@@Z 0000000180002400 f i Cooking.obj
 0001:00001420       ??_ECooking@physx@@UEAAPEAXI@Z 0000000180002420 f i Cooking.obj
 0001:00001420       ??_GCooking@physx@@UEAAPEAXI@Z 0000000180002420 f i Cooking.obj
 0001:00001470       ??_GPxBase@physx@@MEAAPEAXI@Z 0000000180002470 f i Cooking.obj
 0001:00001470       ??_EPxBase@physx@@MEAAPEAXI@Z 0000000180002470 f i Cooking.obj
 0001:000014a0       ??_EPxCooking@physx@@MEAAPEAXI@Z 00000001800024a0 f i Cooking.obj
 0001:000014a0       ??_GPxCooking@physx@@MEAAPEAXI@Z 00000001800024a0 f i Cooking.obj
 0001:000014d0       ?allocate@?$Array@UPxDebugLine@physx@@V?$ReflectionAllocator@UPxDebugLine@physx@@@shdfnd@2@@shdfnd@physx@@IEAAPEAUPxDebugLine@3@I@Z 00000001800024d0 f i Cooking.obj
 0001:00001570       ?computeHullPolygons@Cooking@physx@@UEBA_NAEBVPxSimpleTriangleMesh@2@AEAVPxAllocatorCallback@2@AEAIAEAPEAVPxVec3@2@2AEAPEAI2AEAPEAUPxHullPolygon@2@@Z 0000000180002570 f   Cooking.obj
 0001:000017a0       ?cookBVHStructure@Cooking@physx@@UEBA_NAEBVPxBVHStructureDesc@2@AEAVPxOutputStream@2@@Z 00000001800027a0 f   Cooking.obj
 0001:00001850       ?cookConvexMesh@Cooking@physx@@UEBA_NAEBVPxConvexMeshDesc@2@AEAVPxOutputStream@2@PEAW4Enum@PxConvexMeshCookingResult@2@@Z 0000000180002850 f   Cooking.obj
 0001:00001a60       ?cookConvexMeshInternal@Cooking@physx@@AEBA_NAEBVPxConvexMeshDesc@2@AEAVConvexMeshBuilder@2@PEAVConvexHullLib@2@PEAW4Enum@PxConvexMeshCookingResult@2@@Z 0000000180002a60 f   Cooking.obj
 0001:00001cd0       ?cookHeightField@Cooking@physx@@UEBA_NAEBVPxHeightFieldDesc@2@AEAVPxOutputStream@2@@Z 0000000180002cd0 f   Cooking.obj
 0001:00001dd0       ?cookTriangleMesh@Cooking@physx@@UEBA_NAEBVPxTriangleMeshDesc@2@AEAVPxOutputStream@2@PEAW4Enum@PxTriangleMeshCookingResult@2@@Z 0000000180002dd0 f   Cooking.obj
 0001:00001f20       ?copy@?$Array@UPxDebugLine@physx@@V?$ReflectionAllocator@UPxDebugLine@physx@@@shdfnd@2@@shdfnd@physx@@KAXPEAUPxDebugLine@3@0PEBU43@@Z 0000000180002f20 f i Cooking.obj
 0001:000020d0       ?createBVHStructure@Cooking@physx@@UEBAPEAVPxBVHStructure@2@AEBVPxBVHStructureDesc@2@AEAVPxPhysicsInsertionCallback@2@@Z 00000001800030d0 f   Cooking.obj
 0001:000021a0       ?createConvexMesh@Cooking@physx@@UEBAPEAVPxConvexMesh@2@AEBVPxConvexMeshDesc@2@AEAVPxPhysicsInsertionCallback@2@PEAW4Enum@PxConvexMeshCookingResult@2@@Z 00000001800031a0 f   Cooking.obj
 0001:000023c0       ?createHeightField@Cooking@physx@@UEBAPEAVPxHeightField@2@AEBVPxHeightFieldDesc@2@AEAVPxPhysicsInsertionCallback@2@@Z 00000001800033c0 f   Cooking.obj
 0001:00002550       ?createTriangleMesh@Cooking@physx@@UEBAPEAVPxTriangleMesh@2@AEBVPxTriangleMeshDesc@2@AEAVPxPhysicsInsertionCallback@2@PEAW4Enum@PxTriangleMeshCookingResult@2@@Z 0000000180003550 f   Cooking.obj
 0001:000026c0       ?getConcreteTypeName@PxConvexMesh@physx@@UEBAPEBDXZ 00000001800036c0 f i Cooking.obj
 0001:000026d0       ?getConcreteTypeName@PxHeightField@physx@@UEBAPEBDXZ 00000001800036d0 f i Cooking.obj
 0001:000026e0       ?getConvexEdgeThreshold@HeightField@Gu@physx@@UEBAMXZ 00000001800036e0 f i Cooking.obj
 0001:000026f0       ?getFlags@HeightField@Gu@physx@@UEBA?AV?$PxFlags@W4Enum@PxHeightFieldFlag@physx@@G@3@XZ 00000001800036f0 f i Cooking.obj
 0001:00002700       ?getFormat@HeightField@Gu@physx@@UEBA?AW4Enum@PxHeightFieldFormat@3@XZ 0000000180003700 f i Cooking.obj
 0001:00002710       ?getHeight@HeightField@Gu@physx@@UEBAMMM@Z 0000000180003710 f i Cooking.obj
 0001:00002750       ?getHeightInternal2@HeightField@Gu@physx@@QEBAMIMM@Z 0000000180003750 f i Cooking.obj
 0001:000028c0       ?getIndexBuffer@ConvexMesh@Gu@physx@@UEBAPEBEXZ 00000001800038c0 f i Cooking.obj
 0001:00002900       ?getNbColumns@HeightField@Gu@physx@@UEBAIXZ 0000000180003900 f i Cooking.obj
 0001:00002910       ?getNbPolygons@ConvexMesh@Gu@physx@@UEBAIXZ 0000000180003910 f i Cooking.obj
 0001:00002920       ?getNbRows@HeightField@Gu@physx@@UEBAIXZ 0000000180003920 f i Cooking.obj
 0001:00002930       ?getNbVertices@ConvexMesh@Gu@physx@@UEBAIXZ 0000000180003930 f i Cooking.obj
 0001:00002940       ?getDenormalizeScale@QuantizerImpl@@UEBAAEBVPxVec3@physx@@XZ 0000000180003940 f   Quantizer.obj
 0001:00002940       ?getParams@Cooking@physx@@UEBAAEBUPxCookingParams@2@XZ 0000000180003940 f   Cooking.obj
 0001:00002950       ?getSample@HeightField@Gu@physx@@UEBAAEBUPxHeightFieldSample@3@II@Z 0000000180003950 f i Cooking.obj
 0001:00002960       ?getSampleStride@HeightField@Gu@physx@@UEBAIXZ 0000000180003960 f i Cooking.obj
 0001:00002970       ?getTimestamp@HeightField@Gu@physx@@UEBAIXZ 0000000180003970 f i Cooking.obj
 0001:00002980       ?getTriangleMaterialIndex@HeightField@Gu@physx@@UEBAGI@Z 0000000180003980 f i Cooking.obj
 0001:000029b0       ?getTriangleNormal@HeightField@Gu@physx@@UEBA?AVPxVec3@3@I@Z 00000001800039b0 f i Cooking.obj
 0001:000029d0       ?getTriangleNormalInternal@HeightField@Gu@physx@@QEBA?AVPxVec3@3@I@Z 00000001800039d0 f i Cooking.obj
 0001:00002b20       ?getVertices@ConvexMesh@Gu@physx@@UEBAPEBVPxVec3@3@XZ 0000000180003b20 f i Cooking.obj
 0001:00002b40       ?isKindOf@PxBase@physx@@MEBA_NPEBD@Z 0000000180003b40 f i Cooking.obj
 0001:00002b70       ?isKindOf@PxConvexMesh@physx@@MEBA_NPEBD@Z 0000000180003b70 f i Cooking.obj
 0001:00002bc0       ?isKindOf@PxHeightField@physx@@MEBA_NPEBD@Z 0000000180003bc0 f i Cooking.obj
 0001:00002c10       ?isReleasable@PxBase@physx@@UEBA_NXZ 0000000180003c10 f i Cooking.obj
 0001:00002c20       ?outputSegment@RenderOutput@Cm@physx@@QEAAXAEBVPxVec3@3@0@Z 0000000180003c20 f i Cooking.obj
 0001:00002ce0       ?platformMismatch@Cooking@physx@@UEBA_NXZ 0000000180003ce0 f   Cooking.obj
 0001:00002cf0       ?preExportDataReset@ConvexMesh@Gu@physx@@QEAAXXZ 0000000180003cf0 f i Cooking.obj
 0001:00002cf0       ?preExportDataReset@HeightField@Gu@physx@@QEAAXXZ 0000000180003cf0 f i Cooking.obj
 0001:00002d00       ?recreate@?$Array@UPxDebugLine@physx@@V?$ReflectionAllocator@UPxDebugLine@physx@@@shdfnd@2@@shdfnd@physx@@IEAAXI@Z 0000000180003d00 f i Cooking.obj
 0001:00002d90       ?release@Cooking@physx@@UEAAXXZ 0000000180003d90 f   Cooking.obj
 0001:00002db0       ?reserveSegments@RenderOutput@Cm@physx@@QEAAPEAUPxDebugLine@3@I@Z 0000000180003db0 f i Cooking.obj
 0001:00002e10       ?setParams@Cooking@physx@@UEAAXAEBUPxCookingParams@2@@Z 0000000180003e10 f   Cooking.obj
 0001:00002e70       ?validateConvexMesh@Cooking@physx@@UEBA_NAEBVPxConvexMeshDesc@2@@Z 0000000180003e70 f   Cooking.obj
 0001:00002f00       ?validateTriangleMesh@Cooking@physx@@UEBA_NAEBVPxTriangleMeshDesc@2@@Z 0000000180003f00 f   Cooking.obj
 0001:00003030       PxCreateCooking            0000000180004030 f   Cooking.obj
 0001:00003120       ??0ReducedVertexCloud@physx@@QEAA@PEBVPxVec3@1@I@Z 0000000180004120 f   CookingUtils.obj
 0001:00003140       ??1ReducedVertexCloud@physx@@QEAA@XZ 0000000180004140 f   CookingUtils.obj
 0001:00003150       ?Clean@ReducedVertexCloud@physx@@QEAAAEAV12@XZ 0000000180004150 f   CookingUtils.obj
 0001:000031c0       ?Reduce@ReducedVertexCloud@physx@@QEAA_NPEAUREDUCEDCLOUD@2@@Z 00000001800041c0 f   CookingUtils.obj
 0001:00003500       ??$?_UI@@YAPEAX_KV?$ReflectionAllocator@I@shdfnd@physx@@PEBDH@Z 0000000180004500 f i EdgeList.obj
 0001:000035a0       ??0EdgeListBuilder@Gu@physx@@QEAA@XZ 00000001800045a0 f   EdgeList.obj
 0001:000035c0       ??1EdgeList@Gu@physx@@QEAA@XZ 00000001800045c0 f   EdgeList.obj
 0001:00003660       ??1EdgeListBuilder@Gu@physx@@QEAA@XZ 0000000180004660 f   EdgeList.obj
 0001:00003670       ?computeActiveEdges@EdgeListBuilder@Gu@physx@@AEAA_NIPEBIPEBGPEBVPxVec3@3@M@Z 0000000180004670 f   EdgeList.obj
 0001:00004cd0       ?createEdgesToFaces@EdgeListBuilder@Gu@physx@@AEAA_NIPEBIPEBG@Z 0000000180005cd0 f   EdgeList.obj
 0001:00004f30       ?createFacesToEdges@EdgeListBuilder@Gu@physx@@AEAA_NIPEBIPEBG@Z 0000000180005f30 f   EdgeList.obj
 0001:00005330       ?init@EdgeListBuilder@Gu@physx@@QEAA_NAEBUEDGELISTCREATE@23@@Z 0000000180006330 f   EdgeList.obj
 0001:00005450       ??0MeshCleaner@physx@@QEAA@IPEBVPxVec3@1@IPEBIM@Z 0000000180006450 f   MeshCleaner.obj
 0001:00005dc0       ??1MeshCleaner@physx@@QEAA@XZ 0000000180006dc0 f   MeshCleaner.obj
 0001:00005e50       ??$kmeans_cluster@VPxVec3@physx@@M@@YAIPEBVPxVec3@physx@@IIPEAV01@PEAIMM@Z 0000000180006e50 f i Quantizer.obj
 0001:00006810       ??_GQuantizer@physx@@MEAAPEAXI@Z 0000000180007810 f i Quantizer.obj
 0001:00006810       ??_EQuantizer@physx@@MEAAPEAXI@Z 0000000180007810 f i Quantizer.obj
 0001:00006840       ??_GQuantizerImpl@@EEAAPEAXI@Z 0000000180007840 f i Quantizer.obj
 0001:00006840       ??_EQuantizerImpl@@EEAAPEAXI@Z 0000000180007840 f i Quantizer.obj
 0001:00006910       ?createQuantizer@physx@@YAPEAVQuantizer@1@XZ 0000000180007910 f   Quantizer.obj
 0001:000069c0       ?getDenormalizeCenter@QuantizerImpl@@UEBAAEBVPxVec3@physx@@XZ 00000001800079c0 f i Quantizer.obj
 0001:000069d0       ?growAndPushBack@?$Array@VPxVec3@physx@@V?$ReflectionAllocator@VPxVec3@physx@@@shdfnd@2@@shdfnd@physx@@IEAAAEAVPxVec3@3@AEBV43@@Z 00000001800079d0 f i Quantizer.obj
 0001:00006bb0       ?kmeansQuantize3D@QuantizerImpl@@UEAAPEBVPxVec3@physx@@IPEBV23@I_NIAEAI@Z 0000000180007bb0 f i Quantizer.obj
 0001:00006e10       ?normalizeInput@QuantizerImpl@@AEAAXIPEBVPxVec3@physx@@I@Z 0000000180007e10 f i Quantizer.obj
 0001:00007260       ?release@QuantizerImpl@@UEAAXXZ 0000000180008260 f i Quantizer.obj
 0001:00007280       ??$copy@V?$ReflectionAllocator@USlab@NodeAllocator@Gu@physx@@@shdfnd@physx@@@?$Array@USlab@NodeAllocator@Gu@physx@@V?$ReflectionAllocator@USlab@NodeAllocator@Gu@physx@@@shdfnd@4@@shdfnd@physx@@IEAAXAEBV012@@Z 0000000180008280 f i BVHStructureBuilder.obj
 0001:00007300       ??0AABBTreeBuildNode@Gu@physx@@QEAA@AEBV012@@Z 0000000180008300 f i BVHStructureBuilder.obj
 0001:00007300       ??4AABBTreeBuildNode@Gu@physx@@QEAAAEAV012@AEBV012@@Z 0000000180008300 f i BVHStructureBuilder.obj
 0001:00007340       ??0AABBTreeBuildParams@Gu@physx@@QEAA@IIPEBVPxBounds3@2@@Z 0000000180008340 f i BVHStructureBuilder.obj
 0001:00007360       ??0BVHStructureBuilder@physx@@QEAA@XZ 0000000180008360 f   BVHStructureBuilder.obj
 0001:00007380       ??0BuildStats@Gu@physx@@QEAA@XZ 0000000180008380 f i BVHStructureBuilder.obj
 0001:00007390       ??0NodeAllocator@Gu@physx@@QEAA@AEBV012@@Z 0000000180008390 f i BVHStructureBuilder.obj
 0001:000073d0       ??1AABBTreeBuildParams@Gu@physx@@QEAA@XZ 00000001800083d0 f i BVHStructureBuilder.obj
 0001:00007430       ??1BVHStructureBuilder@physx@@QEAA@XZ 0000000180008430 f   BVHStructureBuilder.obj
 0001:000074b0       ??4AABBTreeBuildParams@Gu@physx@@QEAAAEAV012@AEBV012@@Z 00000001800084b0 f i BVHStructureBuilder.obj
 0001:000074d0       ??4BuildStats@Gu@physx@@QEAAAEAU012@$$QEAU012@@Z 00000001800084d0 f i BVHStructureBuilder.obj
 0001:000074e0       ??4BuildStats@Gu@physx@@QEAAAEAU012@AEBU012@@Z 00000001800084e0 f i BVHStructureBuilder.obj
 0001:000074f0       ??4NodeAllocator@Gu@physx@@QEAAAEAV012@AEBV012@@Z 00000001800084f0 f i BVHStructureBuilder.obj
 0001:000075a0       ??_FAABBTreeBuildParams@Gu@physx@@QEAAXXZ 00000001800085a0 f i BVHStructureBuilder.obj
 0001:000075c0       ?__global_delete@@YAXPEAX_K@Z 00000001800085c0 f i BVHStructureBuilder.obj
 0001:000075d0       ?allocate@?$Array@USlab@NodeAllocator@Gu@physx@@V?$ReflectionAllocator@USlab@NodeAllocator@Gu@physx@@@shdfnd@4@@shdfnd@physx@@IEAAPEAUSlab@NodeAllocator@Gu@3@I@Z 00000001800085d0 f i BVHStructureBuilder.obj
 0001:00007670       ?flatten@@YAXAEBVNodeAllocator@Gu@physx@@PEAUBVHNode@23@@Z 0000000180008670 f   BVHStructureBuilder.obj
 0001:00007840       ?getCount@BuildStats@Gu@physx@@QEBAIXZ 0000000180008840 f i BVHStructureBuilder.obj
 0001:00007850       ?getNbPrimitives@AABBTreeBuildNode@Gu@physx@@QEBAIXZ 0000000180008850 f i BVHStructureBuilder.obj
 0001:00007850       ?getNbRuntimePrimitives@AABBTreeBuildNode@Gu@physx@@QEBAIXZ 0000000180008850 f i BVHStructureBuilder.obj
 0001:00007860       ?getNeg@AABBTreeBuildNode@Gu@physx@@QEBAPEBV123@XZ 0000000180008860 f i BVHStructureBuilder.obj
 0001:00007880       ?getPrimitives@AABBTreeBuildNode@Gu@physx@@QEAAPEAIPEAI@Z 0000000180008880 f i BVHStructureBuilder.obj
 0001:00007880       ?getPrimitives@AABBTreeBuildNode@Gu@physx@@QEBAPEBIPEBI@Z 0000000180008880 f i BVHStructureBuilder.obj
 0001:00007890       ?increaseCount@BuildStats@Gu@physx@@QEAAXI@Z 0000000180008890 f i BVHStructureBuilder.obj
 0001:000078a0       ?isLeaf@AABBTreeBuildNode@Gu@physx@@QEBA_NXZ 00000001800088a0 f i BVHStructureBuilder.obj
 0001:000078b0       ?loadFromDesc@BVHStructureBuilder@physx@@QEAA_NAEBVPxBVHStructureDesc@2@@Z 00000001800088b0 f   BVHStructureBuilder.obj
 0001:00007bc0       ?moveData@BVHStructureBuilder@physx@@QEAAXAEAUBVHStructureData@Gu@2@@Z 0000000180008bc0 f   BVHStructureBuilder.obj
 0001:00007c00       ?recreate@?$Array@USlab@NodeAllocator@Gu@physx@@V?$ReflectionAllocator@USlab@NodeAllocator@Gu@physx@@@shdfnd@4@@shdfnd@physx@@IEAAXI@Z 0000000180008c00 f i BVHStructureBuilder.obj
 0001:00007cb0       ?reset@AABBTreeBuildParams@Gu@physx@@QEAAXXZ 0000000180008cb0 f i BVHStructureBuilder.obj
 0001:00007d10       ?reset@BuildStats@Gu@physx@@QEAAXXZ 0000000180008d10 f i BVHStructureBuilder.obj
 0001:00007d20       ?save@BVHStructureBuilder@physx@@QEBA_NAEAVPxOutputStream@2@_N@Z 0000000180008d20 f   BVHStructureBuilder.obj
 0001:00007ea0       ?setCount@BuildStats@Gu@physx@@QEAAXI@Z 0000000180008ea0 f i BVHStructureBuilder.obj
 0001:00007eb0       ?setNbRunTimePrimitives@AABBTreeBuildNode@Gu@physx@@QEAAXI@Z 0000000180008eb0 f i BVHStructureBuilder.obj
 0001:00007ec0       ?saveHeightField@physx@@YA_NAEBVHeightField@Gu@1@AEAVPxOutputStream@1@_N@Z 0000000180008ec0 f   HeightFieldCooking.obj
 0001:00008100       ??$quickSelectFirstK@UBoundsLTE@physx@@@quickSelect@physx@@YAXPEIAIIIIAEBUBoundsLTE@1@@Z 0000000180009100 f i RTreeCooking.obj
 0001:000082e0       ??$smallSort@I$$CBUSortBoundsPredicate@physx@@@internal@shdfnd@physx@@YAXPEAIHHAEBUSortBoundsPredicate@2@@Z 00000001800092e0 f i RTreeCooking.obj
 0001:00008580       ??$sort@IU?$Less@I@shdfnd@physx@@V?$ReflectionAllocator@I@23@@shdfnd@physx@@YAXPEAIIAEBU?$Less@I@01@AEBV?$ReflectionAllocator@I@01@I@Z 0000000180009580 f i RTreeCooking.obj
 0001:00008a00       ??$sort@IUSortBoundsPredicate@physx@@V?$ReflectionAllocator@I@shdfnd@2@@shdfnd@physx@@YAXPEAIIAEBUSortBoundsPredicate@1@AEBV?$ReflectionAllocator@I@01@I@Z 0000000180009a00 f i RTreeCooking.obj
 0001:00008ef0       ??1?$Array@IV?$ReflectionAllocator@I@shdfnd@physx@@@shdfnd@physx@@QEAA@XZ 0000000180009ef0 f i RTreeCooking.obj
 0001:00008ef0       ??1?$Array@VPxVec3@physx@@V?$ReflectionAllocator@VPxVec3@physx@@@shdfnd@2@@shdfnd@physx@@QEAA@XZ 0000000180009ef0 f i RTreeCooking.obj
 0001:00008ef0       ??1?$Array@VPxPlane@physx@@V?$ReflectionAllocator@VPxPlane@physx@@@shdfnd@2@@shdfnd@physx@@QEAA@XZ 0000000180009ef0 f i ConvexHullUtils.obj
 0001:00008ef0       ??1?$Array@URTreeNodeQ@Gu@physx@@V?$ReflectionAllocator@URTreeNodeQ@Gu@physx@@@shdfnd@3@@shdfnd@physx@@QEAA@XZ 0000000180009ef0 f i RTreeCooking.obj
 0001:00008ef0       ??1?$Array@VHalfEdge@ConvexHull@physx@@V?$ReflectionAllocator@VHalfEdge@ConvexHull@physx@@@shdfnd@3@@shdfnd@physx@@QEAA@XZ 0000000180009ef0 f i ConvexHullUtils.obj
 0001:00008ef0       ??1?$Array@UExpandPoint@local@@V?$ReflectionAllocator@UExpandPoint@local@@@shdfnd@physx@@@shdfnd@physx@@QEAA@XZ 0000000180009ef0 f i QuickHullConvexHullLib.obj
 0001:00008ef0       ??1?$Array@PEAUQuickHullFace@local@@V?$ReflectionAllocator@PEAUQuickHullFace@local@@@shdfnd@physx@@@shdfnd@physx@@QEAA@XZ 0000000180009ef0 f i QuickHullConvexHullLib.obj
 0001:00008ef0       ??1?$Array@URTreeNodeNQ@physx@@V?$ReflectionAllocator@URTreeNodeNQ@physx@@@shdfnd@2@@shdfnd@physx@@QEAA@XZ 0000000180009ef0 f i RTreeCooking.obj
 0001:00008ef0       ??1?$Array@UPxBounds3V@physx@@V?$ReflectionAllocator@UPxBounds3V@physx@@@shdfnd@2@@shdfnd@physx@@QEAA@XZ 0000000180009ef0 f i RTreeCooking.obj
 0001:00008ef0       ??1?$Array@VPair@@V?$ReflectionAllocator@VPair@@@shdfnd@physx@@@shdfnd@physx@@QEAA@XZ 0000000180009ef0 f i ConvexPolygonsBuilder.obj
 0001:00008f30       ??1?$Array@UInterval@physx@@V?$InlineAllocator@$0CAAA@V?$ReflectionAllocator@UInterval@physx@@@shdfnd@physx@@@shdfnd@2@@shdfnd@physx@@QEAA@XZ 0000000180009f30 f i RTreeCooking.obj
 0001:00008f80       ??1?$InlineArray@UInterval@physx@@$0EAA@V?$ReflectionAllocator@UInterval@physx@@@shdfnd@2@@shdfnd@physx@@QEAA@XZ 0000000180009f80 f i RTreeCooking.obj
 0001:00008fd0       ??1?$ScopedPointer@HVTempAllocator@shdfnd@physx@@@shdfnd@physx@@QEAA@XZ 0000000180009fd0 f i RTreeCooking.obj
 0001:00008fd0       ??1?$ScopedPointer@VPxVec3@physx@@VTempAllocator@shdfnd@2@@shdfnd@physx@@QEAA@XZ 0000000180009fd0 f i QuickHullConvexHullLib.obj
 0001:00008fd0       ??1?$ScopedPointer@UQuickHullHalfEdge@local@@VTempAllocator@shdfnd@physx@@@shdfnd@physx@@QEAA@XZ 0000000180009fd0 f i QuickHullConvexHullLib.obj
 0001:00008ff0       ??1?$Stack@V?$ReflectionAllocator@UEdgeTriLookup@physx@@@shdfnd@physx@@@internal@shdfnd@physx@@QEAA@XZ 0000000180009ff0 f i TriangleMeshBuilder.obj
 0001:00008ff0       ??1?$Stack@V?$ReflectionAllocator@I@shdfnd@physx@@@internal@shdfnd@physx@@QEAA@XZ 0000000180009ff0 f i RTreeCooking.obj
 0001:00009020       ??1SubSortQuick@physx@@QEAA@XZ 000000018000a020 f i RTreeCooking.obj
 0001:00009060       ??1SubSortSAH@physx@@QEAA@XZ 000000018000a060 f i RTreeCooking.obj
 0001:00009100       ?allocate@?$Array@UInterval@physx@@V?$InlineAllocator@$0CAAA@V?$ReflectionAllocator@UInterval@physx@@@shdfnd@physx@@@shdfnd@2@@shdfnd@physx@@IEAAPEAUInterval@3@I@Z 000000018000a100 f i RTreeCooking.obj
 0001:000091c0       ?allocate@?$Array@UPxBounds3V@physx@@V?$ReflectionAllocator@UPxBounds3V@physx@@@shdfnd@2@@shdfnd@physx@@IEAAPEAUPxBounds3V@3@I@Z 000000018000a1c0 f i RTreeCooking.obj
 0001:00009260       ?allocate@?$Array@URTreeNodeNQ@physx@@V?$ReflectionAllocator@URTreeNodeNQ@physx@@@shdfnd@2@@shdfnd@physx@@IEAAPEAURTreeNodeNQ@3@I@Z 000000018000a260 f i RTreeCooking.obj
 0001:00009300       ?allocate@?$Array@URTreeNodeQ@Gu@physx@@V?$ReflectionAllocator@URTreeNodeQ@Gu@physx@@@shdfnd@3@@shdfnd@physx@@IEAAPEAURTreeNodeQ@Gu@3@I@Z 000000018000a300 f i RTreeCooking.obj
 0001:000093a0       ?allocate@?$Array@VPxVec3@physx@@V?$ReflectionAllocator@VPxVec3@physx@@@shdfnd@2@@shdfnd@physx@@IEAAPEAVPxVec3@3@I@Z 000000018000a3a0 f i RTreeCooking.obj
 0001:00009440       ?allocate@?$ReflectionAllocator@I@shdfnd@physx@@QEAAPEAX_KPEBDH@Z 000000018000a440 f i RTreeCooking.obj
 0001:0000a150       ?buildFromTriangles@RTreeCooker@physx@@SAXAEAURTree@Gu@2@PEBVPxVec3@2@IPEBGPEBIIAEAV?$Array@IV?$ReflectionAllocator@I@shdfnd@physx@@@shdfnd@2@PEAURemapCallback@12@MW4Enum@PxMeshCookingHint@2@@Z 000000018000b150 f   RTreeCooking.obj
 0001:0000a3d0       ?copy@?$Array@URTreeNodeNQ@physx@@V?$ReflectionAllocator@URTreeNodeNQ@physx@@@shdfnd@2@@shdfnd@physx@@KAXPEAURTreeNodeNQ@3@0PEBU43@@Z 000000018000b3d0 f i RTreeCooking.obj
 0001:0000a590       ?copy@?$Array@VPxVec3@physx@@V?$ReflectionAllocator@VPxVec3@physx@@@shdfnd@2@@shdfnd@physx@@KAXPEAVPxVec3@3@0PEBV43@@Z 000000018000b590 f i RTreeCooking.obj
 0001:0000a660       ?growAndPushBack@?$Array@IV?$ReflectionAllocator@I@shdfnd@physx@@@shdfnd@physx@@IEAAAEAIAEBI@Z 000000018000b660 f i RTreeCooking.obj
 0001:0000a730       ?growAndPushBack@?$Array@UInterval@physx@@V?$InlineAllocator@$0CAAA@V?$ReflectionAllocator@UInterval@physx@@@shdfnd@physx@@@shdfnd@2@@shdfnd@physx@@IEAAAEAUInterval@3@AEBU43@@Z 000000018000b730 f i RTreeCooking.obj
 0001:0000a810       ?growAndPushBack@?$Array@UPxBounds3V@physx@@V?$ReflectionAllocator@UPxBounds3V@physx@@@shdfnd@2@@shdfnd@physx@@IEAAAEAUPxBounds3V@3@AEBU43@@Z 000000018000b810 f i RTreeCooking.obj
 0001:0000a8e0       ?growAndPushBack@?$Array@URTreeNodeNQ@physx@@V?$ReflectionAllocator@URTreeNodeNQ@physx@@@shdfnd@2@@shdfnd@physx@@IEAAAEAURTreeNodeNQ@3@AEBU43@@Z 000000018000b8e0 f i RTreeCooking.obj
 0001:0000a9b0       ?growAndPushBack@?$Array@URTreeNodeQ@Gu@physx@@V?$ReflectionAllocator@URTreeNodeQ@Gu@physx@@@shdfnd@3@@shdfnd@physx@@IEAAAEAURTreeNodeQ@Gu@3@AEBU453@@Z 000000018000b9b0 f i RTreeCooking.obj
 0001:0000aa90       ?recreate@?$Array@IV?$ReflectionAllocator@I@shdfnd@physx@@@shdfnd@physx@@IEAAXI@Z 000000018000ba90 f i RTreeCooking.obj
 0001:0000ab50       ?recreate@?$Array@UPxBounds3V@physx@@V?$ReflectionAllocator@UPxBounds3V@physx@@@shdfnd@2@@shdfnd@physx@@IEAAXI@Z 000000018000bb50 f i RTreeCooking.obj
 0001:0000ac00       ?recreate@?$Array@URTreeNodeNQ@physx@@V?$ReflectionAllocator@URTreeNodeNQ@physx@@@shdfnd@2@@shdfnd@physx@@IEAAXI@Z 000000018000bc00 f i RTreeCooking.obj
 0001:0000ac90       ?recreate@?$Array@URTreeNodeQ@Gu@physx@@V?$ReflectionAllocator@URTreeNodeQ@Gu@physx@@@shdfnd@3@@shdfnd@physx@@IEAAXI@Z 000000018000bc90 f i RTreeCooking.obj
 0001:0000ad50       ?recreate@?$Array@VPxVec3@physx@@V?$ReflectionAllocator@VPxVec3@physx@@@shdfnd@2@@shdfnd@physx@@IEAAXI@Z 000000018000bd50 f i RTreeCooking.obj
 0001:0000ade0       ?resize@?$Array@IV?$ReflectionAllocator@I@shdfnd@physx@@@shdfnd@physx@@QEAAXIAEBI@Z 000000018000bde0 f i RTreeCooking.obj
 0001:0000aea0       ?resizeUninitialized@?$Array@URTreeNodeNQ@physx@@V?$ReflectionAllocator@URTreeNodeNQ@physx@@@shdfnd@2@@shdfnd@physx@@QEAAXI@Z 000000018000bea0 f i RTreeCooking.obj
 0001:0000aee0       ?sort4@SubSortQuick@physx@@QEAAXPEIAIIAEAV?$Array@URTreeNodeNQ@physx@@V?$ReflectionAllocator@URTreeNodeNQ@physx@@@shdfnd@2@@shdfnd@2@AEAIAEAUPxBounds3V@2@I@Z 000000018000bee0 f i RTreeCooking.obj
 0001:0000b2a0       ?sort4@SubSortSAH@physx@@QEAAXPEAIIAEAV?$Array@URTreeNodeNQ@physx@@V?$ReflectionAllocator@URTreeNodeNQ@physx@@@shdfnd@2@@shdfnd@2@AEAIIPEAURTreeNodeNQ@2@@Z 000000018000c2a0 f i RTreeCooking.obj
 0001:0000bb70       ?split@SubSortSAH@physx@@QEAAIPEAII@Z 000000018000cb70 f i RTreeCooking.obj
 0001:0000c570       ?computeLocalBounds@MeshBulider@physx@@IEAAXAEAVMeshDataBase@Gu@2@@Z 000000018000d570 f   MeshBuilder.obj
 0001:0000c600       ??$?_UG@@YAPEAX_KV?$ReflectionAllocator@G@shdfnd@physx@@PEBDH@Z 000000018000d600 f i TriangleMeshBuilder.obj
 0001:0000c6a0       ??$sort@UEdgeTriLookup@physx@@U?$Less@UEdgeTriLookup@physx@@@shdfnd@2@V?$ReflectionAllocator@UEdgeTriLookup@physx@@@42@@shdfnd@physx@@YAXPEAUEdgeTriLookup@1@IAEBU?$Less@UEdgeTriLookup@physx@@@01@AEBV?$ReflectionAllocator@UEdgeTriLookup@physx@@@01@I@Z 000000018000d6a0 f i TriangleMeshBuilder.obj
 0001:0000cc40       ??0BV4TriangleMeshBuilder@physx@@QEAA@AEBUPxCookingParams@1@@Z 000000018000dc40 f   TriangleMeshBuilder.obj
 0001:0000cd10       ??0RTreeTriangleMeshBuilder@physx@@QEAA@AEBUPxCookingParams@1@@Z 000000018000dd10 f   TriangleMeshBuilder.obj
 0001:0000cdd0       ??1BV4TriangleMeshBuilder@physx@@UEAA@XZ 000000018000ddd0 f   TriangleMeshBuilder.obj
 0001:0000ce30       ??1MeshDataBase@Gu@physx@@UEAA@XZ 000000018000de30 f i TriangleMeshBuilder.obj
 0001:0000cf10       ??1RTreeCookerRemap@physx@@UEAA@XZ 000000018000df10 f i TriangleMeshBuilder.obj
 0001:0000cf20       ??1RTreeTriangleData@Gu@physx@@UEAA@XZ 000000018000df20 f i TriangleMeshBuilder.obj
 0001:0000cf90       ??1RTreeTriangleMeshBuilder@physx@@UEAA@XZ 000000018000df90 f   TriangleMeshBuilder.obj
 0001:0000cfc0       ??1TriangleMeshBuilder@physx@@UEAA@XZ 000000018000dfc0 f   TriangleMeshBuilder.obj
 0001:0000d030       ??1TriangleMeshData@Gu@physx@@UEAA@XZ 000000018000e030 f i TriangleMeshBuilder.obj
 0001:0000d100       ??_EBV4TriangleData@Gu@physx@@UEAAPEAXI@Z 000000018000e100 f i TriangleMeshBuilder.obj
 0001:0000d100       ??_GBV4TriangleData@Gu@physx@@UEAAPEAXI@Z 000000018000e100 f i TriangleMeshBuilder.obj
 0001:0000d190       ??_GBV4TriangleMeshBuilder@physx@@UEAAPEAXI@Z 000000018000e190 f i TriangleMeshBuilder.obj
 0001:0000d190       ??_EBV4TriangleMeshBuilder@physx@@UEAAPEAXI@Z 000000018000e190 f i TriangleMeshBuilder.obj
 0001:0000d210       ??_GMeshDataBase@Gu@physx@@UEAAPEAXI@Z 000000018000e210 f i TriangleMeshBuilder.obj
 0001:0000d210       ??_EMeshDataBase@Gu@physx@@UEAAPEAXI@Z 000000018000e210 f i TriangleMeshBuilder.obj
 0001:0000d280       ??_ERTreeCookerRemap@physx@@UEAAPEAXI@Z 000000018000e280 f i TriangleMeshBuilder.obj
 0001:0000d280       ??_GRTreeCookerRemap@physx@@UEAAPEAXI@Z 000000018000e280 f i TriangleMeshBuilder.obj
 0001:0000d2b0       ??_ERTreeTriangleData@Gu@physx@@UEAAPEAXI@Z 000000018000e2b0 f i TriangleMeshBuilder.obj
 0001:0000d2b0       ??_GRTreeTriangleData@Gu@physx@@UEAAPEAXI@Z 000000018000e2b0 f i TriangleMeshBuilder.obj
 0001:0000d320       ??_GRTreeTriangleMeshBuilder@physx@@UEAAPEAXI@Z 000000018000e320 f i TriangleMeshBuilder.obj
 0001:0000d320       ??_ERTreeTriangleMeshBuilder@physx@@UEAAPEAXI@Z 000000018000e320 f i TriangleMeshBuilder.obj
 0001:0000d370       ??_GRemapCallback@RTreeCooker@physx@@UEAAPEAXI@Z 000000018000e370 f i TriangleMeshBuilder.obj
 0001:0000d370       ??_ERemapCallback@RTreeCooker@physx@@UEAAPEAXI@Z 000000018000e370 f i TriangleMeshBuilder.obj
 0001:0000d3a0       ??_ETriangleMeshBuilder@physx@@UEAAPEAXI@Z 000000018000e3a0 f i TriangleMeshBuilder.obj
 0001:0000d3a0       ??_GTriangleMeshBuilder@physx@@UEAAPEAXI@Z 000000018000e3a0 f i TriangleMeshBuilder.obj
 0001:0000d3e0       ??_GTriangleMeshData@Gu@physx@@UEAAPEAXI@Z 000000018000e3e0 f i TriangleMeshBuilder.obj
 0001:0000d3e0       ??_ETriangleMeshData@Gu@physx@@UEAAPEAXI@Z 000000018000e3e0 f i TriangleMeshBuilder.obj
 0001:0000d450       ?allocateTriangles@TriangleMeshData@Gu@physx@@QEAAPEAXI_NI@Z 000000018000e450 f i TriangleMeshBuilder.obj
 0001:0000d530       ?allocateVertices@MeshDataBase@Gu@physx@@QEAAPEAVPxVec3@3@I@Z 000000018000e530 f i TriangleMeshBuilder.obj
 0001:0000da50       ?checkMeshIndicesSize@TriangleMeshBuilder@physx@@QEAAXXZ 000000018000ea50 f   TriangleMeshBuilder.obj
 0001:0000db60       ?cleanMesh@TriangleMeshBuilder@physx@@QEAA_N_NPEAW4Enum@PxTriangleMeshCookingResult@2@@Z 000000018000eb60 f   TriangleMeshBuilder.obj
 0001:0000e050       ?createGRBMidPhaseAndData@TriangleMeshBuilder@physx@@QEAAXI@Z 000000018000f050 f   TriangleMeshBuilder.obj
 0001:0000e2c0       ?createMidPhaseStructure@BV32TriangleMeshBuilder@physx@@SAXAEBUPxCookingParams@2@AEAVTriangleMeshData@Gu@2@AEAVBV32Tree@52@@Z 000000018000f2c0 f   TriangleMeshBuilder.obj
 0001:0000e490       ?createMidPhaseStructure@BV4TriangleMeshBuilder@physx@@UEAAXXZ 000000018000f490 f   TriangleMeshBuilder.obj
 0001:0000e750       ?createMidPhaseStructure@RTreeTriangleMeshBuilder@physx@@UEAAXXZ 000000018000f750 f   TriangleMeshBuilder.obj
 0001:0000e830       ?createSharedEdgeData@TriangleMeshBuilder@physx@@QEAAX_N0@Z 000000018000f830 f   TriangleMeshBuilder.obj
 0001:0000eed0       ?getMidphaseID@BV4TriangleMeshBuilder@physx@@UEBA?AW4Enum@PxMeshMidPhase@2@XZ 000000018000fed0 f i TriangleMeshBuilder.obj
 0001:0000eee0       ?getMidphaseID@RTreeTriangleMeshBuilder@physx@@UEBA?AW4Enum@PxMeshMidPhase@2@XZ 000000018000fee0 f i TriangleMeshBuilder.obj
 0001:0000eef0       ?importMesh@TriangleMeshBuilder@physx@@IEAA_NAEBVPxTriangleMeshDesc@2@AEBUPxCookingParams@2@PEAW4Enum@PxTriangleMeshCookingResult@2@_N@Z 000000018000fef0 f   TriangleMeshBuilder.obj
 0001:0000f270       ?loadFromDesc@TriangleMeshBuilder@physx@@QEAA_NAEBVPxTriangleMeshDesc@2@PEAW4Enum@PxTriangleMeshCookingResult@2@_N@Z 0000000180010270 f   TriangleMeshBuilder.obj
 0001:0000f6f0       ?onMeshIndexFormatChange@BV4TriangleMeshBuilder@physx@@UEAAXXZ 00000001800106f0 f   TriangleMeshBuilder.obj
 0001:0000f730       ?remap@RTreeCookerRemap@physx@@UEAAXPEAIII@Z 0000000180010730 f i TriangleMeshBuilder.obj
 0001:0000f750       ?remapTopology@TriangleMeshBuilder@physx@@QEAAXPEBI@Z 0000000180010750 f   TriangleMeshBuilder.obj
 0001:0000fa40       ?save@TriangleMeshBuilder@physx@@QEBA_NAEAVPxOutputStream@2@_NAEBUPxCookingParams@2@@Z 0000000180010a40 f   TriangleMeshBuilder.obj
 0001:00010010       ?saveMidPhaseStructure@BV4TriangleMeshBuilder@physx@@UEBAXAEAVPxOutputStream@2@_N@Z 0000000180011010 f   TriangleMeshBuilder.obj
 0001:000101b0       ?saveMidPhaseStructure@RTreeTriangleMeshBuilder@physx@@UEBAXAEAVPxOutputStream@2@_N@Z 00000001800111b0 f   TriangleMeshBuilder.obj
 0001:000103f0       ??0BigConvexDataBuilder@physx@@QEAA@PEBUConvexHullData@Gu@1@PEAVBigConvexData@1@PEBVPxVec3@1@@Z 00000001800113f0 f   BigConvexDataBuilder.obj
 0001:00010400       ??4BigConvexData@physx@@QEAAAEAV01@AEBV01@@Z 0000000180011400 f i BigConvexDataBuilder.obj
 0001:00010420       ?GetAdjacentVerts@BigConvexData@physx@@QEBAPEBEXZ 0000000180011420 f i BigConvexDataBuilder.obj
 0001:00010430       ?GetNbNeighbors@BigConvexData@physx@@QEBAGI@Z 0000000180011430 f i BigConvexDataBuilder.obj
 0001:00010430       ?GetValency@BigConvexData@physx@@QEBAGI@Z 0000000180011430 f i BigConvexDataBuilder.obj
 0001:00010440       ?GetNbSamples@BigConvexData@physx@@QEBAIXZ 0000000180011440 f i BigConvexDataBuilder.obj
 0001:00010450       ?GetNbVerts@BigConvexData@physx@@QEBAIXZ 0000000180011450 f i BigConvexDataBuilder.obj
 0001:00010460       ?GetNeighbors@BigConvexData@physx@@QEBAPEBEI@Z 0000000180011460 f i BigConvexDataBuilder.obj
 0001:00010470       ?GetOffset@BigConvexData@physx@@QEBAGI@Z 0000000180011470 f i BigConvexDataBuilder.obj
 0001:00010480       ?GetSubdiv@BigConvexData@physx@@QEBAIXZ 0000000180011480 f i BigConvexDataBuilder.obj
 0001:00010490       ?computeValencies@BigConvexDataBuilder@physx@@QEAA_NAEBVConvexHullBuilder@2@@Z 0000000180011490 f   BigConvexDataBuilder.obj
 0001:00010870       ?precompute@BigConvexDataBuilder@physx@@QEAA_NI@Z 0000000180011870 f   BigConvexDataBuilder.obj
 0001:00011450       ?save@BigConvexDataBuilder@physx@@QEBA_NAEAVPxOutputStream@2@_N@Z 0000000180012450 f   BigConvexDataBuilder.obj
 0001:00011530       ?saveValencies@BigConvexDataBuilder@physx@@QEBA_NAEAVPxOutputStream@2@_N@Z 0000000180012530 f   BigConvexDataBuilder.obj
 0001:000116d0       ??$?_UE@@YAPEAX_KV?$ReflectionAllocator@E@shdfnd@physx@@PEBDH@Z 00000001800126d0 f i ConvexHullBuilder.obj
 0001:00011770       ??0ConvexHullBuilder@physx@@QEAA@PEAUConvexHullData@Gu@1@_N@Z 0000000180012770 f   ConvexHullBuilder.obj
 0001:000117a0       ??1ConvexHullBuilder@physx@@QEAA@XZ 00000001800127a0 f   ConvexHullBuilder.obj
 0001:000118a0       ?calculateVertexMapTable@ConvexHullBuilder@physx@@QEAA_NI_N@Z 00000001800128a0 f   ConvexHullBuilder.obj
 0001:00011ad0       ?checkHullPolygons@ConvexHullBuilder@physx@@QEBA_NXZ 0000000180012ad0 f   ConvexHullBuilder.obj
 0001:00012110       ?computeGeomCenter@ConvexHullBuilder@physx@@IEBA_NAEAVPxVec3@2@IPEAUHullTriangleData@2@@Z 0000000180013110 f   ConvexHullBuilder.obj
 0001:000123c0       ?copy@ConvexHullBuilder@physx@@QEAA_NAEAUConvexHullData@Gu@2@AEAI@Z 00000001800133c0 f   ConvexHullBuilder.obj
 0001:00012630       ?createEdgeList@ConvexHullBuilder@physx@@QEAA_N_NI@Z 0000000180013630 f   ConvexHullBuilder.obj
 0001:00012e30       ?init@ConvexHullBuilder@physx@@QEAA_NIPEBVPxVec3@2@PEBIIIPEBUPxHullPolygon@2@_NPEAVConvexHullLib@2@@Z 0000000180013e30 f   ConvexHullBuilder.obj
 0001:000131f0       ?save@ConvexHullBuilder@physx@@QEBA_NAEAVPxOutputStream@2@_N@Z 00000001800141f0 f   ConvexHullBuilder.obj
 0001:00013510       ??1ConvexHullLib@physx@@UEAA@XZ 0000000180014510 f   ConvexHullLib.obj
 0001:00013570       ??_EConvexHullLib@physx@@UEAAPEAXI@Z 0000000180014570 f i ConvexHullLib.obj
 0001:00013570       ??_GConvexHullLib@physx@@UEAAPEAXI@Z 0000000180014570 f i ConvexHullLib.obj
 0001:00013ad0       ?cleanupVertices@ConvexHullLib@physx@@IEAA_NIPEBVPxVec3@2@IAEAIPEAV32@AEAV32@3@Z 0000000180014ad0 f   ConvexHullLib.obj
 0001:00013f60       ?shiftAndcleanupVertices@ConvexHullLib@physx@@IEAA_NIPEBVPxVec3@2@IAEAIPEAV32@AEAV32@3@Z 0000000180014f60 f   ConvexHullLib.obj
 0001:00014430       ?shiftConvexMeshDesc@ConvexHullLib@physx@@IEAAXAEAVPxConvexMeshDesc@2@@Z 0000000180015430 f   ConvexHullLib.obj
 0001:000144f0       ?swapLargestFace@ConvexHullLib@physx@@IEAAXAEAVPxConvexMeshDesc@2@@Z 00000001800154f0 f   ConvexHullLib.obj
 0001:000146e0       ??0Box@Gu@physx@@QEAA@AEBV012@@Z 00000001800156e0 f i ConvexHullUtils.obj
 0001:000146e0       ??4Box@Gu@physx@@QEAAAEBV012@AEBV012@@Z 00000001800156e0 f i ConvexHullUtils.obj
 0001:00014740       ??0Box@Gu@physx@@QEAA@AEBVPxVec3@2@0AEBVPxMat33@2@@Z 0000000180015740 f i ConvexHullUtils.obj
 0001:000147b0       ??0ConvexHull@physx@@QEAA@AEBVPxVec3@1@AEBVPxTransform@1@AEBV?$Array@VPxPlane@physx@@V?$ReflectionAllocator@VPxPlane@physx@@@shdfnd@2@@shdfnd@1@@Z 00000001800157b0 f   ConvexHullUtils.obj
 0001:00015980       ??0PxQuat@physx@@QEAA@AEBVPxMat33@1@@Z 0000000180016980 f i ConvexHullUtils.obj
 0001:00015b80       ?allocate@?$Array@VHalfEdge@ConvexHull@physx@@V?$ReflectionAllocator@VHalfEdge@ConvexHull@physx@@@shdfnd@3@@shdfnd@physx@@IEAAPEAVHalfEdge@ConvexHull@3@I@Z 0000000180016b80 f i ConvexHullUtils.obj
 0001:00015c20       ?allocate@?$Array@VPxPlane@physx@@V?$ReflectionAllocator@VPxPlane@physx@@@shdfnd@2@@shdfnd@physx@@IEAAPEAVPxPlane@3@I@Z 0000000180016c20 f i ConvexHullUtils.obj
 0001:00015cc0       ?assertIntact@ConvexHull@physx@@QEBA_NM@Z 0000000180016cc0 f   ConvexHullUtils.obj
 0001:00015fd0       ?computeAABBExtent@Box@Gu@physx@@QEBA?AVPxVec3@3@XZ 0000000180016fd0 f i ConvexHullUtils.obj
 0001:00016090       ?computeBoxPoints@Box@Gu@physx@@QEBAXPEIAVPxVec3@3@@Z 0000000180017090 f i ConvexHullUtils.obj
 0001:000160d0       ?computeOBBFromConvex@physx@@YA_NAEBVPxConvexMeshDesc@1@AEAVPxVec3@1@AEAVPxTransform@1@@Z 00000001800170d0 f   ConvexHullUtils.obj
 0001:000167b0       ?computeOBBSIMD@local@@YAXIPEBT__m128@@AEAT2@AEBT2@1@Z 00000001800177b0 f   ConvexHullUtils.obj
 0001:00016bc0       ?convexHullCrop@physx@@YAPEAVConvexHull@1@AEBV21@AEBVPxPlane@1@M@Z 0000000180017bc0 f   ConvexHullUtils.obj
 0001:000179a0       ?copy@?$Array@VPxPlane@physx@@V?$ReflectionAllocator@VPxPlane@physx@@@shdfnd@2@@shdfnd@physx@@KAXPEAVPxPlane@3@0PEBV43@@Z 00000001800189a0 f i ConvexHullUtils.obj
 0001:00017aa0       ?findCandidatePlane@ConvexHull@physx@@QEBAHMM@Z 0000000180018aa0 f   ConvexHullUtils.obj
 0001:00017ef0       ?getInverse@PxMat33@physx@@QEBA?BV12@XZ 0000000180018ef0 f i ConvexHullUtils.obj
 0001:00018140       ?getTransform@Box@Gu@physx@@QEBA?AVPxTransform@3@XZ 0000000180019140 f i ConvexHullUtils.obj
 0001:000181a0       ?growAndPushBack@?$Array@VHalfEdge@ConvexHull@physx@@V?$ReflectionAllocator@VHalfEdge@ConvexHull@physx@@@shdfnd@3@@shdfnd@physx@@IEAAAEAVHalfEdge@ConvexHull@3@AEBV453@@Z 00000001800191a0 f i ConvexHullUtils.obj
 0001:00018260       ?growAndPushBack@?$Array@VPxPlane@physx@@V?$ReflectionAllocator@VPxPlane@physx@@@shdfnd@2@@shdfnd@physx@@IEAAAEAVPxPlane@3@AEBV43@@Z 0000000180019260 f i ConvexHullUtils.obj
 0001:00018320       ?isValid@Box@Gu@physx@@QEBA_NXZ 0000000180019320 f i ConvexHullUtils.obj
 0001:00018340       ?maxNumVertsPerFace@ConvexHull@physx@@QEBAIXZ 0000000180019340 f   ConvexHullUtils.obj
 0001:000183b0       ?recreate@?$Array@VHalfEdge@ConvexHull@physx@@V?$ReflectionAllocator@VHalfEdge@ConvexHull@physx@@@shdfnd@3@@shdfnd@physx@@IEAAXI@Z 00000001800193b0 f i ConvexHullUtils.obj
 0001:00018450       ?recreate@?$Array@VPxPlane@physx@@V?$ReflectionAllocator@VPxPlane@physx@@@shdfnd@2@@shdfnd@physx@@IEAAXI@Z 0000000180019450 f i ConvexHullUtils.obj
 0001:000184e0       ?resize@?$Array@VHalfEdge@ConvexHull@physx@@V?$ReflectionAllocator@VHalfEdge@ConvexHull@physx@@@shdfnd@3@@shdfnd@physx@@QEAAXIAEBVHalfEdge@ConvexHull@3@@Z 00000001800194e0 f i ConvexHullUtils.obj
 0001:000185a0       ?resize@?$Array@VPxPlane@physx@@V?$ReflectionAllocator@VPxPlane@physx@@@shdfnd@2@@shdfnd@physx@@QEAAXIAEBVPxPlane@3@@Z 00000001800195a0 f i ConvexHullUtils.obj
 0001:000186c0       ?resize@?$Array@VPxVec3@physx@@V?$ReflectionAllocator@VPxVec3@physx@@@shdfnd@2@@shdfnd@physx@@QEAAXIAEBVPxVec3@3@@Z 00000001800196c0 f i ConvexHullUtils.obj
 0001:000187b0       ?rotate@Box@Gu@physx@@QEBA?AVPxVec3@3@AEBV43@@Z 00000001800197b0 f i ConvexHullUtils.obj
 0001:00018840       ?rotateInv@Box@Gu@physx@@QEBA?AVPxVec3@3@AEBV43@@Z 0000000180019840 f i ConvexHullUtils.obj
 0001:000188d0       ?setAxes@Box@Gu@physx@@QEAAXAEBVPxVec3@3@00@Z 00000001800198d0 f i ConvexHullUtils.obj
 0001:00018910       ?setEmpty@Box@Gu@physx@@QEAAXXZ 0000000180019910 f i ConvexHullUtils.obj
 0001:00018950       ?transform@Box@Gu@physx@@QEBA?AVPxVec3@3@AEBV43@@Z 0000000180019950 f i ConvexHullUtils.obj
 0001:000189f0       ??0ConvexMeshBuilder@physx@@QEAA@_N@Z 00000001800199f0 f   ConvexMeshBuilder.obj
 0001:00018a50       ??1ConvexMeshBuilder@physx@@QEAA@XZ 0000000180019a50 f   ConvexMeshBuilder.obj
 0001:00018eb0       ?build@ConvexMeshBuilder@physx@@QEAA_NAEBVPxConvexMeshDesc@2@I_NPEAVConvexHullLib@2@@Z 0000000180019eb0 f   ConvexMeshBuilder.obj
 0001:000191e0       ?computeHullPolygons@ConvexMeshBuilder@physx@@QEAA_NAEBIPEBVPxVec3@2@0PEBIAEAVPxAllocatorCallback@2@AEAIAEAPEAV32@4AEAPEAI4AEAPEAUPxHullPolygon@2@@Z 000000018001a1e0 f   ConvexMeshBuilder.obj
 0001:00019400       ?computeMassInfo@ConvexMeshBuilder@physx@@QEAAX_N@Z 000000018001a400 f   ConvexMeshBuilder.obj
 0001:000197f0       ?copy@ConvexMeshBuilder@physx@@QEAA_NAEAUConvexHullInitData@Gu@2@@Z 000000018001a7f0 f   ConvexMeshBuilder.obj
 0001:00019910       ?isFinite@PxVec3@physx@@QEBA_NXZ 000000018001a910 f i ConvexMeshBuilder.obj
 0001:00019970       ?loadConvexHull@ConvexMeshBuilder@physx@@QEAA_NAEBVPxConvexMeshDesc@2@PEAVConvexHullLib@2@@Z 000000018001a970 f   ConvexMeshBuilder.obj
 0001:00019c00       ?save@ConvexMeshBuilder@physx@@QEBA_NAEAVPxOutputStream@2@_N@Z 000000018001ac00 f   ConvexMeshBuilder.obj
 0001:00019e10       ??$copy@V?$ReflectionAllocator@VPair@@@shdfnd@physx@@@?$Array@VPair@@V?$ReflectionAllocator@VPair@@@shdfnd@physx@@@shdfnd@physx@@IEAAXAEBV012@@Z 000000018001ae10 f i ConvexPolygonsBuilder.obj
 0001:00019e90       ??0ConvexPolygonsBuilder@physx@@QEAA@PEAUConvexHullData@Gu@1@_N@Z 000000018001ae90 f   ConvexPolygonsBuilder.obj
 0001:00019eb0       ??1ConvexPolygonsBuilder@physx@@QEAA@XZ 000000018001aeb0 f   ConvexPolygonsBuilder.obj
 0001:0001a710       ?allocate@?$Array@VPair@@V?$ReflectionAllocator@VPair@@@shdfnd@physx@@@shdfnd@physx@@IEAAPEAVPair@@I@Z 000000018001b710 f i ConvexPolygonsBuilder.obj
 0001:0001af60       ?computeHullPolygons@ConvexPolygonsBuilder@physx@@QEAA_NAEBIPEBVPxVec3@2@0PEBI@Z 000000018001bf60 f   ConvexPolygonsBuilder.obj
 0001:0001c020       ?createPolygonData@ConvexPolygonsBuilder@physx@@AEAA_NXZ 000000018001d020 f   ConvexPolygonsBuilder.obj
 0001:0001cba0       ?createTrianglesFromPolygons@ConvexPolygonsBuilder@physx@@AEAA_NXZ 000000018001dba0 f   ConvexPolygonsBuilder.obj
 0001:0001e220       ?growAndPushBack@?$Array@VPair@@V?$ReflectionAllocator@VPair@@@shdfnd@physx@@@shdfnd@physx@@IEAAAEAVPair@@AEBV4@@Z 000000018001f220 f i ConvexPolygonsBuilder.obj
 0001:0001e2f0       ??0QuickHull@local@@QEAA@AEBUPxCookingParams@physx@@AEBVPxConvexMeshDesc@3@@Z 000000018001f2f0 f   QuickHullConvexHullLib.obj
 0001:0001e3a0       ??0QuickHullConvexHullLib@physx@@QEAA@AEBVPxConvexMeshDesc@1@AEBUPxCookingParams@1@@Z 000000018001f3a0 f   QuickHullConvexHullLib.obj
 0001:0001e480       ??1?$MemBlock@UQuickHullHalfEdge@local@@$0A@@local@@QEAA@XZ 000000018001f480 f i QuickHullConvexHullLib.obj
 0001:0001e480       ??1?$MemBlock@UQuickHullFace@local@@$00@local@@QEAA@XZ 000000018001f480 f i QuickHullConvexHullLib.obj
 0001:0001e510       ??1QuickHull@local@@QEAA@XZ 000000018001f510 f   QuickHullConvexHullLib.obj
 0001:0001e660       ??_GConvexHull@physx@@QEAAPEAXI@Z 000000018001f660 f i QuickHullConvexHullLib.obj
 0001:0001e750       ??_GQuickHullConvexHullLib@physx@@UEAAPEAXI@Z 000000018001f750 f i QuickHullConvexHullLib.obj
 0001:0001e750       ??_EQuickHullConvexHullLib@physx@@UEAAPEAXI@Z 000000018001f750 f i QuickHullConvexHullLib.obj
 0001:0001e850       ?addPointToHull@QuickHull@local@@IEAA_NPEBUQuickHullVertex@2@AEAUQuickHullFace@2@AEA_N@Z 000000018001f850 f   QuickHullConvexHullLib.obj
 0001:0001eb20       ?addSimplex@QuickHull@local@@IEAAXPEAUQuickHullVertex@2@_N@Z 000000018001fb20 f   QuickHullConvexHullLib.obj
 0001:0001f010       ?allocate@?$Array@PEAUQuickHullFace@local@@V?$ReflectionAllocator@PEAUQuickHullFace@local@@@shdfnd@physx@@@shdfnd@physx@@IEAAPEAPEAUQuickHullFace@local@@I@Z 0000000180020010 f i QuickHullConvexHullLib.obj
 0001:0001f0b0       ?allocate@?$Array@PEAUQuickHullHalfEdge@local@@V?$ReflectionAllocator@PEAUQuickHullHalfEdge@local@@@shdfnd@physx@@@shdfnd@physx@@IEAAPEAPEAUQuickHullHalfEdge@local@@I@Z 00000001800200b0 f i QuickHullConvexHullLib.obj
 0001:0001f150       ?allocate@?$Array@PEAUQuickHullVertex@local@@V?$ReflectionAllocator@PEAUQuickHullVertex@local@@@shdfnd@physx@@@shdfnd@physx@@IEAAPEAPEAUQuickHullVertex@local@@I@Z 0000000180020150 f i QuickHullConvexHullLib.obj
 0001:0001f1f0       ?allocate@?$Array@UExpandPoint@local@@V?$ReflectionAllocator@UExpandPoint@local@@@shdfnd@physx@@@shdfnd@physx@@IEAAPEAUExpandPoint@local@@I@Z 00000001800201f0 f i QuickHullConvexHullLib.obj
 0001:0001f290       ?buildHull@QuickHull@local@@QEAA?AW4Enum@QuickHullResult@2@XZ 0000000180020290 f   QuickHullConvexHullLib.obj
 0001:0001f4a0       ?calculateHorizon@QuickHull@local@@IEAAXAEBVPxVec3@physx@@PEAUQuickHullHalfEdge@2@AEAUQuickHullFace@2@AEAV?$Array@PEAUQuickHullHalfEdge@local@@V?$ReflectionAllocator@PEAUQuickHullHalfEdge@local@@@shdfnd@physx@@@shdfnd@4@AEAV?$Array@PEAUQuickHullFace@local@@V?$ReflectionAllocator@PEAUQuickHullFace@local@@@shdfnd@physx@@@84@@Z 00000001800204a0 f   QuickHullConvexHullLib.obj
 0001:0001f650       ?canMergeFaces@QuickHull@local@@IEAA_NAEBUQuickHullHalfEdge@2@@Z 0000000180020650 f   QuickHullConvexHullLib.obj
 0001:0001fec0       ?cleanupForSimplex@QuickHullConvexHullLib@physx@@IEAA_NPEAVPxVec3@2@IPEAUQuickHullVertex@local@@1AEAM2@Z 0000000180020ec0 f   QuickHullConvexHullLib.obj
 0001:00020a90       ?computeMinMaxVerts@QuickHull@local@@IEAAXXZ 0000000180021a90 f   QuickHullConvexHullLib.obj
 0001:00020e60       ?connectHalfEdges@QuickHullFace@local@@AEAAPEAU12@PEAUQuickHullHalfEdge@2@0@Z 0000000180021e60 f   QuickHullConvexHullLib.obj
 0001:000211d0       ?copy@?$Array@UExpandPoint@local@@V?$ReflectionAllocator@UExpandPoint@local@@@shdfnd@physx@@@shdfnd@physx@@KAXPEAUExpandPoint@local@@0PEBU45@@Z 00000001800221d0 f i QuickHullConvexHullLib.obj
 0001:00021280       ?createConvexHull@QuickHullConvexHullLib@physx@@UEAA?AW4Enum@PxConvexMeshCookingResult@2@XZ 0000000180022280 f   QuickHullConvexHullLib.obj
 0001:000216b0       ?createEdgeList@QuickHullConvexHullLib@physx@@UEAA_NIPEBEPEAPEAEPEAPEAG2@Z 00000001800226b0 f   QuickHullConvexHullLib.obj
 0001:00021900       ?createTriangle@QuickHull@local@@IEAAPEAUQuickHullFace@2@AEBUQuickHullVertex@2@00@Z 0000000180022900 f   QuickHullConvexHullLib.obj
 0001:00021ce0       ?doAdjacentMerge@QuickHull@local@@IEAA_NAEAUQuickHullFace@2@_NAEA_N@Z 0000000180022ce0 f   QuickHullConvexHullLib.obj
 0001:00022030       ?expandHull@QuickHullConvexHullLib@physx@@IEAA?AW4Enum@PxConvexMeshCookingResult@2@XZ 0000000180023030 f   QuickHullConvexHullLib.obj
 0001:00022db0       ?expandHullOBB@QuickHullConvexHullLib@physx@@IEAA?AW4Enum@PxConvexMeshCookingResult@2@XZ 0000000180023db0 f   QuickHullConvexHullLib.obj
 0001:000231d0       ?fillConvexMeshDesc@QuickHullConvexHullLib@physx@@UEAAXAEAVPxConvexMeshDesc@2@@Z 00000001800241d0 f   QuickHullConvexHullLib.obj
 0001:00023220       ?fillConvexMeshDescFromCroppedHull@QuickHullConvexHullLib@physx@@IEAAXAEAVPxConvexMeshDesc@2@@Z 0000000180024220 f   QuickHullConvexHullLib.obj
 0001:00023410       ?fillConvexMeshDescFromQuickHull@QuickHullConvexHullLib@physx@@IEAAXAEAVPxConvexMeshDesc@2@@Z 0000000180024410 f   QuickHullConvexHullLib.obj
 0001:00023780       ?findSimplex@QuickHull@local@@IEAA_NXZ 0000000180024780 f   QuickHullConvexHullLib.obj
 0001:00024410       ?getFreeItem@?$MemBlock@UQuickHullFace@local@@$00@local@@QEAAPEAUQuickHullFace@2@XZ 0000000180025410 f i QuickHullConvexHullLib.obj
 0001:00024540       ?getFreeItem@?$MemBlock@UQuickHullHalfEdge@local@@$0A@@local@@QEAAPEAUQuickHullHalfEdge@2@XZ 0000000180025540 f i QuickHullConvexHullLib.obj
 0001:00024610       ?growAndPushBack@?$Array@PEAUQuickHullFace@local@@V?$ReflectionAllocator@PEAUQuickHullFace@local@@@shdfnd@physx@@@shdfnd@physx@@IEAAAEAPEAUQuickHullFace@local@@AEBQEAU45@@Z 0000000180025610 f i QuickHullConvexHullLib.obj
 0001:000246d0       ?growAndPushBack@?$Array@PEAUQuickHullHalfEdge@local@@V?$ReflectionAllocator@PEAUQuickHullHalfEdge@local@@@shdfnd@physx@@@shdfnd@physx@@IEAAAEAPEAUQuickHullHalfEdge@local@@AEBQEAU45@@Z 00000001800256d0 f i QuickHullConvexHullLib.obj
 0001:00024790       ?growAndPushBack@?$Array@PEAUQuickHullVertex@local@@V?$ReflectionAllocator@PEAUQuickHullVertex@local@@@shdfnd@physx@@@shdfnd@physx@@IEAAAEAPEAUQuickHullVertex@local@@AEBQEAU45@@Z 0000000180025790 f i QuickHullConvexHullLib.obj
 0001:00024850       ?growAndPushBack@?$Array@UExpandPoint@local@@V?$ReflectionAllocator@UExpandPoint@local@@@shdfnd@physx@@@shdfnd@physx@@IEAAAEAUExpandPoint@local@@AEBU45@@Z 0000000180025850 f i QuickHullConvexHullLib.obj
 0001:00024950       ?init@?$MemBlock@UQuickHullFace@local@@$00@local@@QEAAXI@Z 0000000180025950 f i QuickHullConvexHullLib.obj
 0001:00024a40       ?init@?$MemBlock@UQuickHullHalfEdge@local@@$0A@@local@@QEAAXI@Z 0000000180025a40 f i QuickHullConvexHullLib.obj
 0001:00024ae0       ?mergeAdjacentFace@QuickHullFace@local@@QEAA_NPEAUQuickHullHalfEdge@2@AEAV?$Array@PEAUQuickHullFace@local@@V?$ReflectionAllocator@PEAUQuickHullFace@local@@@shdfnd@physx@@@shdfnd@physx@@@Z 0000000180025ae0 f   QuickHullConvexHullLib.obj
 0001:00024f30       ?nextPointToAdd@QuickHull@local@@IEAAPEAUQuickHullVertex@2@AEAPEAUQuickHullFace@2@@Z 0000000180025f30 f   QuickHullConvexHullLib.obj
 0001:000250b0       ?parseInputVertices@QuickHull@local@@QEAAXPEBVPxVec3@physx@@I@Z 00000001800260b0 f   QuickHullConvexHullLib.obj
 0001:00025230       ?postMergeHull@QuickHull@local@@IEAAXXZ 0000000180026230 f   QuickHullConvexHullLib.obj
 0001:00025480       ?preallocate@QuickHull@local@@QEAAXI@Z 0000000180026480 f   QuickHullConvexHullLib.obj
 0001:000255c0       ?recreate@?$Array@PEAUQuickHullFace@local@@V?$ReflectionAllocator@PEAUQuickHullFace@local@@@shdfnd@physx@@@shdfnd@physx@@IEAAXI@Z 00000001800265c0 f i QuickHullConvexHullLib.obj
 0001:00025660       ?recreate@?$Array@PEAUQuickHullHalfEdge@local@@V?$ReflectionAllocator@PEAUQuickHullHalfEdge@local@@@shdfnd@physx@@@shdfnd@physx@@IEAAXI@Z 0000000180026660 f i QuickHullConvexHullLib.obj
 0001:00025700       ?recreate@?$Array@PEAUQuickHullVertex@local@@V?$ReflectionAllocator@PEAUQuickHullVertex@local@@@shdfnd@physx@@@shdfnd@physx@@IEAAXI@Z 0000000180026700 f i QuickHullConvexHullLib.obj
 0001:000257a0       ?recreate@?$Array@UExpandPoint@local@@V?$ReflectionAllocator@UExpandPoint@local@@@shdfnd@physx@@@shdfnd@physx@@IEAAXI@Z 00000001800267a0 f i QuickHullConvexHullLib.obj
 0001:00025830       ?resolveUnclaimedPoints@QuickHull@local@@IEAAXAEBV?$Array@PEAUQuickHullFace@local@@V?$ReflectionAllocator@PEAUQuickHullFace@local@@@shdfnd@physx@@@shdfnd@physx@@@Z 0000000180026830 f   QuickHullConvexHullLib.obj
 0001:000264f0       ?computeVolumeIntegralsEberly@physx@@YA_NAEBVPxConvexMeshDesc@1@MAEAUPxIntegrals@1@AEBVPxVec3@1@@Z 00000001800274f0 f   VolumeIntegration.obj
 0001:00026530       ?computeVolumeIntegralsEberlySIMD@physx@@YA_NAEBVPxConvexMeshDesc@1@MAEAUPxIntegrals@1@AEBVPxVec3@1@@Z 0000000180027530 f   VolumeIntegration.obj
 0001:00026b80       ?cookingDelayHook@@YAP6A_JXZIPEAUDelayLoadInfo@@@Z 0000000180027b80 f   WindowsCookingDelayLoadHook.obj
 0001:00026c60       PxSetPhysXCookingDelayLoadHook 0000000180027c60 f   WindowsCookingDelayLoadHook.obj
 0001:00026c68       __imp_load_??0RadixSortBuffered@Cm@physx@@QEAA@XZ 0000000180027c68 f   PhysXCommon_64:PhysXCommon_64.dll
 0001:00026c74       ??0RadixSortBuffered@Cm@physx@@QEAA@XZ 0000000180027c74 f   PhysXCommon_64:PhysXCommon_64.dll
 0001:00026c7a       __tailMerge_physxcommon_64_dll 0000000180027c7a     PhysXCommon_64:PhysXCommon_64.dll
 0001:00026cf3       __imp_load_??1RadixSortBuffered@Cm@physx@@UEAA@XZ 0000000180027cf3 f   PhysXCommon_64:PhysXCommon_64.dll
 0001:00026cff       ??1RadixSortBuffered@Cm@physx@@UEAA@XZ 0000000180027cff f   PhysXCommon_64:PhysXCommon_64.dll
 0001:00026d05       __imp_load_?Sort@RadixSortBuffered@Cm@physx@@QEAAAEAV123@PEBIIW4RadixHint@23@@Z 0000000180027d05 f   PhysXCommon_64:PhysXCommon_64.dll
 0001:00026d11       ?Sort@RadixSortBuffered@Cm@physx@@QEAAAEAV123@PEBIIW4RadixHint@23@@Z 0000000180027d11 f   PhysXCommon_64:PhysXCommon_64.dll
 0001:00026d17       __imp_load_??0HeightField@Gu@physx@@QEAA@PEAVGuMeshFactory@2@@Z 0000000180027d17 f   PhysXCommon_64:PhysXCommon_64.dll
 0001:00026d23       ??0HeightField@Gu@physx@@QEAA@PEAVGuMeshFactory@2@@Z 0000000180027d23 f   PhysXCommon_64:PhysXCommon_64.dll
 0001:00026d29       __imp_load_?loadFromDesc@HeightField@Gu@physx@@QEAA_NAEBVPxHeightFieldDesc@3@@Z 0000000180027d29 f   PhysXCommon_64:PhysXCommon_64.dll
 0001:00026d35       ?loadFromDesc@HeightField@Gu@physx@@QEAA_NAEBVPxHeightFieldDesc@3@@Z 0000000180027d35 f   PhysXCommon_64:PhysXCommon_64.dll
 0001:00026d3b       __imp_load_?computeCellCoordinates@HeightField@Gu@physx@@QEBAIMMAEAM0@Z 0000000180027d3b f   PhysXCommon_64:PhysXCommon_64.dll
 0001:00026d47       ?computeCellCoordinates@HeightField@Gu@physx@@QEBAIMMAEAM0@Z 0000000180027d47 f   PhysXCommon_64:PhysXCommon_64.dll
 0001:00026d4d       __imp_load_?releaseMemory@HeightField@Gu@physx@@QEAAXXZ 0000000180027d4d f   PhysXCommon_64:PhysXCommon_64.dll
 0001:00026d59       ?releaseMemory@HeightField@Gu@physx@@QEAAXXZ 0000000180027d59 f   PhysXCommon_64:PhysXCommon_64.dll
 0001:00026d5f       __imp_load_??1HeightField@Gu@physx@@UEAA@XZ 0000000180027d5f f   PhysXCommon_64:PhysXCommon_64.dll
 0001:00026d6b       ??1HeightField@Gu@physx@@UEAA@XZ 0000000180027d6b f   PhysXCommon_64:PhysXCommon_64.dll
 0001:00026d71       __imp_load_??0NodeAllocator@Gu@physx@@QEAA@XZ 0000000180027d71 f   PhysXCommon_64:PhysXCommon_64.dll
 0001:00026d7d       ??0NodeAllocator@Gu@physx@@QEAA@XZ 0000000180027d7d f   PhysXCommon_64:PhysXCommon_64.dll
 0001:00026d83       __imp_load_??1NodeAllocator@Gu@physx@@QEAA@XZ 0000000180027d83 f   PhysXCommon_64:PhysXCommon_64.dll
 0001:00026d8f       ??1NodeAllocator@Gu@physx@@QEAA@XZ 0000000180027d8f f   PhysXCommon_64:PhysXCommon_64.dll
 0001:00026d95       __imp_load_?release@NodeAllocator@Gu@physx@@QEAAXXZ 0000000180027d95 f   PhysXCommon_64:PhysXCommon_64.dll
 0001:00026da1       ?release@NodeAllocator@Gu@physx@@QEAAXXZ 0000000180027da1 f   PhysXCommon_64:PhysXCommon_64.dll
 0001:00026da7       __imp_load_?buildAABBTree@Gu@physx@@YA_NAEAVAABBTreeBuildParams@12@AEAVNodeAllocator@12@AEAUBuildStats@12@AEAPEAI@Z 0000000180027da7 f   PhysXCommon_64:PhysXCommon_64.dll
 0001:00026db3       ?buildAABBTree@Gu@physx@@YA_NAEAVAABBTreeBuildParams@12@AEAVNodeAllocator@12@AEAUBuildStats@12@AEAPEAI@Z 0000000180027db3 f   PhysXCommon_64:PhysXCommon_64.dll
 0001:00026db9       __imp_load_?writeDword@physx@@YAXI_NAEAVPxOutputStream@1@@Z 0000000180027db9 f   PhysXCommon_64:PhysXCommon_64.dll
 0001:00026dc5       ?writeDword@physx@@YAXI_NAEAVPxOutputStream@1@@Z 0000000180027dc5 f   PhysXCommon_64:PhysXCommon_64.dll
 0001:00026dcb       __imp_load_?writeFloatBuffer@physx@@YAXPEBMI_NAEAVPxOutputStream@1@@Z 0000000180027dcb f   PhysXCommon_64:PhysXCommon_64.dll
 0001:00026dd7       ?writeFloatBuffer@physx@@YAXPEBMI_NAEAVPxOutputStream@1@@Z 0000000180027dd7 f   PhysXCommon_64:PhysXCommon_64.dll
 0001:00026ddd       __imp_load_?writeHeader@physx@@YA_NCCCCI_NAEAVPxOutputStream@1@@Z 0000000180027ddd f   PhysXCommon_64:PhysXCommon_64.dll
 0001:00026de9       ?writeHeader@physx@@YA_NCCCCI_NAEAVPxOutputStream@1@@Z 0000000180027de9 f   PhysXCommon_64:PhysXCommon_64.dll
 0001:00026def       __imp_load_?writeWord@physx@@YAXG_NAEAVPxOutputStream@1@@Z 0000000180027def f   PhysXCommon_64:PhysXCommon_64.dll
 0001:00026dfb       ?writeWord@physx@@YAXG_NAEAVPxOutputStream@1@@Z 0000000180027dfb f   PhysXCommon_64:PhysXCommon_64.dll
 0001:00026e01       __imp_load_?writeFloat@physx@@YAXM_NAEAVPxOutputStream@1@@Z 0000000180027e01 f   PhysXCommon_64:PhysXCommon_64.dll
 0001:00026e0d       ?writeFloat@physx@@YAXM_NAEAVPxOutputStream@1@@Z 0000000180027e0d f   PhysXCommon_64:PhysXCommon_64.dll
 0001:00026e13       __imp_load_?computeBoundsAroundVertices@Gu@physx@@YAXAEAVPxBounds3@2@IPEIBVPxVec3@2@@Z 0000000180027e13 f   PhysXCommon_64:PhysXCommon_64.dll
 0001:00026e1f       ?computeBoundsAroundVertices@Gu@physx@@YAXAEAVPxBounds3@2@IPEIBVPxVec3@2@@Z 0000000180027e1f f   PhysXCommon_64:PhysXCommon_64.dll
 0001:00026e25       __imp_load_??0SourceMesh@Gu@physx@@QEAA@XZ 0000000180027e25 f   PhysXCommon_64:PhysXCommon_64.dll
 0001:00026e31       ??0SourceMesh@Gu@physx@@QEAA@XZ 0000000180027e31 f   PhysXCommon_64:PhysXCommon_64.dll
 0001:00026e37       __imp_load_??1SourceMesh@Gu@physx@@QEAA@XZ 0000000180027e37 f   PhysXCommon_64:PhysXCommon_64.dll
 0001:00026e43       ??1SourceMesh@Gu@physx@@QEAA@XZ 0000000180027e43 f   PhysXCommon_64:PhysXCommon_64.dll
 0001:00026e49       __imp_load_??0BV4Tree@Gu@physx@@QEAA@XZ 0000000180027e49 f   PhysXCommon_64:PhysXCommon_64.dll
 0001:00026e55       ??0BV4Tree@Gu@physx@@QEAA@XZ 0000000180027e55 f   PhysXCommon_64:PhysXCommon_64.dll
 0001:00026e5b       __imp_load_??1BV4Tree@Gu@physx@@QEAA@XZ 0000000180027e5b f   PhysXCommon_64:PhysXCommon_64.dll
 0001:00026e67       ??1BV4Tree@Gu@physx@@QEAA@XZ 0000000180027e67 f   PhysXCommon_64:PhysXCommon_64.dll
 0001:00026e6d       __imp_load_??0BV32Tree@Gu@physx@@QEAA@XZ 0000000180027e6d f   PhysXCommon_64:PhysXCommon_64.dll
 0001:00026e79       ??0BV32Tree@Gu@physx@@QEAA@XZ 0000000180027e79 f   PhysXCommon_64:PhysXCommon_64.dll
 0001:00026e7f       __imp_load_??1BV32Tree@Gu@physx@@QEAA@XZ 0000000180027e7f f   PhysXCommon_64:PhysXCommon_64.dll
 0001:00026e8b       ??1BV32Tree@Gu@physx@@QEAA@XZ 0000000180027e8b f   PhysXCommon_64:PhysXCommon_64.dll
 0001:00026e91       __imp_load_?writeWordBuffer@physx@@YAXPEBGI_NAEAVPxOutputStream@1@@Z 0000000180027e91 f   PhysXCommon_64:PhysXCommon_64.dll
 0001:00026e9d       ?writeWordBuffer@physx@@YAXPEBGI_NAEAVPxOutputStream@1@@Z 0000000180027e9d f   PhysXCommon_64:PhysXCommon_64.dll
 0001:00026ea3       __imp_load_?computeMaxIndex@physx@@YAIPEBII@Z 0000000180027ea3 f   PhysXCommon_64:PhysXCommon_64.dll
 0001:00026eaf       ?computeMaxIndex@physx@@YAIPEBII@Z 0000000180027eaf f   PhysXCommon_64:PhysXCommon_64.dll
 0001:00026eb5       __imp_load_?storeIndices@physx@@YAXIIPEBIAEAVPxOutputStream@1@_N@Z 0000000180027eb5 f   PhysXCommon_64:PhysXCommon_64.dll
 0001:00026ec1       ?storeIndices@physx@@YAXIIPEBIAEAVPxOutputStream@1@_N@Z 0000000180027ec1 f   PhysXCommon_64:PhysXCommon_64.dll
 0001:00026ec7       __imp_load_?BuildBV4Ex@Gu@physx@@YA_NAEAVBV4Tree@12@AEAVSourceMesh@12@MI@Z 0000000180027ec7 f   PhysXCommon_64:PhysXCommon_64.dll
 0001:00026ed3       ?BuildBV4Ex@Gu@physx@@YA_NAEAVBV4Tree@12@AEAVSourceMesh@12@MI@Z 0000000180027ed3 f   PhysXCommon_64:PhysXCommon_64.dll
 0001:00026ed9       __imp_load_?BuildBV32Ex@Gu@physx@@YA_NAEAVBV32Tree@12@AEAVSourceMesh@12@MI@Z 0000000180027ed9 f   PhysXCommon_64:PhysXCommon_64.dll
 0001:00026ee5       ?BuildBV32Ex@Gu@physx@@YA_NAEAVBV32Tree@12@AEAVSourceMesh@12@MI@Z 0000000180027ee5 f   PhysXCommon_64:PhysXCommon_64.dll
 0001:00026eeb       __imp_load_?computeMaxIndex@physx@@YAGPEBGI@Z 0000000180027eeb f   PhysXCommon_64:PhysXCommon_64.dll
 0001:00026ef7       ?computeMaxIndex@physx@@YAGPEBGI@Z 0000000180027ef7 f   PhysXCommon_64:PhysXCommon_64.dll
 0001:00026efd       __imp_load_?WriteHeader@Gu@physx@@YA_NEEEEI_NAEAVPxOutputStream@2@@Z 0000000180027efd f   PhysXCommon_64:PhysXCommon_64.dll
 0001:00026f09       ?WriteHeader@Gu@physx@@YA_NEEEEI_NAEAVPxOutputStream@2@@Z 0000000180027f09 f   PhysXCommon_64:PhysXCommon_64.dll
 0001:00026f0f       __imp_load_?StoreIndices@Gu@physx@@YAXGIPEBGAEAVPxOutputStream@2@_N@Z 0000000180027f0f f   PhysXCommon_64:PhysXCommon_64.dll
 0001:00026f1b       ?StoreIndices@Gu@physx@@YAXGIPEBGAEAVPxOutputStream@2@_N@Z 0000000180027f1b f   PhysXCommon_64:PhysXCommon_64.dll
 0001:00026f21       __imp_load_?CreateOffsets@BigConvexData@physx@@IEAAXXZ 0000000180027f21 f   PhysXCommon_64:PhysXCommon_64.dll
 0001:00026f2d       ?CreateOffsets@BigConvexData@physx@@IEAAXXZ 0000000180027f2d f   PhysXCommon_64:PhysXCommon_64.dll
 0001:00026f33       __imp_load_?computeOBBPoints@Gu@physx@@YAXPEIAVPxVec3@2@AEBV32@1111@Z 0000000180027f33 f   PhysXCommon_64:PhysXCommon_64.dll
 0001:00026f3f       ?computeOBBPoints@Gu@physx@@YAXPEIAVPxVec3@2@AEBV32@1111@Z 0000000180027f3f f   PhysXCommon_64:PhysXCommon_64.dll
 0001:00026f45       __imp_load_??0BigConvexData@physx@@QEAA@XZ 0000000180027f45 f   PhysXCommon_64:PhysXCommon_64.dll
 0001:00026f51       ??0BigConvexData@physx@@QEAA@XZ 0000000180027f51 f   PhysXCommon_64:PhysXCommon_64.dll
 0001:00026f57       __imp_load_??1BigConvexData@physx@@QEAA@XZ 0000000180027f57 f   PhysXCommon_64:PhysXCommon_64.dll
 0001:00026f63       ??1BigConvexData@physx@@QEAA@XZ 0000000180027f63 f   PhysXCommon_64:PhysXCommon_64.dll
 0001:00026f69       __imp_load_PxGetFoundation 0000000180027f69 f   PhysXFoundation_64:PhysXFoundation_64.dll
 0001:00026f75       PxGetFoundation            0000000180027f75 f   PhysXFoundation_64:PhysXFoundation_64.dll
 0001:00026f7b       __tailMerge_physxfoundation_64_dll 0000000180027f7b     PhysXFoundation_64:PhysXFoundation_64.dll
 0001:00026ff4       __imp_load_?getAllocator@shdfnd@physx@@YAAEAVPxAllocatorCallback@2@XZ 0000000180027ff4 f   PhysXFoundation_64:PhysXFoundation_64.dll
 0001:00027000       ?getAllocator@shdfnd@physx@@YAAEAVPxAllocatorCallback@2@XZ 0000000180028000 f   PhysXFoundation_64:PhysXFoundation_64.dll
 0001:00027006       __imp_load_?getInstance@Foundation@shdfnd@physx@@SAAEAV123@XZ 0000000180028006 f   PhysXFoundation_64:PhysXFoundation_64.dll
 0001:00027012       ?getInstance@Foundation@shdfnd@physx@@SAAEAV123@XZ 0000000180028012 f   PhysXFoundation_64:PhysXFoundation_64.dll
 0001:00027018       __imp_load_?error@Foundation@shdfnd@physx@@QEAAXW4Enum@PxErrorCode@3@PEBDH1ZZ 0000000180028018 f   PhysXFoundation_64:PhysXFoundation_64.dll
 0001:00027024       ?error@Foundation@shdfnd@physx@@QEAAXW4Enum@PxErrorCode@3@PEBDH1ZZ 0000000180028024 f   PhysXFoundation_64:PhysXFoundation_64.dll
 0001:0002702a       __imp_load_?incRefCount@Foundation@shdfnd@physx@@SAXXZ 000000018002802a f   PhysXFoundation_64:PhysXFoundation_64.dll
 0001:00027036       ?incRefCount@Foundation@shdfnd@physx@@SAXXZ 0000000180028036 f   PhysXFoundation_64:PhysXFoundation_64.dll
 0001:0002703c       __imp_load_?decRefCount@Foundation@shdfnd@physx@@SAXXZ 000000018002803c f   PhysXFoundation_64:PhysXFoundation_64.dll
 0001:00027048       ?decRefCount@Foundation@shdfnd@physx@@SAXXZ 0000000180028048 f   PhysXFoundation_64:PhysXFoundation_64.dll
 0001:0002704e       __imp_load_??0FPUGuard@shdfnd@physx@@QEAA@XZ 000000018002804e f   PhysXFoundation_64:PhysXFoundation_64.dll
 0001:0002705a       ??0FPUGuard@shdfnd@physx@@QEAA@XZ 000000018002805a f   PhysXFoundation_64:PhysXFoundation_64.dll
 0001:00027060       __imp_load_??1FPUGuard@shdfnd@physx@@QEAA@XZ 0000000180028060 f   PhysXFoundation_64:PhysXFoundation_64.dll
 0001:0002706c       ??1FPUGuard@shdfnd@physx@@QEAA@XZ 000000018002806c f   PhysXFoundation_64:PhysXFoundation_64.dll
 0001:00027072       __imp_load_?allocate@TempAllocator@shdfnd@physx@@QEAAPEAX_KPEBDH@Z 0000000180028072 f   PhysXFoundation_64:PhysXFoundation_64.dll
 0001:0002707e       ?allocate@TempAllocator@shdfnd@physx@@QEAAPEAX_KPEBDH@Z 000000018002807e f   PhysXFoundation_64:PhysXFoundation_64.dll
 0001:00027084       __imp_load_?deallocate@TempAllocator@shdfnd@physx@@QEAAXPEAX@Z 0000000180028084 f   PhysXFoundation_64:PhysXFoundation_64.dll
 0001:00027090       ?deallocate@TempAllocator@shdfnd@physx@@QEAAXPEAX@Z 0000000180028090 f   PhysXFoundation_64:PhysXFoundation_64.dll
 0001:00027096       __imp_load_?PxDiagonalize@physx@@YA?AVPxVec3@1@AEBVPxMat33@1@AEAVPxQuat@1@@Z 0000000180028096 f   PhysXFoundation_64:PhysXFoundation_64.dll
 0001:000270a2       ?PxDiagonalize@physx@@YA?AVPxVec3@1@AEBVPxMat33@1@AEAVPxQuat@1@@Z 00000001800280a2 f   PhysXFoundation_64:PhysXFoundation_64.dll
 0001:000270a8       ?DloadAcquireSectionWriteAccess@@YAXXZ 00000001800280a8 f i Delayimp:delayhlp.obj
 0001:00027154       ?DloadGetSRWLockFunctionPointers@@YAEXZ 0000000180028154 f i Delayimp:delayhlp.obj
 0001:000271f4       ?DloadMakePermanentImageCommit@@YAXPEAX_K@Z 00000001800281f4 f i Delayimp:delayhlp.obj
 0001:0002728c       ?DloadObtainSection@@YAPEAXPEAK0@Z 000000018002828c f i Delayimp:delayhlp.obj
 0001:00027328       ?DloadProtectSection@@YAXKPEAK@Z 0000000180028328 f i Delayimp:delayhlp.obj
 0001:000273b8       ?DloadReleaseSectionWriteAccess@@YAXXZ 00000001800283b8 f i Delayimp:delayhlp.obj
 0001:0002744c       __delayLoadHelper2         000000018002844c f   Delayimp:delayhlp.obj
 0001:00027724       ??_L@YAXPEAX_K1P6AX0@Z2@Z  0000000180028724 f   MSVCRT:ehvecctr.obj
 0001:00027794       ??_M@YAXPEAX_K1P6AX0@Z@Z   0000000180028794 f   MSVCRT:ehvecdtr.obj
 0001:00027800       ?__ArrayUnwind@@YAXPEAX_K1P6AX0@Z@Z 0000000180028800 f   MSVCRT:ehvecdtr.obj
 0001:00027864       ??3@YAXPEAX_K@Z            0000000180028864 f   MSVCRT:delete_scalar_size.obj
 0001:00027864       ??_V@YAXPEAX@Z             0000000180028864 f   MSVCRT:delete_array.obj
 0001:0002786c       ??_V@YAXPEAX_K@Z           000000018002886c f   MSVCRT:delete_array_size.obj
 0001:00027874       __GSHandlerCheck_EH4       0000000180028874 f   MSVCRT:gshandlereh4.obj
 0001:00027910       __security_check_cookie    0000000180028910 f   MSVCRT:amdsecgs.obj
 0001:00027930       ??_Etype_info@@UEAAPEAXI@Z 0000000180028930 f i MSVCRT:std_type_info_static.obj
 0001:00027930       ??_Gtype_info@@UEAAPEAXI@Z 0000000180028930 f i MSVCRT:std_type_info_static.obj
 0001:0002795c       ?__scrt_initialize_type_info@@YAXXZ 000000018002895c f   MSVCRT:tncleanup.obj
 0001:0002796c       ?__scrt_uninitialize_type_info@@YAXXZ 000000018002896c f   MSVCRT:tncleanup.obj
 0001:00027990       _alloca_probe              0000000180028990 f   MSVCRT:chkstk.obj
 0001:00027990       __chkstk                   0000000180028990 f   MSVCRT:chkstk.obj
 0001:000279e0       __GSHandlerCheck           00000001800289e0 f   MSVCRT:gshandler.obj
 0001:00027a00       __GSHandlerCheckCommon     0000000180028a00 f   MSVCRT:gshandler.obj
 0001:00027a5c       ??3@YAXPEAX@Z              0000000180028a5c f   MSVCRT:delete_scalar.obj
 0001:00027a64       __raise_securityfailure    0000000180028a64 f   MSVCRT:gs_report.obj
 0001:00027a98       __report_gsfailure         0000000180028a98 f   MSVCRT:gs_report.obj
 0001:00027b6c       __report_rangecheckfailure 0000000180028b6c f   MSVCRT:gs_report.obj
 0001:00027b80       __report_securityfailure   0000000180028b80 f   MSVCRT:gs_report.obj
 0001:00027d00       __vdecl_sinf4              0000000180028d00 f   MSVCRT:svml_ssinf4_dispatch.obj
 0001:00027d20       __libm_sse2_sincosf_       0000000180028d20 f   MSVCRT:svml_ssinf4_dispatch.obj
 0001:00027d63       __libm_sse2_sincosf4_      0000000180028d63 f   MSVCRT:svml_ssinf4_dispatch.obj
 0001:00028090       _DllMainCRTStartup         0000000180029090 f   MSVCRT:dll_dllmain.obj
 0001:000280d0       _guard_check_icall_nop     00000001800290d0 f i MSVCRT:guard_support.obj
 0001:000280d4       __isa_available_init       00000001800290d4 f   MSVCRT:cpu_disp.obj
 0001:00028280       __sse2_sinf4@@16           0000000180029280 f   MSVCRT:svml_ssinf4_sse2.obj
 0001:00028bc0       __sse4_sinf4@@16           0000000180029bc0 f   MSVCRT:svml_ssinf4_sse4.obj
 0001:00029334       __security_init_cookie     000000018002a334 f   MSVCRT:gs_support.obj
 0001:000293e0       DllMain                    000000018002a3e0 f   MSVCRT:dll_dllmain_stub.obj
 0001:00029404       __local_stdio_printf_options 000000018002a404 f i MSVCRT:default_local_stdio_options.obj
 0001:0002940c       __local_stdio_scanf_options 000000018002a40c f i MSVCRT:default_local_stdio_options.obj
 0001:00029414       __scrt_initialize_default_local_stdio_options 000000018002a414 f   MSVCRT:default_local_stdio_options.obj
 0001:00029430       __scrt_acquire_startup_lock 000000018002a430 f   MSVCRT:utility.obj
 0001:0002946c       __scrt_dllmain_after_initialize_c 000000018002a46c f   MSVCRT:utility.obj
 0001:000294a0       __scrt_dllmain_before_initialize_c 000000018002a4a0 f   MSVCRT:utility.obj
 0001:000294b8       __scrt_dllmain_crt_thread_attach 000000018002a4b8 f   MSVCRT:utility.obj
 0001:000294e0       __scrt_dllmain_crt_thread_detach 000000018002a4e0 f   MSVCRT:utility.obj
 0001:000294f8       __scrt_dllmain_exception_filter 000000018002a4f8 f   MSVCRT:utility.obj
 0001:00029558       __scrt_dllmain_uninitialize_c 000000018002a558 f   MSVCRT:utility.obj
 0001:00029588       __scrt_dllmain_uninitialize_critical 000000018002a588 f   MSVCRT:utility.obj
 0001:0002959c       __scrt_initialize_crt      000000018002a59c f   MSVCRT:utility.obj
 0001:000295e8       __scrt_initialize_onexit_tables 000000018002a5e8 f   MSVCRT:utility.obj
 0001:00029674       __scrt_is_nonwritable_in_current_image 000000018002a674 f   MSVCRT:utility.obj
 0001:0002970c       __scrt_release_startup_lock 000000018002a70c f   MSVCRT:utility.obj
 0001:00029730       __scrt_uninitialize_crt    000000018002a730 f   MSVCRT:utility.obj
 0001:0002975c       __scrt_get_dyn_tls_init_callback 000000018002a75c f   MSVCRT:dyn_tls_init.obj
 0001:00029764       __crt_debugger_hook        000000018002a764 f   MSVCRT:utility_desktop.obj
 0001:0002976c       __scrt_fastfail            000000018002a76c f   MSVCRT:utility_desktop.obj
 0001:000298b8       _RTC_Initialize            000000018002a8b8 f   MSVCRT:initsect.obj
 0001:000298f4       _RTC_Terminate             000000018002a8f4 f   MSVCRT:initsect.obj
 0001:00029930       __common_ssin_cout_rare    000000018002a930 f   MSVCRT:svml_s_sin_cout.obj
 0001:000299a0       _get_startup_argv_mode     000000018002a9a0 f   MSVCRT:argv_mode.obj
 0001:000299a8       __scrt_is_ucrt_dll_in_use  000000018002a9a8 f   MSVCRT:ucrt_detection.obj
 0001:000299b4       _purecall                  000000018002a9b4 f   vcruntime:VCRUNTIME140.dll
 0001:000299ba       __std_terminate            000000018002a9ba f   vcruntime:VCRUNTIME140.dll
 0001:000299c0       __std_type_info_name       000000018002a9c0 f   vcruntime:VCRUNTIME140.dll
 0001:000299c6       __CxxFrameHandler4         000000018002a9c6 f   vcruntime:VCRUNTIME140_1.dll
 0001:000299cc       memset                     000000018002a9cc f   vcruntime:VCRUNTIME140.dll
 0001:000299d2       memcpy                     000000018002a9d2 f   vcruntime:VCRUNTIME140.dll
 0001:000299d8       strstr                     000000018002a9d8 f   vcruntime:VCRUNTIME140.dll
 0001:000299de       __C_specific_handler       000000018002a9de f   vcruntime:VCRUNTIME140.dll
 0001:000299e4       __current_exception        000000018002a9e4 f   vcruntime:VCRUNTIME140.dll
 0001:000299ea       __current_exception_context 000000018002a9ea f   vcruntime:VCRUNTIME140.dll
 0001:000299f0       __std_type_info_destroy_list 000000018002a9f0 f   vcruntime:VCRUNTIME140.dll
 0001:000299f6       strcmp                     000000018002a9f6 f   ucrt:api-ms-win-crt-string-l1-1-0.dll
 0001:000299fc       atan2f                     000000018002a9fc f   ucrt:api-ms-win-crt-math-l1-1-0.dll
 0001:00029a02       terminate                  000000018002aa02 f   ucrt:api-ms-win-crt-runtime-l1-1-0.dll
 0001:00029a08       free                       000000018002aa08 f   ucrt:api-ms-win-crt-heap-l1-1-0.dll
 0001:00029a0e       _initterm                  000000018002aa0e f   ucrt:api-ms-win-crt-runtime-l1-1-0.dll
 0001:00029a14       _initterm_e                000000018002aa14 f   ucrt:api-ms-win-crt-runtime-l1-1-0.dll
 0001:00029a1a       _seh_filter_dll            000000018002aa1a f   ucrt:api-ms-win-crt-runtime-l1-1-0.dll
 0001:00029a20       _configure_narrow_argv     000000018002aa20 f   ucrt:api-ms-win-crt-runtime-l1-1-0.dll
 0001:00029a26       _initialize_narrow_environment 000000018002aa26 f   ucrt:api-ms-win-crt-runtime-l1-1-0.dll
 0001:00029a2c       _initialize_onexit_table   000000018002aa2c f   ucrt:api-ms-win-crt-runtime-l1-1-0.dll
 0001:00029a32       _execute_onexit_table      000000018002aa32 f   ucrt:api-ms-win-crt-runtime-l1-1-0.dll
 0001:00029a38       _cexit                     000000018002aa38 f   ucrt:api-ms-win-crt-runtime-l1-1-0.dll
 0001:00029a40       __acrt_thread_detach       000000018002aa40 f   MSVCRT:ucrt_stubs.obj
 0001:00029a40       __acrt_uninitialize_critical 000000018002aa40 f   MSVCRT:ucrt_stubs.obj
 0001:00029a40       __vcrt_uninitialize_critical 000000018002aa40 f   MSVCRT:ucrt_stubs.obj
 0001:00029a40       __scrt_stub_for_acrt_uninitialize_critical 000000018002aa40 f   MSVCRT:ucrt_stubs.obj
 0001:00029a40       __acrt_thread_attach       000000018002aa40 f   MSVCRT:ucrt_stubs.obj
 0001:00029a40       __acrt_initialize          000000018002aa40 f   MSVCRT:ucrt_stubs.obj
 0001:00029a40       __vcrt_initialize          000000018002aa40 f   MSVCRT:ucrt_stubs.obj
 0001:00029a40       __scrt_stub_for_acrt_uninitialize 000000018002aa40 f   MSVCRT:ucrt_stubs.obj
 0001:00029a40       __vcrt_uninitialize        000000018002aa40 f   MSVCRT:ucrt_stubs.obj
 0001:00029a40       __vcrt_thread_detach       000000018002aa40 f   MSVCRT:ucrt_stubs.obj
 0001:00029a40       __scrt_stub_for_acrt_thread_detach 000000018002aa40 f   MSVCRT:ucrt_stubs.obj
 0001:00029a40       __acrt_uninitialize        000000018002aa40 f   MSVCRT:ucrt_stubs.obj
 0001:00029a40       __scrt_stub_for_acrt_thread_attach 000000018002aa40 f   MSVCRT:ucrt_stubs.obj
 0001:00029a40       __scrt_stub_for_acrt_initialize 000000018002aa40 f   MSVCRT:ucrt_stubs.obj
 0001:00029a40       __vcrt_thread_attach       000000018002aa40 f   MSVCRT:ucrt_stubs.obj
 0001:00029a44       _is_c_termination_complete 000000018002aa44 f   MSVCRT:ucrt_stubs.obj
 0001:00029a44       __scrt_stub_for_is_c_termination_complete 000000018002aa44 f   MSVCRT:ucrt_stubs.obj
 0001:00029a60       _guard_dispatch_icall_nop  000000018002aa60 f   MSVCRT:guard_dispatch.obj
 0001:00029a80       _guard_xfg_dispatch_icall_nop 000000018002aa80 f   MSVCRT:guard_xfg_dispatch.obj
 0002:00000000       __imp_LoadLibraryA         000000018002c000     kernel32:KERNEL32.dll
 0002:00000008       __imp_IsDebuggerPresent    000000018002c008     kernel32:KERNEL32.dll
 0002:00000010       __imp_DisableThreadLibraryCalls 000000018002c010     kernel32:KERNEL32.dll
 0002:00000018       __imp_GetSystemTimeAsFileTime 000000018002c018     kernel32:KERNEL32.dll
 0002:00000020       __imp_GetCurrentThreadId   000000018002c020     kernel32:KERNEL32.dll
 0002:00000028       __imp_GetCurrentProcessId  000000018002c028     kernel32:KERNEL32.dll
 0002:00000030       __imp_QueryPerformanceCounter 000000018002c030     kernel32:KERNEL32.dll
 0002:00000038       __imp_IsProcessorFeaturePresent 000000018002c038     kernel32:KERNEL32.dll
 0002:00000040       __imp_TerminateProcess     000000018002c040     kernel32:KERNEL32.dll
 0002:00000048       __imp_GetCurrentProcess    000000018002c048     kernel32:KERNEL32.dll
 0002:00000050       __imp_SetUnhandledExceptionFilter 000000018002c050     kernel32:KERNEL32.dll
 0002:00000058       __imp_UnhandledExceptionFilter 000000018002c058     kernel32:KERNEL32.dll
 0002:00000060       __imp_RtlVirtualUnwind     000000018002c060     kernel32:KERNEL32.dll
 0002:00000068       __imp_RtlLookupFunctionEntry 000000018002c068     kernel32:KERNEL32.dll
 0002:00000070       __imp_RtlCaptureContext    000000018002c070     kernel32:KERNEL32.dll
 0002:00000078       __imp_InitializeSListHead  000000018002c078     kernel32:KERNEL32.dll
 0002:00000080       __imp_LoadLibraryExA       000000018002c080     kernel32:KERNEL32.dll
 0002:00000088       __imp_GetProcAddress       000000018002c088     kernel32:KERNEL32.dll
 0002:00000090       __imp_GetModuleHandleW     000000018002c090     kernel32:KERNEL32.dll
 0002:00000098       __imp_FreeLibrary          000000018002c098     kernel32:KERNEL32.dll
 0002:000000a0       __imp_VirtualQuery         000000018002c0a0     kernel32:KERNEL32.dll
 0002:000000a8       __imp_VirtualProtect       000000018002c0a8     kernel32:KERNEL32.dll
 0002:000000b0       __imp_GetSystemInfo        000000018002c0b0     kernel32:KERNEL32.dll
 0002:000000b8       __imp_GetLastError         000000018002c0b8     kernel32:KERNEL32.dll
 0002:000000c0       __imp_RaiseException       000000018002c0c0     kernel32:KERNEL32.dll
 0002:000000c8       \177KERNEL32_NULL_THUNK_DATA 000000018002c0c8     kernel32:KERNEL32.dll
 0002:000000d0       __imp_memset               000000018002c0d0     vcruntime:VCRUNTIME140.dll
 0002:000000d8       __imp_memcpy               000000018002c0d8     vcruntime:VCRUNTIME140.dll
 0002:000000e0       __imp_strstr               000000018002c0e0     vcruntime:VCRUNTIME140.dll
 0002:000000e8       __imp___C_specific_handler 000000018002c0e8     vcruntime:VCRUNTIME140.dll
 0002:000000f0       __imp___current_exception  000000018002c0f0     vcruntime:VCRUNTIME140.dll
 0002:000000f8       __imp___std_type_info_destroy_list 000000018002c0f8     vcruntime:VCRUNTIME140.dll
 0002:00000100       __imp___std_type_info_name 000000018002c100     vcruntime:VCRUNTIME140.dll
 0002:00000108       __imp___current_exception_context 000000018002c108     vcruntime:VCRUNTIME140.dll
 0002:00000110       __imp__purecall            000000018002c110     vcruntime:VCRUNTIME140.dll
 0002:00000118       __imp___std_terminate      000000018002c118     vcruntime:VCRUNTIME140.dll
 0002:00000120       \177VCRUNTIME140_NULL_THUNK_DATA 000000018002c120     vcruntime:VCRUNTIME140.dll
 0002:00000128       __imp___CxxFrameHandler4   000000018002c128     vcruntime:VCRUNTIME140_1.dll
 0002:00000130       \177VCRUNTIME140_1_NULL_THUNK_DATA 000000018002c130     vcruntime:VCRUNTIME140_1.dll
 0002:00000138       __imp_free                 000000018002c138     ucrt:api-ms-win-crt-heap-l1-1-0.dll
 0002:00000140       \177api-ms-win-crt-heap-l1-1-0_NULL_THUNK_DATA 000000018002c140     ucrt:api-ms-win-crt-heap-l1-1-0.dll
 0002:00000148       __imp__fpclass             000000018002c148     ucrt:api-ms-win-crt-math-l1-1-0.dll
 0002:00000150       __imp_atan2f               000000018002c150     ucrt:api-ms-win-crt-math-l1-1-0.dll
 0002:00000158       \177api-ms-win-crt-math-l1-1-0_NULL_THUNK_DATA 000000018002c158     ucrt:api-ms-win-crt-math-l1-1-0.dll
 0002:00000160       __imp__initterm_e          000000018002c160     ucrt:api-ms-win-crt-runtime-l1-1-0.dll
 0002:00000168       __imp__seh_filter_dll      000000018002c168     ucrt:api-ms-win-crt-runtime-l1-1-0.dll
 0002:00000170       __imp__initterm            000000018002c170     ucrt:api-ms-win-crt-runtime-l1-1-0.dll
 0002:00000178       __imp_terminate            000000018002c178     ucrt:api-ms-win-crt-runtime-l1-1-0.dll
 0002:00000180       __imp__cexit               000000018002c180     ucrt:api-ms-win-crt-runtime-l1-1-0.dll
 0002:00000188       __imp__configure_narrow_argv 000000018002c188     ucrt:api-ms-win-crt-runtime-l1-1-0.dll
 0002:00000190       __imp__execute_onexit_table 000000018002c190     ucrt:api-ms-win-crt-runtime-l1-1-0.dll
 0002:00000198       __imp__initialize_onexit_table 000000018002c198     ucrt:api-ms-win-crt-runtime-l1-1-0.dll
 0002:000001a0       __imp__initialize_narrow_environment 000000018002c1a0     ucrt:api-ms-win-crt-runtime-l1-1-0.dll
 0002:000001a8       \177api-ms-win-crt-runtime-l1-1-0_NULL_THUNK_DATA 000000018002c1a8     ucrt:api-ms-win-crt-runtime-l1-1-0.dll
 0002:000001b0       __imp_strcmp               000000018002c1b0     ucrt:api-ms-win-crt-string-l1-1-0.dll
 0002:000001b8       \177api-ms-win-crt-string-l1-1-0_NULL_THUNK_DATA 000000018002c1b8     ucrt:api-ms-win-crt-string-l1-1-0.dll
 0002:000001c0       __guard_check_icall_fptr   000000018002c1c0     MSVCRT:guard_support.obj
 0002:000001c8       __guard_xfg_check_icall_fptr 000000018002c1c8     MSVCRT:guard_support.obj
 0002:000001d0       __guard_dispatch_icall_fptr 000000018002c1d0     MSVCRT:guard_support.obj
 0002:000001d8       __guard_xfg_dispatch_icall_fptr 000000018002c1d8     MSVCRT:guard_support.obj
 0002:000001e0       __guard_xfg_table_dispatch_icall_fptr 000000018002c1e0     MSVCRT:guard_support.obj
 0002:000001e8       __castguard_check_failure_os_handled_fptr 000000018002c1e8     MSVCRT:guard_support.obj
 0002:000001f0       __guard_memcpy_fptr        000000018002c1f0     vcruntime:softmemtag.obj
 0002:000001f8       __xc_a                     000000018002c1f8     MSVCRT:initializers.obj
 0002:000003e0       __xc_z                     000000018002c3e0     MSVCRT:initializers.obj
 0002:000003e8       __xi_a                     000000018002c3e8     MSVCRT:initializers.obj
 0002:000003f0       __xi_z                     000000018002c3f0     MSVCRT:initializers.obj
 0002:000003f8       __xp_a                     000000018002c3f8     MSVCRT:initializers.obj
 0002:00000400       __xp_z                     000000018002c400     MSVCRT:initializers.obj
 0002:00000408       __xt_a                     000000018002c408     MSVCRT:initializers.obj
 0002:00000410       __xt_z                     000000018002c410     MSVCRT:initializers.obj
 0002:00000428       ??_7PxFoundation@physx@@6B@ 000000018002c428     Adjacencies.obj
 0002:00000470       ??_C@_0HD@CCEGALB@C?3?2C?$CL?$CL?2GitHub?2vcpkg?2buildtrees?2@ 000000018002c470     Adjacencies.obj
 0002:000004e8       ??_C@_0DA@FMEHLBKI@Adjacencies?3?3UpdateLink?3?5invali@ 000000018002c4e8     Adjacencies.obj
 0002:00000520       ??_C@_0EA@CPHOACLK@Adjacencies?3?3CreateDatabase?3?5ca@ 000000018002c520     Adjacencies.obj
 0002:00000560       ??_C@_0BM@OIFKLHDN@?$DMallocation?5names?5disabled?$DO@ 000000018002c560     Adjacencies.obj
 0002:000005a0       ?sBufferSize@DebugText@Cm@physx@@2HB 000000018002c5a0     Cooking.obj
 0002:000005a4       ??_C@_06EJKDJEDO@PxBase@   000000018002c5a4     Cooking.obj
 0002:000005b0       ??_C@_0N@CDGINLLF@PxConvexMesh@ 000000018002c5b0     Cooking.obj
 0002:000005c0       ??_C@_0O@PBAKPCEC@PxHeightField@ 000000018002c5c0     Cooking.obj
 0002:000005d8       ??_7PxBase@physx@@6B@      000000018002c5d8     Cooking.obj
 0002:00000608       ??_7PxCooking@physx@@6B@   000000018002c608     Cooking.obj
 0002:00000690       ??_7Cooking@physx@@6B@     000000018002c690     Cooking.obj
 0002:00000710       ??_C@_0FC@PJIHAFK@Cooking?3?3validateTriangleMesh?3?5@ 000000018002c710     Cooking.obj
 0002:00000770       ??_C@_0GP@HONEJJPL@C?3?2C?$CL?$CL?2GitHub?2vcpkg?2buildtrees?2@ 000000018002c770     Cooking.obj
 0002:000007e0       ??_C@_0EK@EKAIJEBL@Cooking?3?3cookConvexMesh?3?5user?9p@ 000000018002c7e0     Cooking.obj
 0002:00000830       ??_C@_0FA@GFFGAPML@Cooking?3?3cookConvexMesh?3?5provid@ 000000018002c830     Cooking.obj
 0002:00000880       ??_C@_0EP@PKDCPNNO@Cooking?3?3cookConvexMesh?3?5provid@ 000000018002c880     Cooking.obj
 0002:000008d0       ??_C@_0EO@LKFMMDE@Cooking?3?3cookConvexMesh?3?5user?9p@ 000000018002c8d0     Cooking.obj
 0002:00000920       ??_C@_0GP@HFLMPNJG@C?3?2C?$CL?$CL?2GitHub?2vcpkg?2buildtrees?2@ 000000018002c920     Cooking.obj
 0002:00000990       __real@3f800000            000000018002c990     Cooking.obj
 0002:000009a0       __xmm@000000003a83126f3a83126f3a83126f 000000018002c9a0     Cooking.obj
 0002:000009b0       __xmm@00000000ba83126fba83126fba83126f 000000018002c9b0     Cooking.obj
 0002:000009c0       __xmm@3a83126f3a83126f3a83126f3a83126f 000000018002c9c0     Cooking.obj
 0002:000009d0       __xmm@80000000800000008000000080000000 000000018002c9d0     Cooking.obj
 0002:000009e0       __xmm@ba83126fba83126fba83126fba83126f 000000018002c9e0     Cooking.obj
 0002:000009f0       ??_C@_0BA@DLCJDKDM@NonTrackedAlloc@ 000000018002c9f0     CookingUtils.obj
 0002:00000a00       ??_C@_0HE@GAAICMNK@C?3?2C?$CL?$CL?2GitHub?2vcpkg?2buildtrees?2@ 000000018002ca00     CookingUtils.obj
 0002:00000a80       ??_C@_0HA@GOLLBFOO@C?3?2C?$CL?$CL?2GitHub?2vcpkg?2buildtrees?2@ 000000018002ca80     EdgeList.obj
 0002:00000af0       ??_C@_0CO@GBNJFPN@EdgeList?3?3CreateFacesToEdges?3?5N@ 000000018002caf0     EdgeList.obj
 0002:00000b20       ??_C@_0CO@EHJBBMNK@EdgeList?3?3ComputeActiveEdges?3?5N@ 000000018002cb20     EdgeList.obj
 0002:00000b50       ??_C@_0DI@GBHLFOFP@ActiveEdges?3?3ComputeConvexEdges@ 000000018002cb50     EdgeList.obj
 0002:00000b88       ??_C@_0DM@JOGBLHDI@ActiveEdges?3?3ComputeConvexEdges@ 000000018002cb88     EdgeList.obj
 0002:00000bd0       ??_C@_0ED@FEMJKPEL@ActiveEdges?3?3ComputeConvexEdges@ 000000018002cbd0     EdgeList.obj
 0002:00000c20       ??_C@_0EB@BFDPMFCD@ActiveEdges?3?3ComputeConvexEdges@ 000000018002cc20     EdgeList.obj
 0002:00000c64       __real@bf7fbe77            000000018002cc64     EdgeList.obj
 0002:00000c70       __xmm@7fffffff7fffffff7fffffff7fffffff 000000018002cc70     EdgeList.obj
 0002:00000c80       ??_C@_0HD@CHHPENOF@C?3?2C?$CL?$CL?2GitHub?2vcpkg?2buildtrees?2@ 000000018002cc80     MeshCleaner.obj
 0002:00000cf4       __real@3f000000            000000018002ccf4     MeshCleaner.obj
 0002:00000d00       ??_7Quantizer@physx@@6B@   000000018002cd00     Quantizer.obj
 0002:00000d30       ??_7QuantizerImpl@@6B@     000000018002cd30     Quantizer.obj
 0002:00000d60       ??_C@_0HB@IODBABII@C?3?2C?$CL?$CL?2GitHub?2vcpkg?2buildtrees?2@ 000000018002cd60     Quantizer.obj
 0002:00000dd4       __real@38d1b717            000000018002cdd4     Quantizer.obj
 0002:00000dd8       __real@3c23d70a            000000018002cdd8     Quantizer.obj
 0002:00000ddc       __real@3f0020c5            000000018002cddc     Quantizer.obj
 0002:00000de0       __real@3f8020c5            000000018002cde0     Quantizer.obj
 0002:00000de4       __real@7e7fffff            000000018002cde4     Quantizer.obj
 0002:00000de8       __real@7f7fffff            000000018002cde8     Quantizer.obj
 0002:00000dec       __real@fe7fffff            000000018002cdec     Quantizer.obj
 0002:00000df0       __xmm@fe7fffff7e7fffff7e7fffff7e7fffff 000000018002cdf0     Quantizer.obj
 0002:00000e20       ??_C@_0HL@MMKHPHFE@C?3?2C?$CL?$CL?2GitHub?2vcpkg?2buildtrees?2@ 000000018002ce20     BVHStructureBuilder.obj
 0002:00000ea0       __xmm@3ba3d70a3ba3d70a3ba3d70a3ba3d70a 000000018002cea0     BVHStructureBuilder.obj
 0002:00000ec0       ?reductionFactors@SubSortQuick@physx@@2QBMB 000000018002cec0     RTreeCooking.obj
 0002:00000ed0       ?stopAtTrisPerLeaf1@SubSortQuick@physx@@2QBIB 000000018002ced0     RTreeCooking.obj
 0002:00000f90       ??_C@_0HJ@KILFKPHP@C?3?2C?$CL?$CL?2GitHub?2vcpkg?2buildtrees?2@ 000000018002cf90     RTreeCooking.obj
 0002:00001010       ??_C@_0GO@HCCJAIBB@C?3?2C?$CL?$CL?2GitHub?2vcpkg?2buildtrees?2@ 000000018002d010     RTreeCooking.obj
 0002:00001080       ??_C@_0HH@GFFDFBBO@C?3?2C?$CL?$CL?2GitHub?2vcpkg?2buildtrees?2@ 000000018002d080     RTreeCooking.obj
 0002:000010f8       __real@37800080            000000018002d0f8     RTreeCooking.obj
 0002:000010fc       __real@41100000            000000018002d0fc     RTreeCooking.obj
 0002:00001100       __real@41700000            000000018002d100     RTreeCooking.obj
 0002:00001104       __real@42200000            000000018002d104     RTreeCooking.obj
 0002:00001108       __real@ff7fffff            000000018002d108     RTreeCooking.obj
 0002:00001110       __xmm@00000004000000030000000200000001 000000018002d110     RTreeCooking.obj
 0002:00001120       __xmm@3a03126f3a03126f3a03126f3a03126f 000000018002d120     RTreeCooking.obj
 0002:00001130       __xmm@7f7fffff7f7fffff7f7fffff7f7fffff 000000018002d130     RTreeCooking.obj
 0002:00001140       __xmm@ff7fffffff7fffffff7fffffff7fffff 000000018002d140     RTreeCooking.obj
 0002:00001170       __real@34800000            000000018002d170     MeshBuilder.obj
 0002:000011a8       ??_7MeshDataBase@Gu@physx@@6B@ 000000018002d1a8     TriangleMeshBuilder.obj
 0002:000011b0       ??_C@_0HC@GINABNLB@C?3?2C?$CL?$CL?2GitHub?2vcpkg?2buildtrees?2@ 000000018002d1b0     TriangleMeshBuilder.obj
 0002:00001230       ??_7TriangleMeshData@Gu@physx@@6B@ 000000018002d230     TriangleMeshBuilder.obj
 0002:00001240       ??_7RTreeTriangleData@Gu@physx@@6B@ 000000018002d240     TriangleMeshBuilder.obj
 0002:00001250       ??_7BV4TriangleData@Gu@physx@@6B@ 000000018002d250     TriangleMeshBuilder.obj
 0002:00001260       ??_7RemapCallback@RTreeCooker@physx@@6B@ 000000018002d260     TriangleMeshBuilder.obj
 0002:00001278       ??_7TriangleMeshBuilder@physx@@6B@ 000000018002d278     TriangleMeshBuilder.obj
 0002:000012a8       ??_7RTreeTriangleMeshBuilder@physx@@6B@ 000000018002d2a8     TriangleMeshBuilder.obj
 0002:000012d8       ??_7BV4TriangleMeshBuilder@physx@@6B@ 000000018002d2d8     TriangleMeshBuilder.obj
 0002:00001300       ??_C@_0IB@HJOKIBOE@C?3?2C?$CL?$CL?2GitHub?2vcpkg?2buildtrees?2@ 000000018002d300     TriangleMeshBuilder.obj
 0002:00001390       ??_C@_0IA@JNPBBBE@C?3?2C?$CL?$CL?2GitHub?2vcpkg?2buildtrees?2@ 000000018002d390     TriangleMeshBuilder.obj
 0002:00001410       ??_C@_0DJ@IGODLHLP@TriangleMesh?3?5Enable?5mesh?5weldi@ 000000018002d410     TriangleMeshBuilder.obj
 0002:00001450       ??_C@_0FJ@HHJLKGDF@TriangleMesh?3?5triangles?5are?5too@ 000000018002d450     TriangleMeshBuilder.obj
 0002:000014b0       ??_C@_0CN@KGPHHHLK@TriangleMesh?3?5mesh?5is?5too?5big?5f@ 000000018002d4b0     TriangleMeshBuilder.obj
 0002:000014e0       ??_C@_0DD@CMJGDCNN@TriangleMesh?3?3loadFromDesc?3?5des@ 000000018002d4e0     TriangleMeshBuilder.obj
 0002:00001520       ??_C@_0ED@ILJJNHIP@TriangleMesh?3?3loadFromDesc?3?5mPa@ 000000018002d520     TriangleMeshBuilder.obj
 0002:00001568       ??_C@_0BJ@BKHDBBHO@cleaning?5the?5mesh?5failed@ 000000018002d568     TriangleMeshBuilder.obj
 0002:00001588       ??_C@_0BK@JIDHMMCE@BV4?5tree?5failed?5to?5build?4@ 000000018002d588     TriangleMeshBuilder.obj
 0002:000015a8       ??_C@_0BL@DHNECNBE@BV32?5tree?5failed?5to?5build?4@ 000000018002d5a8     TriangleMeshBuilder.obj
 0002:000015d0       ??_7RTreeCookerRemap@physx@@6B@ 000000018002d5d0     TriangleMeshBuilder.obj
 0002:000015e0       __real@3951b717            000000018002d5e0     TriangleMeshBuilder.obj
 0002:000015e4       __real@3dcccccd            000000018002d5e4     TriangleMeshBuilder.obj
 0002:000015e8       __real@48742400            000000018002d5e8     TriangleMeshBuilder.obj
 0002:000015f0       __xmm@00000003000000020000000100000000 000000018002d5f0     TriangleMeshBuilder.obj
 0002:00001620       ??_C@_0ID@GDPNLIMA@C?3?2C?$CL?$CL?2GitHub?2vcpkg?2buildtrees?2@ 000000018002d620     BigConvexDataBuilder.obj
 0002:000016a4       __real@40000000            000000018002d6a4     BigConvexDataBuilder.obj
 0002:000016d0       ??_C@_0IA@JLGBPDHB@C?3?2C?$CL?$CL?2GitHub?2vcpkg?2buildtrees?2@ 000000018002d6d0     ConvexHullBuilder.obj
 0002:00001750       ??_C@_0EB@DCEIFDGC@ConvexHullBuilder?3?3init?3?5convex@ 000000018002d750     ConvexHullBuilder.obj
 0002:000017a0       ??_C@_0FM@KICBLCBH@Gu?3?3ConvexMesh?3?3checkHullPolygo@ 000000018002d7a0     ConvexHullBuilder.obj
 0002:00001800       ??_C@_0GO@HBFIOGLL@Gu?3?3ConvexMesh?3?3checkHullPolygo@ 000000018002d800     ConvexHullBuilder.obj
 0002:00001870       ??_C@_0HF@OLJFBIEL@ConvexHullBuilder?3?5convex?5hull?5@ 000000018002d870     ConvexHullBuilder.obj
 0002:000018f0       ??_C@_0OG@JNHFOIL@ConvexHullBuilder?3?5convex?5hull?5@ 000000018002d8f0     ConvexHullBuilder.obj
 0002:000019e0       ??_C@_0EJ@NIOIBAKH@Cooking?3?3cookConvexMesh?3?5non?9ma@ 000000018002d9e0     ConvexHullBuilder.obj
 0002:00001a2c       __real@3ca3d70a            000000018002da2c     ConvexHullBuilder.obj
 0002:00001a30       __real@3eaaaaab            000000018002da30     ConvexHullBuilder.obj
 0002:00001a40       ??_7ConvexHullLib@physx@@6B@ 000000018002da40     ConvexHullLib.obj
 0002:00001a60       ??_C@_0HM@KLCMJOLD@C?3?2C?$CL?$CL?2GitHub?2vcpkg?2buildtrees?2@ 000000018002da60     ConvexHullLib.obj
 0002:00001ae0       ??_C@_0JE@PABBNGEL@ConvexHullLib?3?3cleanupVertices?3@ 000000018002dae0     ConvexHullLib.obj
 0002:00001b74       __real@358637bd            000000018002db74     ConvexHullLib.obj
 0002:00001b78       __real@3d4ccccd            000000018002db78     ConvexHullLib.obj
 0002:00001ba0       ??_C@_0HO@GNACAFPA@C?3?2C?$CL?$CL?2GitHub?2vcpkg?2buildtrees?2@ 000000018002dba0     ConvexHullUtils.obj
 0002:00001c20       __real@3e20d97c            000000018002dc20     ConvexHullUtils.obj
 0002:00001c30       __xmm@00800000008000000080000000800000 000000018002dc30     ConvexHullUtils.obj
 0002:00001c40       __xmm@3f0000003f0000003f0000003f000000 000000018002dc40     ConvexHullUtils.obj
 0002:00001c50       __xmm@bf000000bf000000bf000000bf000000 000000018002dc50     ConvexHullUtils.obj
 0002:00001c80       ??_C@_0DF@LLFJIJGM@Gu?3?3ConvexMesh?3?3loadFromDesc?3?5d@ 000000018002dc80     ConvexMeshBuilder.obj
 0002:00001cc0       ??_C@_0IA@FFMFFDCE@C?3?2C?$CL?$CL?2GitHub?2vcpkg?2buildtrees?2@ 000000018002dcc0     ConvexMeshBuilder.obj
 0002:00001d40       ??_C@_0HK@JOGKIEAA@Gu?3?3ConvexMesh?3?5Mesh?5has?5a?5nega@ 000000018002dd40     ConvexMeshBuilder.obj
 0002:00001dc0       ??_C@_0DH@NJPPHFFD@Gu?3?3ConvexMesh?3?5Error?5computing@ 000000018002ddc0     ConvexMeshBuilder.obj
 0002:00001df8       ??_C@_0DJ@LJDLGLDJ@Gu?3?3ConvexMesh?3?3loadConvexHull?3@ 000000018002ddf8     ConvexMeshBuilder.obj
 0002:00001e40       ??_C@_0HJ@KJANPPOE@ConvexMeshBuilder?3?3computeHullP@ 000000018002de40     ConvexMeshBuilder.obj
 0002:00001ebc       ??_C@_06KDGGGLIJ@PxVec3@   000000018002debc     ConvexMeshBuilder.obj
 0002:00001ec4       ??_C@_05LMJPANIN@PxU32@    000000018002dec4     ConvexMeshBuilder.obj
 0002:00001ed0       ??_C@_0O@JMAGMMGG@PxHullPolygon@ 000000018002ded0     ConvexMeshBuilder.obj
 0002:00001ee0       __real@33d6bf95            000000018002dee0     ConvexMeshBuilder.obj
 0002:00001ee4       __real@3f13cd3a            000000018002dee4     ConvexMeshBuilder.obj
 0002:00001ee8       __real@b3d6bf95            000000018002dee8     ConvexMeshBuilder.obj
 0002:00001eec       __real@bf800000            000000018002deec     ConvexMeshBuilder.obj
 0002:00001ef0       __xmm@80000000000000008000000000000000 000000018002def0     ConvexMeshBuilder.obj
 0002:00001f00       ??_C@_0DP@PJBJBEGF@Meshmerizer?3?3extractHullPolygon@ 000000018002df00     ConvexPolygonsBuilder.obj
 0002:00001f40       ??_C@_0IE@BPKJIHEH@C?3?2C?$CL?$CL?2GitHub?2vcpkg?2buildtrees?2@ 000000018002df40     ConvexPolygonsBuilder.obj
 0002:00001fc8       ??_C@_0DL@IAFKOCCK@ConvexHullBuilder?3?5convex?5hull?5@ 000000018002dfc8     ConvexPolygonsBuilder.obj
 0002:00002010       ??_C@_0GF@OJLJHAMH@ConvexHullBuilder?3?3CreateTriang@ 000000018002e010     ConvexPolygonsBuilder.obj
 0002:00002078       __real@3ba3d70a            000000018002e078     ConvexPolygonsBuilder.obj
 0002:00002088       ??_7QuickHullConvexHullLib@physx@@6B@ 000000018002e088     QuickHullConvexHullLib.obj
 0002:000020b0       ??_C@_0IF@DCGFGKA@C?3?2C?$CL?$CL?2GitHub?2vcpkg?2buildtrees?2@ 000000018002e0b0     QuickHullConvexHullLib.obj
 0002:00002140       ??_C@_0GA@EPPAEJPM@QuickHullConvexHullLib?3?3findSim@ 000000018002e140     QuickHullConvexHullLib.obj
 0002:000021a0       ??_C@_0FB@NEBIJMML@QuickHullConvexHullLib?3?3findSim@ 000000018002e1a0     QuickHullConvexHullLib.obj
 0002:00002200       ??_C@_0FB@CLLCBEMM@QuickHullConvexHullLib?3?3findSim@ 000000018002e200     QuickHullConvexHullLib.obj
 0002:00002254       __real@34c00000            000000018002e254     QuickHullConvexHullLib.obj
 0002:00002258       __real@3e800000            000000018002e258     QuickHullConvexHullLib.obj
 0002:00002280       __real@00000000            000000018002e280     VolumeIntegration.obj
 0002:00002290       __xmm@3c0888893c0888893c0888893c088889 000000018002e290     VolumeIntegration.obj
 0002:000022a0       __xmm@3c8888893c8888893c8888893c888889 000000018002e2a0     VolumeIntegration.obj
 0002:000022b0       __xmm@3d2aaaab3d2aaaab3d2aaaab3d2aaaab 000000018002e2b0     VolumeIntegration.obj
 0002:000022c0       __xmm@3e2aaaab3e2aaaab3e2aaaab3e2aaaab 000000018002e2c0     VolumeIntegration.obj
 0002:000022d0       __xmm@3f811111111111113f81111111111111 000000018002e2d0     VolumeIntegration.obj
 0002:000022e0       __xmm@3f811111111111113f91111111111111 000000018002e2e0     VolumeIntegration.obj
 0002:000022f0       __xmm@3f911111111111113f91111111111111 000000018002e2f0     VolumeIntegration.obj
 0002:00002300       __xmm@3fa55555555555553fa5555555555555 000000018002e300     VolumeIntegration.obj
 0002:00002310       __xmm@3fa55555555555553fc5555555555555 000000018002e310     VolumeIntegration.obj
 0002:00002320       ??_C@_0BA@EGLNOO@PhysXFoundation@ 000000018002e320     WindowsCookingDelayLoadHook.obj
 0002:00002330       ??_C@_0M@ILKNCJKN@PhysXCommon@ 000000018002e330     WindowsCookingDelayLoadHook.obj
 0002:00002340       __sz_PhysXCommon_64_dll    000000018002e340     PhysXCommon_64:PhysXCommon_64.dll
 0002:00002360       __sz_PhysXFoundation_64_dll 000000018002e360     PhysXFoundation_64:PhysXFoundation_64.dll
 0002:00002378       ??_C@_1BK@DBDEIDLH@?$AAK?$AAE?$AAR?$AAN?$AAE?$AAL?$AA3?$AA2?$AA?4?$AAD?$AAL?$AAL@ 000000018002e378     Delayimp:delayhlp.obj
 0002:00002398       ??_C@_0BI@OMNLIJDB@AcquireSRWLockExclusive@ 000000018002e398     Delayimp:delayhlp.obj
 0002:000023b0       ??_C@_0BI@HMIEPCNJ@ReleaseSRWLockExclusive@ 000000018002e3b0     Delayimp:delayhlp.obj
 0002:000023c8       __pfnDliFailureHook2       000000018002e3c8     Delayimp:delayhk1.obj
 0002:000023d8       ??_7type_info@@6B@         000000018002e3d8     MSVCRT:std_type_info_static.obj
 0002:00002450       _pDefaultRawDllMain        000000018002e450     MSVCRT:dll_dllmain.obj
 0002:00002450       _pRawDllMain               000000018002e450     MSVCRT:dll_dllmain.obj
 0002:00002460       _load_config_used          000000018002e460     MSVCRT:loadcfg.obj
 0002:000025a0       __xmm@ffffffffffffffffffffffffffffffff 000000018002e5a0     MSVCRT:utility.obj
 0002:00002680       ??_R4PxFoundation@physx@@6B@ 000000018002e680     Adjacencies.obj
 0002:000026a8       ??_R3PxFoundation@physx@@8 000000018002e6a8     Adjacencies.obj
 0002:000026c0       ??_R2PxFoundation@physx@@8 000000018002e6c0     Adjacencies.obj
 0002:000026d0       ??_R1A@?0A@EA@PxFoundation@physx@@8 000000018002e6d0     Adjacencies.obj
 0002:000026f8       ??_R4PxBase@physx@@6B@     000000018002e6f8     Cooking.obj
 0002:00002720       ??_R3PxBase@physx@@8       000000018002e720     Cooking.obj
 0002:00002738       ??_R2PxBase@physx@@8       000000018002e738     Cooking.obj
 0002:00002748       ??_R1A@?0A@EA@PxBase@physx@@8 000000018002e748     Cooking.obj
 0002:00002770       ??_R4PxCooking@physx@@6B@  000000018002e770     Cooking.obj
 0002:00002798       ??_R3PxCooking@physx@@8    000000018002e798     Cooking.obj
 0002:000027b0       ??_R2PxCooking@physx@@8    000000018002e7b0     Cooking.obj
 0002:000027c0       ??_R1A@?0A@EA@PxCooking@physx@@8 000000018002e7c0     Cooking.obj
 0002:000027e8       ??_R4Cooking@physx@@6B@    000000018002e7e8     Cooking.obj
 0002:00002810       ??_R3Cooking@physx@@8      000000018002e810     Cooking.obj
 0002:00002828       ??_R2Cooking@physx@@8      000000018002e828     Cooking.obj
 0002:00002848       ??_R1A@?0A@EA@Cooking@physx@@8 000000018002e848     Cooking.obj
 0002:00002870       ??_R17?0A@EA@UserAllocated@shdfnd@physx@@8 000000018002e870     Cooking.obj
 0002:00002898       ??_R3UserAllocated@shdfnd@physx@@8 000000018002e898     Cooking.obj
 0002:000028b0       ??_R2UserAllocated@shdfnd@physx@@8 000000018002e8b0     Cooking.obj
 0002:000028c0       ??_R1A@?0A@EA@UserAllocated@shdfnd@physx@@8 000000018002e8c0     Cooking.obj
 0002:000028e8       ??_R4Quantizer@physx@@6B@  000000018002e8e8     Quantizer.obj
 0002:00002910       ??_R3Quantizer@physx@@8    000000018002e910     Quantizer.obj
 0002:00002928       ??_R2Quantizer@physx@@8    000000018002e928     Quantizer.obj
 0002:00002938       ??_R1A@?0A@EA@Quantizer@physx@@8 000000018002e938     Quantizer.obj
 0002:00002960       ??_R4QuantizerImpl@@6B@    000000018002e960     Quantizer.obj
 0002:00002988       ??_R3QuantizerImpl@@8      000000018002e988     Quantizer.obj
 0002:000029a0       ??_R2QuantizerImpl@@8      000000018002e9a0     Quantizer.obj
 0002:000029c0       ??_R1A@?0A@EA@QuantizerImpl@@8 000000018002e9c0     Quantizer.obj
 0002:000029e8       ??_R4MeshDataBase@Gu@physx@@6B@ 000000018002e9e8     TriangleMeshBuilder.obj
 0002:00002a10       ??_R3MeshDataBase@Gu@physx@@8 000000018002ea10     TriangleMeshBuilder.obj
 0002:00002a28       ??_R2MeshDataBase@Gu@physx@@8 000000018002ea28     TriangleMeshBuilder.obj
 0002:00002a40       ??_R1A@?0A@EA@MeshDataBase@Gu@physx@@8 000000018002ea40     TriangleMeshBuilder.obj
 0002:00002a68       ??_R4TriangleMeshData@Gu@physx@@6B@ 000000018002ea68     TriangleMeshBuilder.obj
 0002:00002a90       ??_R3TriangleMeshData@Gu@physx@@8 000000018002ea90     TriangleMeshBuilder.obj
 0002:00002aa8       ??_R2TriangleMeshData@Gu@physx@@8 000000018002eaa8     TriangleMeshBuilder.obj
 0002:00002ac8       ??_R1A@?0A@EA@TriangleMeshData@Gu@physx@@8 000000018002eac8     TriangleMeshBuilder.obj
 0002:00002af0       ??_R4RTreeTriangleData@Gu@physx@@6B@ 000000018002eaf0     TriangleMeshBuilder.obj
 0002:00002b18       ??_R3RTreeTriangleData@Gu@physx@@8 000000018002eb18     TriangleMeshBuilder.obj
 0002:00002b30       ??_R2RTreeTriangleData@Gu@physx@@8 000000018002eb30     TriangleMeshBuilder.obj
 0002:00002b58       ??_R1A@?0A@EA@RTreeTriangleData@Gu@physx@@8 000000018002eb58     TriangleMeshBuilder.obj
 0002:00002b80       ??_R4BV4TriangleData@Gu@physx@@6B@ 000000018002eb80     TriangleMeshBuilder.obj
 0002:00002ba8       ??_R3BV4TriangleData@Gu@physx@@8 000000018002eba8     TriangleMeshBuilder.obj
 0002:00002bc0       ??_R2BV4TriangleData@Gu@physx@@8 000000018002ebc0     TriangleMeshBuilder.obj
 0002:00002be8       ??_R1A@?0A@EA@BV4TriangleData@Gu@physx@@8 000000018002ebe8     TriangleMeshBuilder.obj
 0002:00002c10       ??_R4RemapCallback@RTreeCooker@physx@@6B@ 000000018002ec10     TriangleMeshBuilder.obj
 0002:00002c38       ??_R3RemapCallback@RTreeCooker@physx@@8 000000018002ec38     TriangleMeshBuilder.obj
 0002:00002c50       ??_R2RemapCallback@RTreeCooker@physx@@8 000000018002ec50     TriangleMeshBuilder.obj
 0002:00002c60       ??_R1A@?0A@EA@RemapCallback@RTreeCooker@physx@@8 000000018002ec60     TriangleMeshBuilder.obj
 0002:00002c88       ??_R4TriangleMeshBuilder@physx@@6B@ 000000018002ec88     TriangleMeshBuilder.obj
 0002:00002cb0       ??_R3TriangleMeshBuilder@physx@@8 000000018002ecb0     TriangleMeshBuilder.obj
 0002:00002cc8       ??_R2TriangleMeshBuilder@physx@@8 000000018002ecc8     TriangleMeshBuilder.obj
 0002:00002ce0       ??_R1A@?0A@EA@TriangleMeshBuilder@physx@@8 000000018002ece0     TriangleMeshBuilder.obj
 0002:00002d08       ??_R17?0A@EA@MeshBulider@physx@@8 000000018002ed08     TriangleMeshBuilder.obj
 0002:00002d30       ??_R3MeshBulider@physx@@8  000000018002ed30     TriangleMeshBuilder.obj
 0002:00002d48       ??_R2MeshBulider@physx@@8  000000018002ed48     TriangleMeshBuilder.obj
 0002:00002d58       ??_R1A@?0A@EA@MeshBulider@physx@@8 000000018002ed58     TriangleMeshBuilder.obj
 0002:00002d80       ??_R4RTreeTriangleMeshBuilder@physx@@6B@ 000000018002ed80     TriangleMeshBuilder.obj
 0002:00002da8       ??_R3RTreeTriangleMeshBuilder@physx@@8 000000018002eda8     TriangleMeshBuilder.obj
 0002:00002dc0       ??_R2RTreeTriangleMeshBuilder@physx@@8 000000018002edc0     TriangleMeshBuilder.obj
 0002:00002de0       ??_R1A@?0A@EA@RTreeTriangleMeshBuilder@physx@@8 000000018002ede0     TriangleMeshBuilder.obj
 0002:00002e08       ??_R4BV4TriangleMeshBuilder@physx@@6B@ 000000018002ee08     TriangleMeshBuilder.obj
 0002:00002e30       ??_R3BV4TriangleMeshBuilder@physx@@8 000000018002ee30     TriangleMeshBuilder.obj
 0002:00002e48       ??_R2BV4TriangleMeshBuilder@physx@@8 000000018002ee48     TriangleMeshBuilder.obj
 0002:00002e68       ??_R1A@?0A@EA@BV4TriangleMeshBuilder@physx@@8 000000018002ee68     TriangleMeshBuilder.obj
 0002:00002e90       ??_R4RTreeCookerRemap@physx@@6B@ 000000018002ee90     TriangleMeshBuilder.obj
 0002:00002eb8       ??_R3RTreeCookerRemap@physx@@8 000000018002eeb8     TriangleMeshBuilder.obj
 0002:00002ed0       ??_R2RTreeCookerRemap@physx@@8 000000018002eed0     TriangleMeshBuilder.obj
 0002:00002ee8       ??_R1A@?0A@EA@RTreeCookerRemap@physx@@8 000000018002eee8     TriangleMeshBuilder.obj
 0002:00002f10       ??_R4ConvexHullLib@physx@@6B@ 000000018002ef10     ConvexHullLib.obj
 0002:00002f38       ??_R3ConvexHullLib@physx@@8 000000018002ef38     ConvexHullLib.obj
 0002:00002f50       ??_R2ConvexHullLib@physx@@8 000000018002ef50     ConvexHullLib.obj
 0002:00002f60       ??_R1A@?0A@EA@ConvexHullLib@physx@@8 000000018002ef60     ConvexHullLib.obj
 0002:00002f88       ??_R4QuickHullConvexHullLib@physx@@6B@ 000000018002ef88     QuickHullConvexHullLib.obj
 0002:00002fb0       ??_R3QuickHullConvexHullLib@physx@@8 000000018002efb0     QuickHullConvexHullLib.obj
 0002:00002fc8       ??_R2QuickHullConvexHullLib@physx@@8 000000018002efc8     QuickHullConvexHullLib.obj
 0002:00002fe8       ??_R1A@?0A@EA@QuickHullConvexHullLib@physx@@8 000000018002efe8     QuickHullConvexHullLib.obj
 0002:00003010       ??_R1DI@?0A@EA@UserAllocated@shdfnd@physx@@8 000000018002f010     QuickHullConvexHullLib.obj
 0002:00003038       ??_R4type_info@@6B@        000000018002f038     MSVCRT:std_type_info_static.obj
 0002:00003060       ??_R3type_info@@8          000000018002f060     MSVCRT:std_type_info_static.obj
 0002:00003078       ??_R2type_info@@8          000000018002f078     MSVCRT:std_type_info_static.obj
 0002:00003088       ??_R1A@?0A@EA@type_info@@8 000000018002f088     MSVCRT:std_type_info_static.obj
 0002:000030ac       __volatile_metadata        000000018002f0ac     <linker-defined>
 0002:00003578       __rtc_iaa                  000000018002f578     MSVCRT:initsect.obj
 0002:00003580       __rtc_izz                  000000018002f580     MSVCRT:initsect.obj
 0002:00003588       __rtc_taa                  000000018002f588     MSVCRT:initsect.obj
 0002:00003590       __rtc_tzz                  000000018002f590     MSVCRT:initsect.obj
 0002:00006b90       __DELAY_IMPORT_DESCRIPTOR_physxcommon_64_dll 0000000180032b90     PhysXCommon_64:PhysXCommon_64.dll
 0002:00006bb0       __DELAY_IMPORT_DESCRIPTOR_physxfoundation_64_dll 0000000180032bb0     PhysXFoundation_64:PhysXFoundation_64.dll
 0002:00006bd0       __NULL_DELAY_IMPORT_DESCRIPTOR 0000000180032bd0     PhysXCommon_64:PhysXCommon_64.dll
 0002:00006d10       \177PhysXCommon_64_NULL_THUNK_DATA_DLN 0000000180032d10     PhysXCommon_64:PhysXCommon_64.dll
 0002:00006d70       \177PhysXFoundation_64_NULL_THUNK_DATA_DLN 0000000180032d70     PhysXFoundation_64:PhysXFoundation_64.dll
 0002:000076d0       \177PhysXCommon_64_NULL_THUNK_DATA_DLB 00000001800336d0     PhysXCommon_64:PhysXCommon_64.dll
 0002:000077f8       \177PhysXFoundation_64_NULL_THUNK_DATA_DLB 00000001800337f8     PhysXFoundation_64:PhysXFoundation_64.dll
 0002:00009550       __IMPORT_DESCRIPTOR_KERNEL32 0000000180035550     kernel32:KERNEL32.dll
 0002:00009564       __IMPORT_DESCRIPTOR_VCRUNTIME140 0000000180035564     vcruntime:VCRUNTIME140.dll
 0002:00009578       __IMPORT_DESCRIPTOR_VCRUNTIME140_1 0000000180035578     vcruntime:VCRUNTIME140_1.dll
 0002:0000958c       __IMPORT_DESCRIPTOR_api-ms-win-crt-string-l1-1-0 000000018003558c     ucrt:api-ms-win-crt-string-l1-1-0.dll
 0002:000095a0       __IMPORT_DESCRIPTOR_api-ms-win-crt-math-l1-1-0 00000001800355a0     ucrt:api-ms-win-crt-math-l1-1-0.dll
 0002:000095b4       __IMPORT_DESCRIPTOR_api-ms-win-crt-runtime-l1-1-0 00000001800355b4     ucrt:api-ms-win-crt-runtime-l1-1-0.dll
 0002:000095c8       __IMPORT_DESCRIPTOR_api-ms-win-crt-heap-l1-1-0 00000001800355c8     ucrt:api-ms-win-crt-heap-l1-1-0.dll
 0002:000095dc       __NULL_IMPORT_DESCRIPTOR   00000001800355dc     kernel32:KERNEL32.dll
 0003:00000008       __pfnDliNotifyHook2        0000000180036008     WindowsCookingDelayLoadHook.obj
 0003:00000010       __security_cookie          0000000180036010     MSVCRT:gs_cookie.obj
 0003:00000018       __security_cookie_complement 0000000180036018     MSVCRT:gs_cookie.obj
 0003:00000020       _fltused                   0000000180036020     MSVCRT:fltused.obj
 0003:00000030       __isa_available            0000000180036030     MSVCRT:cpu_disp.obj
 0003:00000034       __isa_enabled              0000000180036034     MSVCRT:cpu_disp.obj
 0003:00000038       __memset_fast_string_threshold 0000000180036038     MSVCRT:cpu_disp.obj
 0003:00000040       __memset_nt_threshold      0000000180036040     MSVCRT:cpu_disp.obj
 0003:00000050       __scrt_native_dllmain_reason 0000000180036050     MSVCRT:utility.obj
 0003:00000060       __scrt_ucrt_dll_is_in_use  0000000180036060     MSVCRT:ucrt_stubs.obj
 0003:00000070       ??_R0?AVAdjEdge@@@8        0000000180036070     Adjacencies.obj
 0003:00000090       ??_R0I@8                   0000000180036090     Adjacencies.obj
 0003:000000a8       ??_R0?AVAdjTriangle@physx@@@8 00000001800360a8     Adjacencies.obj
 0003:000000d0       ??_R0?AVCooking@physx@@@8  00000001800360d0     Cooking.obj
 0003:000000f8       ??_R0?AVHeightField@Gu@physx@@@8 00000001800360f8     Cooking.obj
 0003:00000128       ??_R0?AVQuickHullConvexHullLib@physx@@@8 0000000180036128     Cooking.obj
 0003:00000160       ??_R0?AUPxDebugLine@physx@@@8 0000000180036160     Cooking.obj
 0003:00000188       ??_R0M@8                   0000000180036188     CookingUtils.obj
 0003:000001a0       ??_R0?AUEdgeData@Gu@physx@@@8 00000001800361a0     EdgeList.obj
 0003:000001c8       ??_R0?AUEdgeTriangleData@Gu@physx@@@8 00000001800361c8     EdgeList.obj
 0003:000001f8       ??_R0?AVQuantizerImpl@@@8  00000001800361f8     Quantizer.obj
 0003:00000220       ??_R0?AVPxVec3@physx@@@8   0000000180036220     Quantizer.obj
 0003:00000248       ??_R0?AUSlab@NodeAllocator@Gu@physx@@@8 0000000180036248     BVHStructureBuilder.obj
 0003:00000280       ??_R0?AUInterval@physx@@@8 0000000180036280     RTreeCooking.obj
 0003:000002a8       ??_R0?AURTreeNodeQ@Gu@physx@@@8 00000001800362a8     RTreeCooking.obj
 0003:000002d8       ??_R0?AURTreeNodeNQ@physx@@@8 00000001800362d8     RTreeCooking.obj
 0003:00000300       ??_R0?AUPxBounds3V@physx@@@8 0000000180036300     RTreeCooking.obj
 0003:00000328       ??_R0?AVEdgeListBuilder@Gu@physx@@@8 0000000180036328     TriangleMeshBuilder.obj
 0003:00000358       ??_R0?AVBV32Tree@Gu@physx@@@8 0000000180036358     TriangleMeshBuilder.obj
 0003:00000380       ??_R0E@8                   0000000180036380     TriangleMeshBuilder.obj
 0003:00000398       ??_R0G@8                   0000000180036398     TriangleMeshBuilder.obj
 0003:000003b0       ??_R0?AUEdgeTriLookup@physx@@@8 00000001800363b0     TriangleMeshBuilder.obj
 0003:000003e0       ??_R0?AUEdgeDescData@Gu@physx@@@8 00000001800363e0     ConvexHullBuilder.obj
 0003:00000410       ??_R0_N@8                  0000000180036410     ConvexHullBuilder.obj
 0003:00000428       ??_R0?AVConvexHull@physx@@@8 0000000180036428     ConvexHullUtils.obj
 0003:00000450       ??_R0?AVPxPlane@physx@@@8  0000000180036450     ConvexHullUtils.obj
 0003:00000478       ??_R0?AVHalfEdge@ConvexHull@physx@@@8 0000000180036478     ConvexHullUtils.obj
 0003:000004a8       ??_R0?AVBigConvexData@physx@@@8 00000001800364a8     ConvexMeshBuilder.obj
 0003:000004d8       ??_R0?AUHullTriangleData@physx@@@8 00000001800364d8     ConvexPolygonsBuilder.obj
 0003:00000508       ??_R0?AVPair@@@8           0000000180036508     ConvexPolygonsBuilder.obj
 0003:00000528       ??_R0?AVQuickHull@local@@@8 0000000180036528     QuickHullConvexHullLib.obj
 0003:00000550       ??_R0?AUExpandPoint@local@@@8 0000000180036550     QuickHullConvexHullLib.obj
 0003:00000578       ??_R0PEAUQuickHullVertex@local@@@8 0000000180036578     QuickHullConvexHullLib.obj
 0003:000005a8       ??_R0PEAUQuickHullFace@local@@@8 00000001800365a8     QuickHullConvexHullLib.obj
 0003:000005d8       ??_R0PEAUQuickHullHalfEdge@local@@@8 00000001800365d8     QuickHullConvexHullLib.obj
 0003:00000608       ??_R0?AVPxFoundation@physx@@@8 0000000180036608     Adjacencies.obj
 0003:00000638       ??_R0?AVPxBase@physx@@@8   0000000180036638     Cooking.obj
 0003:00000660       ??_R0?AVPxCooking@physx@@@8 0000000180036660     Cooking.obj
 0003:00000688       ??_R0?AVUserAllocated@shdfnd@physx@@@8 0000000180036688     Cooking.obj
 0003:000006c0       ??_R0?AVQuantizer@physx@@@8 00000001800366c0     Quantizer.obj
 0003:000006e8       ??_R0?AVMeshDataBase@Gu@physx@@@8 00000001800366e8     TriangleMeshBuilder.obj
 0003:00000718       ??_R0?AVTriangleMeshData@Gu@physx@@@8 0000000180036718     TriangleMeshBuilder.obj
 0003:00000748       ??_R0?AVRTreeTriangleData@Gu@physx@@@8 0000000180036748     TriangleMeshBuilder.obj
 0003:00000780       ??_R0?AVBV4TriangleData@Gu@physx@@@8 0000000180036780     TriangleMeshBuilder.obj
 0003:000007b0       ??_R0?AURemapCallback@RTreeCooker@physx@@@8 00000001800367b0     TriangleMeshBuilder.obj
 0003:000007e8       ??_R0?AVTriangleMeshBuilder@physx@@@8 00000001800367e8     TriangleMeshBuilder.obj
 0003:00000818       ??_R0?AVMeshBulider@physx@@@8 0000000180036818     TriangleMeshBuilder.obj
 0003:00000840       ??_R0?AVRTreeTriangleMeshBuilder@physx@@@8 0000000180036840     TriangleMeshBuilder.obj
 0003:00000878       ??_R0?AVBV4TriangleMeshBuilder@physx@@@8 0000000180036878     TriangleMeshBuilder.obj
 0003:000008b0       ??_R0?AURTreeCookerRemap@physx@@@8 00000001800368b0     TriangleMeshBuilder.obj
 0003:000008e0       ??_R0?AVConvexHullLib@physx@@@8 00000001800368e0     ConvexHullLib.obj
 0003:00000910       ??_R0?AVtype_info@@@8      0000000180036910     MSVCRT:std_type_info_static.obj
 0003:00000930       __imp_??0RadixSortBuffered@Cm@physx@@QEAA@XZ 0000000180036930     PhysXCommon_64:PhysXCommon_64.dll
 0003:00000938       __imp_??1BigConvexData@physx@@QEAA@XZ 0000000180036938     PhysXCommon_64:PhysXCommon_64.dll
 0003:00000940       __imp_??1RadixSortBuffered@Cm@physx@@UEAA@XZ 0000000180036940     PhysXCommon_64:PhysXCommon_64.dll
 0003:00000948       __imp_?Sort@RadixSortBuffered@Cm@physx@@QEAAAEAV123@PEBIIW4RadixHint@23@@Z 0000000180036948     PhysXCommon_64:PhysXCommon_64.dll
 0003:00000950       __imp_??0HeightField@Gu@physx@@QEAA@PEAVGuMeshFactory@2@@Z 0000000180036950     PhysXCommon_64:PhysXCommon_64.dll
 0003:00000958       __imp_?loadFromDesc@HeightField@Gu@physx@@QEAA_NAEBVPxHeightFieldDesc@3@@Z 0000000180036958     PhysXCommon_64:PhysXCommon_64.dll
 0003:00000960       __imp_?computeCellCoordinates@HeightField@Gu@physx@@QEBAIMMAEAM0@Z 0000000180036960     PhysXCommon_64:PhysXCommon_64.dll
 0003:00000968       __imp_?releaseMemory@HeightField@Gu@physx@@QEAAXXZ 0000000180036968     PhysXCommon_64:PhysXCommon_64.dll
 0003:00000970       __imp_??1HeightField@Gu@physx@@UEAA@XZ 0000000180036970     PhysXCommon_64:PhysXCommon_64.dll
 0003:00000978       __imp_??0NodeAllocator@Gu@physx@@QEAA@XZ 0000000180036978     PhysXCommon_64:PhysXCommon_64.dll
 0003:00000980       __imp_??1NodeAllocator@Gu@physx@@QEAA@XZ 0000000180036980     PhysXCommon_64:PhysXCommon_64.dll
 0003:00000988       __imp_?release@NodeAllocator@Gu@physx@@QEAAXXZ 0000000180036988     PhysXCommon_64:PhysXCommon_64.dll
 0003:00000990       __imp_?buildAABBTree@Gu@physx@@YA_NAEAVAABBTreeBuildParams@12@AEAVNodeAllocator@12@AEAUBuildStats@12@AEAPEAI@Z 0000000180036990     PhysXCommon_64:PhysXCommon_64.dll
 0003:00000998       __imp_?writeDword@physx@@YAXI_NAEAVPxOutputStream@1@@Z 0000000180036998     PhysXCommon_64:PhysXCommon_64.dll
 0003:000009a0       __imp_?writeFloatBuffer@physx@@YAXPEBMI_NAEAVPxOutputStream@1@@Z 00000001800369a0     PhysXCommon_64:PhysXCommon_64.dll
 0003:000009a8       __imp_?writeHeader@physx@@YA_NCCCCI_NAEAVPxOutputStream@1@@Z 00000001800369a8     PhysXCommon_64:PhysXCommon_64.dll
 0003:000009b0       __imp_?writeWord@physx@@YAXG_NAEAVPxOutputStream@1@@Z 00000001800369b0     PhysXCommon_64:PhysXCommon_64.dll
 0003:000009b8       __imp_?writeFloat@physx@@YAXM_NAEAVPxOutputStream@1@@Z 00000001800369b8     PhysXCommon_64:PhysXCommon_64.dll
 0003:000009c0       __imp_?computeBoundsAroundVertices@Gu@physx@@YAXAEAVPxBounds3@2@IPEIBVPxVec3@2@@Z 00000001800369c0     PhysXCommon_64:PhysXCommon_64.dll
 0003:000009c8       __imp_??0SourceMesh@Gu@physx@@QEAA@XZ 00000001800369c8     PhysXCommon_64:PhysXCommon_64.dll
 0003:000009d0       __imp_??1SourceMesh@Gu@physx@@QEAA@XZ 00000001800369d0     PhysXCommon_64:PhysXCommon_64.dll
 0003:000009d8       __imp_??0BV4Tree@Gu@physx@@QEAA@XZ 00000001800369d8     PhysXCommon_64:PhysXCommon_64.dll
 0003:000009e0       __imp_??1BV4Tree@Gu@physx@@QEAA@XZ 00000001800369e0     PhysXCommon_64:PhysXCommon_64.dll
 0003:000009e8       __imp_??0BV32Tree@Gu@physx@@QEAA@XZ 00000001800369e8     PhysXCommon_64:PhysXCommon_64.dll
 0003:000009f0       __imp_??1BV32Tree@Gu@physx@@QEAA@XZ 00000001800369f0     PhysXCommon_64:PhysXCommon_64.dll
 0003:000009f8       __imp_?writeWordBuffer@physx@@YAXPEBGI_NAEAVPxOutputStream@1@@Z 00000001800369f8     PhysXCommon_64:PhysXCommon_64.dll
 0003:00000a00       __imp_?computeMaxIndex@physx@@YAIPEBII@Z 0000000180036a00     PhysXCommon_64:PhysXCommon_64.dll
 0003:00000a08       __imp_?storeIndices@physx@@YAXIIPEBIAEAVPxOutputStream@1@_N@Z 0000000180036a08     PhysXCommon_64:PhysXCommon_64.dll
 0003:00000a10       __imp_?BuildBV4Ex@Gu@physx@@YA_NAEAVBV4Tree@12@AEAVSourceMesh@12@MI@Z 0000000180036a10     PhysXCommon_64:PhysXCommon_64.dll
 0003:00000a18       __imp_?BuildBV32Ex@Gu@physx@@YA_NAEAVBV32Tree@12@AEAVSourceMesh@12@MI@Z 0000000180036a18     PhysXCommon_64:PhysXCommon_64.dll
 0003:00000a20       __imp_?computeMaxIndex@physx@@YAGPEBGI@Z 0000000180036a20     PhysXCommon_64:PhysXCommon_64.dll
 0003:00000a28       __imp_?WriteHeader@Gu@physx@@YA_NEEEEI_NAEAVPxOutputStream@2@@Z 0000000180036a28     PhysXCommon_64:PhysXCommon_64.dll
 0003:00000a30       __imp_?StoreIndices@Gu@physx@@YAXGIPEBGAEAVPxOutputStream@2@_N@Z 0000000180036a30     PhysXCommon_64:PhysXCommon_64.dll
 0003:00000a38       __imp_?CreateOffsets@BigConvexData@physx@@IEAAXXZ 0000000180036a38     PhysXCommon_64:PhysXCommon_64.dll
 0003:00000a40       __imp_?computeOBBPoints@Gu@physx@@YAXPEIAVPxVec3@2@AEBV32@1111@Z 0000000180036a40     PhysXCommon_64:PhysXCommon_64.dll
 0003:00000a48       __imp_??0BigConvexData@physx@@QEAA@XZ 0000000180036a48     PhysXCommon_64:PhysXCommon_64.dll
 0003:00000a50       \177PhysXCommon_64_NULL_THUNK_DATA_DLA 0000000180036a50     PhysXCommon_64:PhysXCommon_64.dll
 0003:00000a58       __imp_PxGetFoundation      0000000180036a58     PhysXFoundation_64:PhysXFoundation_64.dll
 0003:00000a60       __imp_?deallocate@TempAllocator@shdfnd@physx@@QEAAXPEAX@Z 0000000180036a60     PhysXFoundation_64:PhysXFoundation_64.dll
 0003:00000a68       __imp_?getAllocator@shdfnd@physx@@YAAEAVPxAllocatorCallback@2@XZ 0000000180036a68     PhysXFoundation_64:PhysXFoundation_64.dll
 0003:00000a70       __imp_?getInstance@Foundation@shdfnd@physx@@SAAEAV123@XZ 0000000180036a70     PhysXFoundation_64:PhysXFoundation_64.dll
 0003:00000a78       __imp_?error@Foundation@shdfnd@physx@@QEAAXW4Enum@PxErrorCode@3@PEBDH1ZZ 0000000180036a78     PhysXFoundation_64:PhysXFoundation_64.dll
 0003:00000a80       __imp_?incRefCount@Foundation@shdfnd@physx@@SAXXZ 0000000180036a80     PhysXFoundation_64:PhysXFoundation_64.dll
 0003:00000a88       __imp_?decRefCount@Foundation@shdfnd@physx@@SAXXZ 0000000180036a88     PhysXFoundation_64:PhysXFoundation_64.dll
 0003:00000a90       __imp_??0FPUGuard@shdfnd@physx@@QEAA@XZ 0000000180036a90     PhysXFoundation_64:PhysXFoundation_64.dll
 0003:00000a98       __imp_??1FPUGuard@shdfnd@physx@@QEAA@XZ 0000000180036a98     PhysXFoundation_64:PhysXFoundation_64.dll
 0003:00000aa0       __imp_?allocate@TempAllocator@shdfnd@physx@@QEAAPEAX_KPEBDH@Z 0000000180036aa0     PhysXFoundation_64:PhysXFoundation_64.dll
 0003:00000aa8       __imp_?PxDiagonalize@physx@@YA?AVPxVec3@1@AEBVPxMat33@1@AEAVPxQuat@1@@Z 0000000180036aa8     PhysXFoundation_64:PhysXFoundation_64.dll
 0003:00000ab0       \177PhysXFoundation_64_NULL_THUNK_DATA_DLA 0000000180036ab0     PhysXFoundation_64:PhysXFoundation_64.dll
 0003:00000e88       __hmod__PhysXCommon_64_dll 0000000180036e88     PhysXCommon_64:PhysXCommon_64.dll
 0003:00000e90       __hmod__PhysXFoundation_64_dll 0000000180036e90     PhysXFoundation_64:PhysXFoundation_64.dll
 0003:00000e98       ?DloadKernel32@@3PEAUHINSTANCE__@@EA 0000000180036e98     Delayimp:delayhlp.obj
 0003:00000ea0       ?DloadAcquireSRWLockExclusive@@3P6AXPEA_K@ZEA 0000000180036ea0     Delayimp:delayhlp.obj
 0003:00000ea8       ?DloadReleaseSRWLockExclusive@@3P6AXPEA_K@ZEA 0000000180036ea8     Delayimp:delayhlp.obj
 0003:00000eb0       ?DloadSrwLock@@3_KA        0000000180036eb0     Delayimp:delayhlp.obj
 0003:00000eb8       ?DloadSectionLockCount@@3KA 0000000180036eb8     Delayimp:delayhlp.obj
 0003:00000ebc       ?DloadSectionOldProtection@@3KA 0000000180036ebc     Delayimp:delayhlp.obj
 0003:00000ec0       ?DloadSectionCommitPermanent@@3KA 0000000180036ec0     Delayimp:delayhlp.obj
 0003:00000ed0       ?__type_info_root_node@@3U__type_info_node@@A 0000000180036ed0     MSVCRT:tncleanup.obj
 0003:00001454       __favor                    0000000180037454     MSVCRT:cpu_disp.obj
 0003:00001458       ?_OptionsStorage@?1??__local_stdio_printf_options@@9@4_KA 0000000180037458     MSVCRT:default_local_stdio_options.obj
 0003:00001460       ?_OptionsStorage@?1??__local_stdio_scanf_options@@9@4_KA 0000000180037460     MSVCRT:default_local_stdio_options.obj
 0003:00001468       __scrt_current_native_startup_state 0000000180037468     MSVCRT:utility.obj
 0003:00001470       __scrt_native_startup_lock 0000000180037470     MSVCRT:utility.obj
 0003:000014b0       __scrt_debugger_hook_flag  00000001800374b0     MSVCRT:utility_desktop.obj
 0003:000014b8       __dyn_tls_init_callback    00000001800374b8     <common>
 0005:00000100       __common_ssin_reduction_data 000000018003a100     MSVCRT:svml_s_sin_data.obj
 0005:00000d00       __common_ssin_data         000000018003ad00     MSVCRT:svml_s_sin_data.obj

 entry point at        0001:00028090

 Static symbols

 0000:fffc1000       .debug$S                   0000000180000000     PhysXCooking_64.exp
 0000:fffc1000       .debug$S                   0000000180000000     PhysXCommon_64:PhysXCommon_64.dll
 0000:fffc1000       .debug$S                   0000000180000000     PhysXCommon_64:PhysXCommon_64.dll
 0000:fffc1000       .debug$S                   0000000180000000     PhysXCommon_64:PhysXCommon_64.dll
 0000:fffc1000       .debug$S                   0000000180000000     PhysXCommon_64:PhysXCommon_64.dll
 0000:fffc1000       .debug$S                   0000000180000000     PhysXCommon_64:PhysXCommon_64.dll
 0000:fffc1000       .debug$S                   0000000180000000     PhysXCommon_64:PhysXCommon_64.dll
 0000:fffc1000       .debug$S                   0000000180000000     PhysXCommon_64:PhysXCommon_64.dll
 0000:fffc1000       .debug$S                   0000000180000000     PhysXCommon_64:PhysXCommon_64.dll
 0000:fffc1000       .debug$S                   0000000180000000     PhysXCommon_64:PhysXCommon_64.dll
 0000:fffc1000       .debug$S                   0000000180000000     PhysXCommon_64:PhysXCommon_64.dll
 0000:fffc1000       .debug$S                   0000000180000000     PhysXCommon_64:PhysXCommon_64.dll
 0000:fffc1000       .debug$S                   0000000180000000     PhysXCommon_64:PhysXCommon_64.dll
 0000:fffc1000       .debug$S                   0000000180000000     PhysXCommon_64:PhysXCommon_64.dll
 0000:fffc1000       .debug$S                   0000000180000000     PhysXCommon_64:PhysXCommon_64.dll
 0000:fffc1000       .debug$S                   0000000180000000     PhysXCommon_64:PhysXCommon_64.dll
 0000:fffc1000       .debug$S                   0000000180000000     PhysXCommon_64:PhysXCommon_64.dll
 0000:fffc1000       .debug$S                   0000000180000000     PhysXCommon_64:PhysXCommon_64.dll
 0000:fffc1000       .debug$S                   0000000180000000     PhysXCommon_64:PhysXCommon_64.dll
 0000:fffc1000       .debug$S                   0000000180000000     PhysXCommon_64:PhysXCommon_64.dll
 0000:fffc1000       .debug$S                   0000000180000000     PhysXCommon_64:PhysXCommon_64.dll
 0000:fffc1000       .debug$S                   0000000180000000     PhysXCommon_64:PhysXCommon_64.dll
 0000:fffc1000       .debug$S                   0000000180000000     PhysXCommon_64:PhysXCommon_64.dll
 0000:fffc1000       .debug$S                   0000000180000000     PhysXCommon_64:PhysXCommon_64.dll
 0000:fffc1000       .debug$S                   0000000180000000     PhysXCommon_64:PhysXCommon_64.dll
 0000:fffc1000       .debug$S                   0000000180000000     PhysXCommon_64:PhysXCommon_64.dll
 0000:fffc1000       .debug$S                   0000000180000000     PhysXCommon_64:PhysXCommon_64.dll
 0000:fffc1000       .debug$S                   0000000180000000     PhysXCommon_64:PhysXCommon_64.dll
 0000:fffc1000       .debug$S                   0000000180000000     PhysXCommon_64:PhysXCommon_64.dll
 0000:fffc1000       .debug$S                   0000000180000000     PhysXCommon_64:PhysXCommon_64.dll
 0000:fffc1000       .debug$S                   0000000180000000     PhysXCommon_64:PhysXCommon_64.dll
 0000:fffc1000       .debug$S                   0000000180000000     PhysXCommon_64:PhysXCommon_64.dll
 0000:fffc1000       .debug$S                   0000000180000000     PhysXCommon_64:PhysXCommon_64.dll
 0000:fffc1000       .debug$S                   0000000180000000     PhysXCommon_64:PhysXCommon_64.dll
 0000:fffc1000       .debug$S                   0000000180000000     PhysXCommon_64:PhysXCommon_64.dll
 0000:fffc1000       .debug$S                   0000000180000000     PhysXCommon_64:PhysXCommon_64.dll
 0000:fffc1000       .debug$S                   0000000180000000     PhysXCommon_64:PhysXCommon_64.dll
 0000:fffc1000       .debug$S                   0000000180000000     PhysXCommon_64:PhysXCommon_64.dll
 0000:fffc1000       .debug$S                   0000000180000000     PhysXCommon_64:PhysXCommon_64.dll
 0000:fffc1000       .debug$S                   0000000180000000     PhysXFoundation_64:PhysXFoundation_64.dll
 0000:fffc1000       .debug$S                   0000000180000000     PhysXFoundation_64:PhysXFoundation_64.dll
 0000:fffc1000       .debug$S                   0000000180000000     PhysXFoundation_64:PhysXFoundation_64.dll
 0000:fffc1000       .debug$S                   0000000180000000     PhysXFoundation_64:PhysXFoundation_64.dll
 0000:fffc1000       .debug$S                   0000000180000000     PhysXFoundation_64:PhysXFoundation_64.dll
 0000:fffc1000       .debug$S                   0000000180000000     PhysXFoundation_64:PhysXFoundation_64.dll
 0000:fffc1000       .debug$S                   0000000180000000     PhysXFoundation_64:PhysXFoundation_64.dll
 0000:fffc1000       .debug$S                   0000000180000000     PhysXFoundation_64:PhysXFoundation_64.dll
 0000:fffc1000       .debug$S                   0000000180000000     PhysXFoundation_64:PhysXFoundation_64.dll
 0000:fffc1000       .debug$S                   0000000180000000     PhysXFoundation_64:PhysXFoundation_64.dll
 0000:fffc1000       .debug$S                   0000000180000000     PhysXFoundation_64:PhysXFoundation_64.dll
 0000:fffc1000       .debug$S                   0000000180000000     ucrt:api-ms-win-crt-heap-l1-1-0.dll
 0000:fffc1000       .debug$S                   0000000180000000     ucrt:api-ms-win-crt-math-l1-1-0.dll
 0000:fffc1000       .debug$S                   0000000180000000     ucrt:api-ms-win-crt-math-l1-1-0.dll
 0000:fffc1000       .debug$S                   0000000180000000     ucrt:api-ms-win-crt-math-l1-1-0.dll
 0000:fffc1000       .debug$S                   0000000180000000     ucrt:api-ms-win-crt-math-l1-1-0.dll
 0000:fffc1000       .debug$S                   0000000180000000     ucrt:api-ms-win-crt-runtime-l1-1-0.dll
 0000:fffc1000       .debug$S                   0000000180000000     ucrt:api-ms-win-crt-runtime-l1-1-0.dll
 0000:fffc1000       .debug$S                   0000000180000000     ucrt:api-ms-win-crt-runtime-l1-1-0.dll
 0000:fffc1000       .debug$S                   0000000180000000     ucrt:api-ms-win-crt-runtime-l1-1-0.dll
 0000:fffc1000       .debug$S                   0000000180000000     ucrt:api-ms-win-crt-runtime-l1-1-0.dll
 0000:fffc1000       .debug$S                   0000000180000000     ucrt:api-ms-win-crt-runtime-l1-1-0.dll
 0000:fffc1000       .debug$S                   0000000180000000     ucrt:api-ms-win-crt-runtime-l1-1-0.dll
 0000:fffc1000       .debug$S                   0000000180000000     ucrt:api-ms-win-crt-runtime-l1-1-0.dll
 0000:fffc1000       .debug$S                   0000000180000000     ucrt:api-ms-win-crt-runtime-l1-1-0.dll
 0000:fffc1000       .debug$S                   0000000180000000     ucrt:api-ms-win-crt-runtime-l1-1-0.dll
 0000:fffc1000       .debug$S                   0000000180000000     ucrt:api-ms-win-crt-runtime-l1-1-0.dll
 0000:fffc1000       .debug$S                   0000000180000000     ucrt:api-ms-win-crt-runtime-l1-1-0.dll
 0000:fffc1000       .debug$S                   0000000180000000     ucrt:api-ms-win-crt-string-l1-1-0.dll
 0000:fffc1000       .debug$S                   0000000180000000     kernel32:KERNEL32.dll
 0000:fffc1000       .debug$S                   0000000180000000     kernel32:KERNEL32.dll
 0000:fffc1000       .debug$S                   0000000180000000     kernel32:KERNEL32.dll
 0000:fffc1000       .debug$S                   0000000180000000     kernel32:KERNEL32.dll
 0000:fffc1000       .debug$S                   0000000180000000     kernel32:KERNEL32.dll
 0000:fffc1000       .debug$S                   0000000180000000     kernel32:KERNEL32.dll
 0000:fffc1000       .debug$S                   0000000180000000     kernel32:KERNEL32.dll
 0000:fffc1000       .debug$S                   0000000180000000     kernel32:KERNEL32.dll
 0000:fffc1000       .debug$S                   0000000180000000     kernel32:KERNEL32.dll
 0000:fffc1000       .debug$S                   0000000180000000     kernel32:KERNEL32.dll
 0000:fffc1000       .debug$S                   0000000180000000     kernel32:KERNEL32.dll
 0000:fffc1000       .debug$S                   0000000180000000     kernel32:KERNEL32.dll
 0000:fffc1000       .debug$S                   0000000180000000     kernel32:KERNEL32.dll
 0000:fffc1000       .debug$S                   0000000180000000     kernel32:KERNEL32.dll
 0000:fffc1000       .debug$S                   0000000180000000     kernel32:KERNEL32.dll
 0000:fffc1000       .debug$S                   0000000180000000     kernel32:KERNEL32.dll
 0000:fffc1000       .debug$S                   0000000180000000     kernel32:KERNEL32.dll
 0000:fffc1000       .debug$S                   0000000180000000     kernel32:KERNEL32.dll
 0000:fffc1000       .debug$S                   0000000180000000     kernel32:KERNEL32.dll
 0000:fffc1000       .debug$S                   0000000180000000     kernel32:KERNEL32.dll
 0000:fffc1000       .debug$S                   0000000180000000     kernel32:KERNEL32.dll
 0000:fffc1000       .debug$S                   0000000180000000     kernel32:KERNEL32.dll
 0000:fffc1000       .debug$S                   0000000180000000     kernel32:KERNEL32.dll
 0000:fffc1000       .debug$S                   0000000180000000     kernel32:KERNEL32.dll
 0000:fffc1000       .debug$S                   0000000180000000     kernel32:KERNEL32.dll
 0000:fffc1000       .debug$S                   0000000180000000     kernel32:KERNEL32.dll
 0000:fffc1000       .debug$S                   0000000180000000     vcruntime:VCRUNTIME140.dll
 0000:fffc1000       .debug$S                   0000000180000000     vcruntime:VCRUNTIME140.dll
 0000:fffc1000       .debug$S                   0000000180000000     vcruntime:VCRUNTIME140.dll
 0000:fffc1000       .debug$S                   0000000180000000     vcruntime:VCRUNTIME140.dll
 0000:fffc1000       .debug$S                   0000000180000000     vcruntime:VCRUNTIME140.dll
 0000:fffc1000       .debug$S                   0000000180000000     vcruntime:VCRUNTIME140.dll
 0000:fffc1000       .debug$S                   0000000180000000     vcruntime:VCRUNTIME140.dll
 0000:fffc1000       .debug$S                   0000000180000000     vcruntime:VCRUNTIME140.dll
 0000:fffc1000       .debug$S                   0000000180000000     vcruntime:VCRUNTIME140.dll
 0000:fffc1000       .debug$S                   0000000180000000     vcruntime:VCRUNTIME140.dll
 0000:fffc1000       .debug$S                   0000000180000000     vcruntime:VCRUNTIME140_1.dll
 0001:00000000       ??__EmaxFError@_VecMathTests@aos@shdfnd@physx@@YAXXZ 0000000180001000 f   Cooking.obj
 0001:00000010       ??__EmaxV3Error@_VecMathTests@aos@shdfnd@physx@@YAXXZ 0000000180001010 f   Cooking.obj
 0001:00000020       ??__EmaxV4Error@_VecMathTests@aos@shdfnd@physx@@YAXXZ 0000000180001020 f   Cooking.obj
 0001:00000030       ??__EminFError@_VecMathTests@aos@shdfnd@physx@@YAXXZ 0000000180001030 f   Cooking.obj
 0001:00000040       ??__EminV3Error@_VecMathTests@aos@shdfnd@physx@@YAXXZ 0000000180001040 f   Cooking.obj
 0001:00000050       ??__EminV4Error@_VecMathTests@aos@shdfnd@physx@@YAXXZ 0000000180001050 f   Cooking.obj
 0001:00000060       ??__EmaxFError@_VecMathTests@aos@shdfnd@physx@@YAXXZ 0000000180001060 f   BVHStructureBuilder.obj
 0001:00000070       ??__EmaxV3Error@_VecMathTests@aos@shdfnd@physx@@YAXXZ 0000000180001070 f   BVHStructureBuilder.obj
 0001:00000080       ??__EmaxV4Error@_VecMathTests@aos@shdfnd@physx@@YAXXZ 0000000180001080 f   BVHStructureBuilder.obj
 0001:00000090       ??__EminFError@_VecMathTests@aos@shdfnd@physx@@YAXXZ 0000000180001090 f   BVHStructureBuilder.obj
 0001:000000a0       ??__EminV3Error@_VecMathTests@aos@shdfnd@physx@@YAXXZ 00000001800010a0 f   BVHStructureBuilder.obj
 0001:000000b0       ??__EminV4Error@_VecMathTests@aos@shdfnd@physx@@YAXXZ 00000001800010b0 f   BVHStructureBuilder.obj
 0001:000000c0       ??__EmaxFError@_VecMathTests@aos@shdfnd@physx@@YAXXZ 00000001800010c0 f   RTreeCooking.obj
 0001:000000d0       ??__EmaxV3Error@_VecMathTests@aos@shdfnd@physx@@YAXXZ 00000001800010d0 f   RTreeCooking.obj
 0001:000000e0       ??__EmaxV4Error@_VecMathTests@aos@shdfnd@physx@@YAXXZ 00000001800010e0 f   RTreeCooking.obj
 0001:000000f0       ??__EminFError@_VecMathTests@aos@shdfnd@physx@@YAXXZ 00000001800010f0 f   RTreeCooking.obj
 0001:00000100       ??__EminV3Error@_VecMathTests@aos@shdfnd@physx@@YAXXZ 0000000180001100 f   RTreeCooking.obj
 0001:00000110       ??__EminV4Error@_VecMathTests@aos@shdfnd@physx@@YAXXZ 0000000180001110 f   RTreeCooking.obj
 0001:00000120       ??__EmaxFError@_VecMathTests@aos@shdfnd@physx@@YAXXZ 0000000180001120 f   MeshBuilder.obj
 0001:00000130       ??__EmaxV3Error@_VecMathTests@aos@shdfnd@physx@@YAXXZ 0000000180001130 f   MeshBuilder.obj
 0001:00000140       ??__EmaxV4Error@_VecMathTests@aos@shdfnd@physx@@YAXXZ 0000000180001140 f   MeshBuilder.obj
 0001:00000150       ??__EminFError@_VecMathTests@aos@shdfnd@physx@@YAXXZ 0000000180001150 f   MeshBuilder.obj
 0001:00000160       ??__EminV3Error@_VecMathTests@aos@shdfnd@physx@@YAXXZ 0000000180001160 f   MeshBuilder.obj
 0001:00000170       ??__EminV4Error@_VecMathTests@aos@shdfnd@physx@@YAXXZ 0000000180001170 f   MeshBuilder.obj
 0001:00000180       ??__EmaxFError@_VecMathTests@aos@shdfnd@physx@@YAXXZ 0000000180001180 f   TriangleMeshBuilder.obj
 0001:00000190       ??__EmaxV3Error@_VecMathTests@aos@shdfnd@physx@@YAXXZ 0000000180001190 f   TriangleMeshBuilder.obj
 0001:000001a0       ??__EmaxV4Error@_VecMathTests@aos@shdfnd@physx@@YAXXZ 00000001800011a0 f   TriangleMeshBuilder.obj
 0001:000001b0       ??__EminFError@_VecMathTests@aos@shdfnd@physx@@YAXXZ 00000001800011b0 f   TriangleMeshBuilder.obj
 0001:000001c0       ??__EminV3Error@_VecMathTests@aos@shdfnd@physx@@YAXXZ 00000001800011c0 f   TriangleMeshBuilder.obj
 0001:000001d0       ??__EminV4Error@_VecMathTests@aos@shdfnd@physx@@YAXXZ 00000001800011d0 f   TriangleMeshBuilder.obj
 0001:000001e0       ??__EmaxFError@_VecMathTests@aos@shdfnd@physx@@YAXXZ 00000001800011e0 f   BigConvexDataBuilder.obj
 0001:000001f0       ??__EmaxV3Error@_VecMathTests@aos@shdfnd@physx@@YAXXZ 00000001800011f0 f   BigConvexDataBuilder.obj
 0001:00000200       ??__EmaxV4Error@_VecMathTests@aos@shdfnd@physx@@YAXXZ 0000000180001200 f   BigConvexDataBuilder.obj
 0001:00000210       ??__EminFError@_VecMathTests@aos@shdfnd@physx@@YAXXZ 0000000180001210 f   BigConvexDataBuilder.obj
 0001:00000220       ??__EminV3Error@_VecMathTests@aos@shdfnd@physx@@YAXXZ 0000000180001220 f   BigConvexDataBuilder.obj
 0001:00000230       ??__EminV4Error@_VecMathTests@aos@shdfnd@physx@@YAXXZ 0000000180001230 f   BigConvexDataBuilder.obj
 0001:00000240       ??__EmaxFError@_VecMathTests@aos@shdfnd@physx@@YAXXZ 0000000180001240 f   ConvexHullBuilder.obj
 0001:00000250       ??__EmaxV3Error@_VecMathTests@aos@shdfnd@physx@@YAXXZ 0000000180001250 f   ConvexHullBuilder.obj
 0001:00000260       ??__EmaxV4Error@_VecMathTests@aos@shdfnd@physx@@YAXXZ 0000000180001260 f   ConvexHullBuilder.obj
 0001:00000270       ??__EminFError@_VecMathTests@aos@shdfnd@physx@@YAXXZ 0000000180001270 f   ConvexHullBuilder.obj
 0001:00000280       ??__EminV3Error@_VecMathTests@aos@shdfnd@physx@@YAXXZ 0000000180001280 f   ConvexHullBuilder.obj
 0001:00000290       ??__EminV4Error@_VecMathTests@aos@shdfnd@physx@@YAXXZ 0000000180001290 f   ConvexHullBuilder.obj
 0001:000002a0       ??__EmaxFError@_VecMathTests@aos@shdfnd@physx@@YAXXZ 00000001800012a0 f   ConvexHullUtils.obj
 0001:000002b0       ??__EmaxV3Error@_VecMathTests@aos@shdfnd@physx@@YAXXZ 00000001800012b0 f   ConvexHullUtils.obj
 0001:000002c0       ??__EmaxV4Error@_VecMathTests@aos@shdfnd@physx@@YAXXZ 00000001800012c0 f   ConvexHullUtils.obj
 0001:000002d0       ??__EminFError@_VecMathTests@aos@shdfnd@physx@@YAXXZ 00000001800012d0 f   ConvexHullUtils.obj
 0001:000002e0       ??__EminV3Error@_VecMathTests@aos@shdfnd@physx@@YAXXZ 00000001800012e0 f   ConvexHullUtils.obj
 0001:000002f0       ??__EminV4Error@_VecMathTests@aos@shdfnd@physx@@YAXXZ 00000001800012f0 f   ConvexHullUtils.obj
 0001:00000300       ??__EmaxFError@_VecMathTests@aos@shdfnd@physx@@YAXXZ 0000000180001300 f   ConvexMeshBuilder.obj
 0001:00000310       ??__EmaxV3Error@_VecMathTests@aos@shdfnd@physx@@YAXXZ 0000000180001310 f   ConvexMeshBuilder.obj
 0001:00000320       ??__EmaxV4Error@_VecMathTests@aos@shdfnd@physx@@YAXXZ 0000000180001320 f   ConvexMeshBuilder.obj
 0001:00000330       ??__EminFError@_VecMathTests@aos@shdfnd@physx@@YAXXZ 0000000180001330 f   ConvexMeshBuilder.obj
 0001:00000340       ??__EminV3Error@_VecMathTests@aos@shdfnd@physx@@YAXXZ 0000000180001340 f   ConvexMeshBuilder.obj
 0001:00000350       ??__EminV4Error@_VecMathTests@aos@shdfnd@physx@@YAXXZ 0000000180001350 f   ConvexMeshBuilder.obj
 0001:00000360       ??__EmaxFError@_VecMathTests@aos@shdfnd@physx@@YAXXZ 0000000180001360 f   VolumeIntegration.obj
 0001:00000370       ??__EmaxV3Error@_VecMathTests@aos@shdfnd@physx@@YAXXZ 0000000180001370 f   VolumeIntegration.obj
 0001:00000380       ??__EmaxV4Error@_VecMathTests@aos@shdfnd@physx@@YAXXZ 0000000180001380 f   VolumeIntegration.obj
 0001:00000390       ??__EminFError@_VecMathTests@aos@shdfnd@physx@@YAXXZ 0000000180001390 f   VolumeIntegration.obj
 0001:000003a0       ??__EminV3Error@_VecMathTests@aos@shdfnd@physx@@YAXXZ 00000001800013a0 f   VolumeIntegration.obj
 0001:000003b0       ??__EminV4Error@_VecMathTests@aos@shdfnd@physx@@YAXXZ 00000001800013b0 f   VolumeIntegration.obj
 0001:000005d0       ?AddTriangle@@YAXIIIIPEAVAdjTriangle@physx@@AEAIPEAVAdjEdge@@@Z 00000001800015d0 f   Adjacencies.obj
 0001:00000750       ?CreateDatabase@@YA_NPEAVAdjTriangle@physx@@IPEBVAdjEdge@@AEBUADJACENCIESCREATE@2@@Z 0000000180001750 f   Adjacencies.obj
 0001:00000da0       ?UpdateLink@@YA_NIIIIPEAVAdjTriangle@physx@@AEBUADJACENCIESCREATE@2@@Z 0000000180001da0 f   Adjacencies.obj
 0001:000094e0       ?buildFromBounds@physx@@YAXAEAURTree@Gu@1@PEBUPxBounds3V@1@IAEAV?$Array@IV?$ReflectionAllocator@I@shdfnd@physx@@@shdfnd@1@PEAURemapCallback@RTreeCooker@1@AEAT__m128@@4MW4Enum@PxMeshCookingHint@1@@Z 000000018000a4e0 f   RTreeCooking.obj
 0001:0000d5a0       ?buildAdjacencies@physx@@YAXPEAUuint4@1@PEAVPxVec3@1@PEBV31@PEBUuint3@1@I@Z 000000018000e5a0 f   TriangleMeshBuilder.obj
 0001:0000ece0       ?findAdjacent@physx@@YAIPEBVPxVec3@1@0PEBUuint3@1@IIIAEBVPxPlane@1@PEAUEdgeTriLookup@1@I@Z 000000018000fce0 f   TriangleMeshBuilder.obj
 0001:000135f0       ?checkPointsAABBValidity@local@@YA_NIPEBVPxVec3@physx@@IMMAEAV23@1AEAIPEAV23@_N@Z 00000001800145f0 f   ConvexHullLib.obj
 0001:00018ab0       ?ComputeInternalExtent@@YAXAEAUConvexHullData@Gu@physx@@PEBUHullPolygonData@23@@Z 0000000180019ab0 f   ConvexMeshBuilder.obj
 0001:00019f00       ?CheckFloodFillFace@Local@?7??extractHullPolygons@@YA_NAEAIAEAV?$Array@IV?$ReflectionAllocator@I@shdfnd@physx@@@shdfnd@physx@@AEBVConvexPolygonsBuilder@5@PEAV345@1@Z@SA_NIPEBVAdjTriangle@5@PEBI@Z 000000018001af00 f   ConvexPolygonsBuilder.obj
 0001:0001a4f0       ?FloodFill@Local@?7??extractHullPolygons@@YA_NAEAIAEAV?$Array@IV?$ReflectionAllocator@I@shdfnd@physx@@@shdfnd@physx@@AEBVConvexPolygonsBuilder@5@PEAV345@1@Z@SAX1PEBVAdjTriangle@5@IPEA_N@Z 000000018001b4f0 f   ConvexPolygonsBuilder.obj
 0001:0001a5d0       ?TestDuplicateTriangles@@YA_NAEAIPEAU?$TriangleT@I@Gu@physx@@_N@Z 000000018001b5d0 f   ConvexPolygonsBuilder.obj
 0001:0001a7b0       ?checkRedundantVertices@@YAXAEAIAEAV?$Array@IV?$ReflectionAllocator@I@shdfnd@physx@@@shdfnd@physx@@AEBVConvexPolygonsBuilder@3@11@Z 000000018001b7b0 f   ConvexPolygonsBuilder.obj
 0001:0001d4c0       ?extractHullPolygons@@YA_NAEAIAEAV?$Array@IV?$ReflectionAllocator@I@shdfnd@physx@@@shdfnd@physx@@AEBVConvexPolygonsBuilder@3@PEAV123@1@Z 000000018001e4c0 f   ConvexPolygonsBuilder.obj
 0001:0001df60       ?findLineStrip@@YA_NAEAV?$Array@IV?$ReflectionAllocator@I@shdfnd@physx@@@shdfnd@physx@@AEBV?$Array@VPair@@V?$ReflectionAllocator@VPair@@@shdfnd@physx@@@23@@Z 000000018001ef60 f   ConvexPolygonsBuilder.obj
 0001:00025ab0       ?computeVolumeIntegrals@VolumeIntegratorEberly@?A0x262ec646@physx@@QEAA_NAEAUPxIntegrals@3@AEBVPxVec3@3@@Z 0000000180026ab0 f   VolumeIntegration.obj
 0001:00026570       ?computeVolumeIntegralsSIMD@VolumeIntegratorEberly@?A0x262ec646@physx@@QEAA_NAEAUPxIntegrals@3@AEBVPxVec3@3@@Z 0000000180027570 f   VolumeIntegration.obj
 0001:00026c40       $LN24                      0000000180027c40     WindowsCookingDelayLoadHook.obj
 0001:00027900       $$000000                   0000000180028900     MSVCRT:amdsecgs.obj
 0001:00027980       $$000000                   0000000180028980     MSVCRT:chkstk.obj
 0001:00027c1c       capture_current_context    0000000180028c1c f   MSVCRT:gs_report.obj
 0001:00027c8c       capture_previous_context   0000000180028c8c f   MSVCRT:gs_report.obj
 0001:00027d00       $$000000                   0000000180028d00     MSVCRT:svml_ssinf4_dispatch.obj
 0001:00027d70       ?dllmain_crt_dispatch@@YAHQEAUHINSTANCE__@@KQEAX@Z 0000000180028d70 f   MSVCRT:dll_dllmain.obj
 0001:00027dc0       ?dllmain_crt_process_attach@@YAHQEAUHINSTANCE__@@QEAX@Z 0000000180028dc0 f   MSVCRT:dll_dllmain.obj
 0001:00027ed8       ?dllmain_crt_process_detach@@YAH_N@Z 0000000180028ed8 f   MSVCRT:dll_dllmain.obj
 0001:00027f5c       ?dllmain_dispatch@@YAHQEAUHINSTANCE__@@KQEAX@Z 0000000180028f5c f   MSVCRT:dll_dllmain.obj
 0001:00028280       $$000000                   0000000180029280     MSVCRT:svml_ssinf4_sse2.obj
 0001:00028bc0       $$000000                   0000000180029bc0     MSVCRT:svml_ssinf4_sse4.obj
 0001:00029930       $$000000                   000000018002a930     MSVCRT:svml_s_sin_cout.obj
 0001:00029a50       $$000000                   000000018002aa50     MSVCRT:guard_dispatch.obj
 0001:00029a70       $$000000                   000000018002aa70     MSVCRT:guard_xfg_dispatch.obj
 0001:00029a90       ?dtor$0@?0??CreateDatabase@@YA_NPEAVAdjTriangle@physx@@IPEBVAdjEdge@@AEBUADJACENCIESCREATE@2@@Z@4HA 000000018002aa90 f   Adjacencies.obj
 0001:00029a90       ?dtor$0@?0??createFacesToEdges@EdgeListBuilder@Gu@physx@@AEAA_NIPEBIPEBG@Z@4HA 000000018002aa90 f   EdgeList.obj
 0001:00029aa0       ?dtor$0@?0??Init@AdjacenciesBuilder@physx@@QEAA_NAEBUADJACENCIESCREATE@2@@Z@4HA 000000018002aaa0 f   Adjacencies.obj
 0001:00029ad0       ?dtor$1@?0??Init@AdjacenciesBuilder@physx@@QEAA_NAEBUADJACENCIESCREATE@2@@Z@4HA 000000018002aad0 f   Adjacencies.obj
 0001:00029b00       ?dtor$2@?0??Init@AdjacenciesBuilder@physx@@QEAA_NAEBUADJACENCIESCREATE@2@@Z@4HA 000000018002ab00 f   Adjacencies.obj
 0001:00029b10       ?dtor$0@?0??computeHullPolygons@Cooking@physx@@UEBA_NAEBVPxSimpleTriangleMesh@2@AEAVPxAllocatorCallback@2@AEAIAEAPEAVPxVec3@2@2AEAPEAI2AEAPEAUPxHullPolygon@2@@Z@4HA 000000018002ab10 f   Cooking.obj
 0001:00029b20       ?dtor$0@?0??cookBVHStructure@Cooking@physx@@UEBA_NAEBVPxBVHStructureDesc@2@AEAVPxOutputStream@2@@Z@4HA 000000018002ab20 f   Cooking.obj
 0001:00029b30       ?dtor$1@?0??cookBVHStructure@Cooking@physx@@UEBA_NAEBVPxBVHStructureDesc@2@AEAVPxOutputStream@2@@Z@4HA 000000018002ab30 f   Cooking.obj
 0001:00029b30       ?dtor$1@?0??createBVHStructure@Cooking@physx@@UEBAPEAVPxBVHStructure@2@AEBVPxBVHStructureDesc@2@AEAVPxPhysicsInsertionCallback@2@@Z@4HA 000000018002ab30 f   Cooking.obj
 0001:00029b40       ?dtor$0@?0??cookConvexMesh@Cooking@physx@@UEBA_NAEBVPxConvexMeshDesc@2@AEAVPxOutputStream@2@PEAW4Enum@PxConvexMeshCookingResult@2@@Z@4HA 000000018002ab40 f   Cooking.obj
 0001:00029b40       ?dtor$0@?0??createConvexMesh@Cooking@physx@@UEBAPEAVPxConvexMesh@2@AEBVPxConvexMeshDesc@2@AEAVPxPhysicsInsertionCallback@2@PEAW4Enum@PxConvexMeshCookingResult@2@@Z@4HA 000000018002ab40 f   Cooking.obj
 0001:00029b50       ?dtor$1@?0??cookConvexMesh@Cooking@physx@@UEBA_NAEBVPxConvexMeshDesc@2@AEAVPxOutputStream@2@PEAW4Enum@PxConvexMeshCookingResult@2@@Z@4HA 000000018002ab50 f   Cooking.obj
 0001:00029b80       ?dtor$2@?0??cookConvexMesh@Cooking@physx@@UEBA_NAEBVPxConvexMeshDesc@2@AEAVPxOutputStream@2@PEAW4Enum@PxConvexMeshCookingResult@2@@Z@4HA 000000018002ab80 f   Cooking.obj
 0001:00029b80       ?dtor$2@?0??createConvexMesh@Cooking@physx@@UEBAPEAVPxConvexMesh@2@AEBVPxConvexMeshDesc@2@AEAVPxPhysicsInsertionCallback@2@PEAW4Enum@PxConvexMeshCookingResult@2@@Z@4HA 000000018002ab80 f   Cooking.obj
 0001:00029b90       ?dtor$0@?0??cookHeightField@Cooking@physx@@UEBA_NAEBVPxHeightFieldDesc@2@AEAVPxOutputStream@2@@Z@4HA 000000018002ab90 f   Cooking.obj
 0001:00029ba0       ?dtor$1@?0??cookHeightField@Cooking@physx@@UEBA_NAEBVPxHeightFieldDesc@2@AEAVPxOutputStream@2@@Z@4HA 000000018002aba0 f   Cooking.obj
 0001:00029bb0       ?dtor$0@?0??cookTriangleMesh@Cooking@physx@@UEBA_NAEBVPxTriangleMeshDesc@2@AEAVPxOutputStream@2@PEAW4Enum@PxTriangleMeshCookingResult@2@@Z@4HA 000000018002abb0 f   Cooking.obj
 0001:00029bc0       ?dtor$1@?0??cookTriangleMesh@Cooking@physx@@UEBA_NAEBVPxTriangleMeshDesc@2@AEAVPxOutputStream@2@PEAW4Enum@PxTriangleMeshCookingResult@2@@Z@4HA 000000018002abc0 f   Cooking.obj
 0001:00029bd0       ?dtor$2@?0??cookTriangleMesh@Cooking@physx@@UEBA_NAEBVPxTriangleMeshDesc@2@AEAVPxOutputStream@2@PEAW4Enum@PxTriangleMeshCookingResult@2@@Z@4HA 000000018002abd0 f   Cooking.obj
 0001:00029bd0       ?dtor$3@?0??cookTriangleMesh@Cooking@physx@@UEBA_NAEBVPxTriangleMeshDesc@2@AEAVPxOutputStream@2@PEAW4Enum@PxTriangleMeshCookingResult@2@@Z@4HA 000000018002abd0 f   Cooking.obj
 0001:00029be0       ?dtor$0@?0??createBVHStructure@Cooking@physx@@UEBAPEAVPxBVHStructure@2@AEBVPxBVHStructureDesc@2@AEAVPxPhysicsInsertionCallback@2@@Z@4HA 000000018002abe0 f   Cooking.obj
 0001:00029bf0       ?dtor$1@?0??createConvexMesh@Cooking@physx@@UEBAPEAVPxConvexMesh@2@AEBVPxConvexMeshDesc@2@AEAVPxPhysicsInsertionCallback@2@PEAW4Enum@PxConvexMeshCookingResult@2@@Z@4HA 000000018002abf0 f   Cooking.obj
 0001:00029c20       ?dtor$0@?0??createHeightField@Cooking@physx@@UEBAPEAVPxHeightField@2@AEBVPxHeightFieldDesc@2@AEAVPxPhysicsInsertionCallback@2@@Z@4HA 000000018002ac20 f   Cooking.obj
 0001:00029c30       ?dtor$1@?0??createHeightField@Cooking@physx@@UEBAPEAVPxHeightField@2@AEBVPxHeightFieldDesc@2@AEAVPxPhysicsInsertionCallback@2@@Z@4HA 000000018002ac30 f   Cooking.obj
 0001:00029c60       ?dtor$0@?0??createTriangleMesh@Cooking@physx@@UEBAPEAVPxTriangleMesh@2@AEBVPxTriangleMeshDesc@2@AEAVPxPhysicsInsertionCallback@2@PEAW4Enum@PxTriangleMeshCookingResult@2@@Z@4HA 000000018002ac60 f   Cooking.obj
 0001:00029c70       ?dtor$1@?0??createTriangleMesh@Cooking@physx@@UEBAPEAVPxTriangleMesh@2@AEBVPxTriangleMeshDesc@2@AEAVPxPhysicsInsertionCallback@2@PEAW4Enum@PxTriangleMeshCookingResult@2@@Z@4HA 000000018002ac70 f   Cooking.obj
 0001:00029c80       ?dtor$2@?0??createTriangleMesh@Cooking@physx@@UEBAPEAVPxTriangleMesh@2@AEBVPxTriangleMeshDesc@2@AEAVPxPhysicsInsertionCallback@2@PEAW4Enum@PxTriangleMeshCookingResult@2@@Z@4HA 000000018002ac80 f   Cooking.obj
 0001:00029c80       ?dtor$3@?0??createTriangleMesh@Cooking@physx@@UEBAPEAVPxTriangleMesh@2@AEBVPxTriangleMeshDesc@2@AEAVPxPhysicsInsertionCallback@2@PEAW4Enum@PxTriangleMeshCookingResult@2@@Z@4HA 000000018002ac80 f   Cooking.obj
 0001:00029c90       ?dtor$0@?0??validateConvexMesh@Cooking@physx@@UEBA_NAEBVPxConvexMeshDesc@2@@Z@4HA 000000018002ac90 f   Cooking.obj
 0001:00029ca0       ?dtor$0@?0??validateTriangleMesh@Cooking@physx@@UEBA_NAEBVPxTriangleMeshDesc@2@@Z@4HA 000000018002aca0 f   Cooking.obj
 0001:00029cb0       ?dtor$1@?0??validateTriangleMesh@Cooking@physx@@UEBA_NAEBVPxTriangleMeshDesc@2@@Z@4HA 000000018002acb0 f   Cooking.obj
 0001:00029cc0       ?dtor$0@?0??Reduce@ReducedVertexCloud@physx@@QEAA_NPEAUREDUCEDCLOUD@2@@Z@4HA 000000018002acc0 f   CookingUtils.obj
 0001:00029cd0       ?dtor$0@?0??loadFromDesc@BVHStructureBuilder@physx@@QEAA_NAEBVPxBVHStructureDesc@2@@Z@4HA 000000018002acd0 f   BVHStructureBuilder.obj
 0001:00029ce0       ?dtor$1@?0??loadFromDesc@BVHStructureBuilder@physx@@QEAA_NAEBVPxBVHStructureDesc@2@@Z@4HA 000000018002ace0 f   BVHStructureBuilder.obj
 0001:00029cf0       ?dtor$0@?0???$sort@IU?$Less@I@shdfnd@physx@@V?$ReflectionAllocator@I@23@@shdfnd@physx@@YAXPEAIIAEBU?$Less@I@01@AEBV?$ReflectionAllocator@I@01@I@Z@4HA 000000018002acf0 f   RTreeCooking.obj
 0001:00029cf0       ?dtor$0@?0???$sort@UEdgeTriLookup@physx@@U?$Less@UEdgeTriLookup@physx@@@shdfnd@2@V?$ReflectionAllocator@UEdgeTriLookup@physx@@@42@@shdfnd@physx@@YAXPEAUEdgeTriLookup@1@IAEBU?$Less@UEdgeTriLookup@physx@@@01@AEBV?$ReflectionAllocator@UEdgeTriLookup@physx@@@01@I@Z@4HA 000000018002acf0 f   TriangleMeshBuilder.obj
 0001:00029d00       ?dtor$1@?0???$sort@IU?$Less@I@shdfnd@physx@@V?$ReflectionAllocator@I@23@@shdfnd@physx@@YAXPEAIIAEBU?$Less@I@01@AEBV?$ReflectionAllocator@I@01@I@Z@4HA 000000018002ad00 f   RTreeCooking.obj
 0001:00029d00       ?dtor$1@?0???$sort@UEdgeTriLookup@physx@@U?$Less@UEdgeTriLookup@physx@@@shdfnd@2@V?$ReflectionAllocator@UEdgeTriLookup@physx@@@42@@shdfnd@physx@@YAXPEAUEdgeTriLookup@1@IAEBU?$Less@UEdgeTriLookup@physx@@@01@AEBV?$ReflectionAllocator@UEdgeTriLookup@physx@@@01@I@Z@4HA 000000018002ad00 f   TriangleMeshBuilder.obj
 0001:00029d10       ?dtor$0@?0???$sort@IUSortBoundsPredicate@physx@@V?$ReflectionAllocator@I@shdfnd@2@@shdfnd@physx@@YAXPEAIIAEBUSortBoundsPredicate@1@AEBV?$ReflectionAllocator@I@01@I@Z@4HA 000000018002ad10 f   RTreeCooking.obj
 0001:00029d20       ?dtor$1@?0???$sort@IUSortBoundsPredicate@physx@@V?$ReflectionAllocator@I@shdfnd@2@@shdfnd@physx@@YAXPEAIIAEBUSortBoundsPredicate@1@AEBV?$ReflectionAllocator@I@01@I@Z@4HA 000000018002ad20 f   RTreeCooking.obj
 0001:00029d30       ?dtor$0@?0??buildFromBounds@physx@@YAXAEAURTree@Gu@1@PEBUPxBounds3V@1@IAEAV?$Array@IV?$ReflectionAllocator@I@shdfnd@physx@@@shdfnd@1@PEAURemapCallback@RTreeCooker@1@AEAT__m128@@4MW4Enum@PxMeshCookingHint@1@@Z@4HA 000000018002ad30 f   RTreeCooking.obj
 0001:00029d40       ?dtor$1@?0??buildFromBounds@physx@@YAXAEAURTree@Gu@1@PEBUPxBounds3V@1@IAEAV?$Array@IV?$ReflectionAllocator@I@shdfnd@physx@@@shdfnd@1@PEAURemapCallback@RTreeCooker@1@AEAT__m128@@4MW4Enum@PxMeshCookingHint@1@@Z@4HA 000000018002ad40 f   RTreeCooking.obj
 0001:00029d50       ?dtor$2@?0??buildFromBounds@physx@@YAXAEAURTree@Gu@1@PEBUPxBounds3V@1@IAEAV?$Array@IV?$ReflectionAllocator@I@shdfnd@physx@@@shdfnd@1@PEAURemapCallback@RTreeCooker@1@AEAT__m128@@4MW4Enum@PxMeshCookingHint@1@@Z@4HA 000000018002ad50 f   RTreeCooking.obj
 0001:00029d60       ?dtor$3@?0??buildFromBounds@physx@@YAXAEAURTree@Gu@1@PEBUPxBounds3V@1@IAEAV?$Array@IV?$ReflectionAllocator@I@shdfnd@physx@@@shdfnd@1@PEAURemapCallback@RTreeCooker@1@AEAT__m128@@4MW4Enum@PxMeshCookingHint@1@@Z@4HA 000000018002ad60 f   RTreeCooking.obj
 0001:00029d70       ?dtor$4@?0??buildFromBounds@physx@@YAXAEAURTree@Gu@1@PEBUPxBounds3V@1@IAEAV?$Array@IV?$ReflectionAllocator@I@shdfnd@physx@@@shdfnd@1@PEAURemapCallback@RTreeCooker@1@AEAT__m128@@4MW4Enum@PxMeshCookingHint@1@@Z@4HA 000000018002ad70 f   RTreeCooking.obj
 0001:00029d80       ?dtor$2@?0??extractHullPolygons@@YA_NAEAIAEAV?$Array@IV?$ReflectionAllocator@I@shdfnd@physx@@@shdfnd@physx@@AEBVConvexPolygonsBuilder@3@PEAV123@1@Z@4HA 000000018002ad80 f   ConvexPolygonsBuilder.obj
 0001:00029d80       ?dtor$5@?0??buildFromBounds@physx@@YAXAEAURTree@Gu@1@PEBUPxBounds3V@1@IAEAV?$Array@IV?$ReflectionAllocator@I@shdfnd@physx@@@shdfnd@1@PEAURemapCallback@RTreeCooker@1@AEAT__m128@@4MW4Enum@PxMeshCookingHint@1@@Z@4HA 000000018002ad80 f   RTreeCooking.obj
 0001:00029d80       ?dtor$9@?0??buildFromBounds@physx@@YAXAEAURTree@Gu@1@PEBUPxBounds3V@1@IAEAV?$Array@IV?$ReflectionAllocator@I@shdfnd@physx@@@shdfnd@1@PEAURemapCallback@RTreeCooker@1@AEAT__m128@@4MW4Enum@PxMeshCookingHint@1@@Z@4HA 000000018002ad80 f   RTreeCooking.obj
 0001:00029d90       ?dtor$6@?0??buildFromBounds@physx@@YAXAEAURTree@Gu@1@PEBUPxBounds3V@1@IAEAV?$Array@IV?$ReflectionAllocator@I@shdfnd@physx@@@shdfnd@1@PEAURemapCallback@RTreeCooker@1@AEAT__m128@@4MW4Enum@PxMeshCookingHint@1@@Z@4HA 000000018002ad90 f   RTreeCooking.obj
 0001:00029da0       ?dtor$7@?0??buildFromBounds@physx@@YAXAEAURTree@Gu@1@PEBUPxBounds3V@1@IAEAV?$Array@IV?$ReflectionAllocator@I@shdfnd@physx@@@shdfnd@1@PEAURemapCallback@RTreeCooker@1@AEAT__m128@@4MW4Enum@PxMeshCookingHint@1@@Z@4HA 000000018002ada0 f   RTreeCooking.obj
 0001:00029db0       ?dtor$8@?0??buildFromBounds@physx@@YAXAEAURTree@Gu@1@PEBUPxBounds3V@1@IAEAV?$Array@IV?$ReflectionAllocator@I@shdfnd@physx@@@shdfnd@1@PEAURemapCallback@RTreeCooker@1@AEAT__m128@@4MW4Enum@PxMeshCookingHint@1@@Z@4HA 000000018002adb0 f   RTreeCooking.obj
 0001:00029dc0       ?dtor$17@?0??buildFromBounds@physx@@YAXAEAURTree@Gu@1@PEBUPxBounds3V@1@IAEAV?$Array@IV?$ReflectionAllocator@I@shdfnd@physx@@@shdfnd@1@PEAURemapCallback@RTreeCooker@1@AEAT__m128@@4MW4Enum@PxMeshCookingHint@1@@Z@4HA 000000018002adc0 f   RTreeCooking.obj
 0001:00029dd0       ?dtor$0@?0??createPolygonData@ConvexPolygonsBuilder@physx@@AEAA_NXZ@4HA 000000018002add0 f   ConvexPolygonsBuilder.obj
 0001:00029dd0       ?dtor$0@?0??buildFromTriangles@RTreeCooker@physx@@SAXAEAURTree@Gu@2@PEBVPxVec3@2@IPEBGPEBIIAEAV?$Array@IV?$ReflectionAllocator@I@shdfnd@physx@@@shdfnd@2@PEAURemapCallback@12@MW4Enum@PxMeshCookingHint@2@@Z@4HA 000000018002add0 f   RTreeCooking.obj
 0001:00029dd0       ?dtor$0@?0??createMidPhaseStructure@RTreeTriangleMeshBuilder@physx@@UEAAXXZ@4HA 000000018002add0 f   TriangleMeshBuilder.obj
 0001:00029de0       ?dtor$0@?0??sort4@SubSortSAH@physx@@QEAAXPEAIIAEAV?$Array@URTreeNodeNQ@physx@@V?$ReflectionAllocator@URTreeNodeNQ@physx@@@shdfnd@2@@shdfnd@2@AEAIIPEAURTreeNodeNQ@2@@Z@4HA 000000018002ade0 f   RTreeCooking.obj
 0001:00029df0       ?dtor$1@?0??sort4@SubSortSAH@physx@@QEAAXPEAIIAEAV?$Array@URTreeNodeNQ@physx@@V?$ReflectionAllocator@URTreeNodeNQ@physx@@@shdfnd@2@@shdfnd@2@AEAIIPEAURTreeNodeNQ@2@@Z@4HA 000000018002adf0 f   RTreeCooking.obj
 0001:00029e00       ?dtor$0@?0???0BV4TriangleMeshBuilder@physx@@QEAA@AEBUPxCookingParams@1@@Z@4HA 000000018002ae00 f   TriangleMeshBuilder.obj
 0001:00029e10       ?dtor$2@?0???0BV4TriangleMeshBuilder@physx@@QEAA@AEBUPxCookingParams@1@@Z@4HA 000000018002ae10 f   TriangleMeshBuilder.obj
 0001:00029e20       ?dtor$3@?0???0BV4TriangleMeshBuilder@physx@@QEAA@AEBUPxCookingParams@1@@Z@4HA 000000018002ae20 f   TriangleMeshBuilder.obj
 0001:00029e40       ?dtor$0@?0??computeHullPolygons@ConvexPolygonsBuilder@physx@@QEAA_NAEBIPEBVPxVec3@2@0PEBI@Z@4HA 000000018002ae40 f   ConvexPolygonsBuilder.obj
 0001:00029e40       ?dtor$0@?0??cleanMesh@TriangleMeshBuilder@physx@@QEAA_N_NPEAW4Enum@PxTriangleMeshCookingResult@2@@Z@4HA 000000018002ae40 f   TriangleMeshBuilder.obj
 0001:00029e50       ?dtor$0@?0??createGRBMidPhaseAndData@TriangleMeshBuilder@physx@@QEAAXI@Z@4HA 000000018002ae50 f   TriangleMeshBuilder.obj
 0001:00029e80       ?dtor$0@?0??createMidPhaseStructure@BV32TriangleMeshBuilder@physx@@SAXAEBUPxCookingParams@2@AEAVTriangleMeshData@Gu@2@AEAVBV32Tree@52@@Z@4HA 000000018002ae80 f   TriangleMeshBuilder.obj
 0001:00029e90       ?dtor$1@?0??createMidPhaseStructure@RTreeTriangleMeshBuilder@physx@@UEAAXXZ@4HA 000000018002ae90 f   TriangleMeshBuilder.obj
 0001:00029ea0       ?dtor$0@?0??createSharedEdgeData@TriangleMeshBuilder@physx@@QEAAX_N0@Z@4HA 000000018002aea0 f   TriangleMeshBuilder.obj
 0001:00029ed0       ?dtor$0@?0??createEdgeList@ConvexHullBuilder@physx@@QEAA_N_NI@Z@4HA 000000018002aed0 f   ConvexHullBuilder.obj
 0001:00029ee0       ?dtor$0@?0???0ConvexHull@physx@@QEAA@AEBVPxVec3@1@AEBVPxTransform@1@AEBV?$Array@VPxPlane@physx@@V?$ReflectionAllocator@VPxPlane@physx@@@shdfnd@2@@shdfnd@1@@Z@4HA 000000018002aee0 f   ConvexHullUtils.obj
 0001:00029ef0       ?dtor$1@?0???0ConvexHull@physx@@QEAA@AEBVPxVec3@1@AEBVPxTransform@1@AEBV?$Array@VPxPlane@physx@@V?$ReflectionAllocator@VPxPlane@physx@@@shdfnd@2@@shdfnd@1@@Z@4HA 000000018002aef0 f   ConvexHullUtils.obj
 0001:00029f00       ?dtor$2@?0???0ConvexHull@physx@@QEAA@AEBVPxVec3@1@AEBVPxTransform@1@AEBV?$Array@VPxPlane@physx@@V?$ReflectionAllocator@VPxPlane@physx@@@shdfnd@2@@shdfnd@1@@Z@4HA 000000018002af00 f   ConvexHullUtils.obj
 0001:00029f10       ?dtor$0@?0??convexHullCrop@physx@@YAPEAVConvexHull@1@AEBV21@AEBVPxPlane@1@M@Z@4HA 000000018002af10 f   ConvexHullUtils.obj
 0001:00029f10       ?dtor$2@?0??createPolygonData@ConvexPolygonsBuilder@physx@@AEAA_NXZ@4HA 000000018002af10 f   ConvexPolygonsBuilder.obj
 0001:00029f20       ?dtor$1@?0??convexHullCrop@physx@@YAPEAVConvexHull@1@AEBV21@AEBVPxPlane@1@M@Z@4HA 000000018002af20 f   ConvexHullUtils.obj
 0001:00029f50       ?dtor$3@?0??convexHullCrop@physx@@YAPEAVConvexHull@1@AEBV21@AEBVPxPlane@1@M@Z@4HA 000000018002af50 f   ConvexHullUtils.obj
 0001:00029f60       ?dtor$4@?0??convexHullCrop@physx@@YAPEAVConvexHull@1@AEBV21@AEBVPxPlane@1@M@Z@4HA 000000018002af60 f   ConvexHullUtils.obj
 0001:00029f70       ?dtor$5@?0??convexHullCrop@physx@@YAPEAVConvexHull@1@AEBV21@AEBVPxPlane@1@M@Z@4HA 000000018002af70 f   ConvexHullUtils.obj
 0001:00029f80       ?dtor$0@?0??build@ConvexMeshBuilder@physx@@QEAA_NAEBVPxConvexMeshDesc@2@I_NPEAVConvexHullLib@2@@Z@4HA 000000018002af80 f   ConvexMeshBuilder.obj
 0001:00029fb0       ?dtor$1@?0??build@ConvexMeshBuilder@physx@@QEAA_NAEBVPxConvexMeshDesc@2@I_NPEAVConvexHullLib@2@@Z@4HA 000000018002afb0 f   ConvexMeshBuilder.obj
 0001:00029fc0       ?dtor$0@?0??save@ConvexMeshBuilder@physx@@QEBA_NAEAVPxOutputStream@2@_N@Z@4HA 000000018002afc0 f   ConvexMeshBuilder.obj
 0001:00029fd0       ?dtor$0@?0??TestDuplicateTriangles@@YA_NAEAIPEAU?$TriangleT@I@Gu@physx@@_N@Z@4HA 000000018002afd0 f   ConvexPolygonsBuilder.obj
 0001:00029fe0       ?dtor$0@?0??checkRedundantVertices@@YAXAEAIAEAV?$Array@IV?$ReflectionAllocator@I@shdfnd@physx@@@shdfnd@physx@@AEBVConvexPolygonsBuilder@3@11@Z@4HA 000000018002afe0 f   ConvexPolygonsBuilder.obj
 0001:00029ff0       ?dtor$1@?0??checkRedundantVertices@@YAXAEAIAEAV?$Array@IV?$ReflectionAllocator@I@shdfnd@physx@@@shdfnd@physx@@AEBVConvexPolygonsBuilder@3@11@Z@4HA 000000018002aff0 f   ConvexPolygonsBuilder.obj
 0001:0002a000       ?dtor$2@?0??checkRedundantVertices@@YAXAEAIAEAV?$Array@IV?$ReflectionAllocator@I@shdfnd@physx@@@shdfnd@physx@@AEBVConvexPolygonsBuilder@3@11@Z@4HA 000000018002b000 f   ConvexPolygonsBuilder.obj
 0001:0002a000       ?dtor$0@?0??expandHull@QuickHullConvexHullLib@physx@@IEAA?AW4Enum@PxConvexMeshCookingResult@2@XZ@4HA 000000018002b000 f   QuickHullConvexHullLib.obj
 0001:0002a010       ?dtor$1@?0??createPolygonData@ConvexPolygonsBuilder@physx@@AEAA_NXZ@4HA 000000018002b010 f   ConvexPolygonsBuilder.obj
 0001:0002a010       ?dtor$3@?0??extractHullPolygons@@YA_NAEAIAEAV?$Array@IV?$ReflectionAllocator@I@shdfnd@physx@@@shdfnd@physx@@AEBVConvexPolygonsBuilder@3@PEAV123@1@Z@4HA 000000018002b010 f   ConvexPolygonsBuilder.obj
 0001:0002a020       ?dtor$0@?0??extractHullPolygons@@YA_NAEAIAEAV?$Array@IV?$ReflectionAllocator@I@shdfnd@physx@@@shdfnd@physx@@AEBVConvexPolygonsBuilder@3@PEAV123@1@Z@4HA 000000018002b020 f   ConvexPolygonsBuilder.obj
 0001:0002a030       ?dtor$1@?0??extractHullPolygons@@YA_NAEAIAEAV?$Array@IV?$ReflectionAllocator@I@shdfnd@physx@@@shdfnd@physx@@AEBVConvexPolygonsBuilder@3@PEAV123@1@Z@4HA 000000018002b030 f   ConvexPolygonsBuilder.obj
 0001:0002a030       ?dtor$0@?0??expandHullOBB@QuickHullConvexHullLib@physx@@IEAA?AW4Enum@PxConvexMeshCookingResult@2@XZ@4HA 000000018002b030 f   QuickHullConvexHullLib.obj
 0001:0002a040       ?dtor$0@?0??findLineStrip@@YA_NAEAV?$Array@IV?$ReflectionAllocator@I@shdfnd@physx@@@shdfnd@physx@@AEBV?$Array@VPair@@V?$ReflectionAllocator@VPair@@@shdfnd@physx@@@23@@Z@4HA 000000018002b040 f   ConvexPolygonsBuilder.obj
 0001:0002a040       ?dtor$0@?0??postMergeHull@QuickHull@local@@IEAAXXZ@4HA 000000018002b040 f   QuickHullConvexHullLib.obj
 0001:0002a050       ?dtor$0@?0???0QuickHullConvexHullLib@physx@@QEAA@AEBVPxConvexMeshDesc@1@AEBUPxCookingParams@1@@Z@4HA 000000018002b050 f   QuickHullConvexHullLib.obj
 0001:0002a060       ?dtor$0@?0??canMergeFaces@QuickHull@local@@IEAA_NAEBUQuickHullHalfEdge@2@@Z@4HA 000000018002b060 f   QuickHullConvexHullLib.obj
 0001:0002a070       ?dtor$1@?0??expandHull@QuickHullConvexHullLib@physx@@IEAA?AW4Enum@PxConvexMeshCookingResult@2@XZ@4HA 000000018002b070 f   QuickHullConvexHullLib.obj
 0001:0002a080       ?dtor$1@?0??expandHullOBB@QuickHullConvexHullLib@physx@@IEAA?AW4Enum@PxConvexMeshCookingResult@2@XZ@4HA 000000018002b080 f   QuickHullConvexHullLib.obj
 0001:0002a0af       ?fin$0@?0???_L@YAXPEAX_K1P6AX0@Z2@Z@4HA 000000018002b0af f   MSVCRT:ehvecctr.obj
 0001:0002a0db       ?fin$0@?0???_M@YAXPEAX_K1P6AX0@Z@Z@4HA 000000018002b0db f   MSVCRT:ehvecdtr.obj
 0001:0002a107       ?filt$0@?0??__ArrayUnwind@@YAXPEAX_K1P6AX0@Z@Z@4HA 000000018002b107 f   MSVCRT:ehvecdtr.obj
 0001:0002a166       ?fin$0@?0??dllmain_crt_process_attach@@YAHQEAUHINSTANCE__@@QEAX@Z@4HA 000000018002b166 f   MSVCRT:dll_dllmain.obj
 0001:0002a17d       ?fin$0@?0??dllmain_crt_process_detach@@YAH_N@Z@4HA 000000018002b17d f   MSVCRT:dll_dllmain.obj
 0001:0002a196       ?fin$1@?0??dllmain_crt_process_detach@@YAH_N@Z@4HA 000000018002b196 f   MSVCRT:dll_dllmain.obj
 0001:0002a1aa       ?filt$0@?0??dllmain_dispatch@@YAHQEAUHINSTANCE__@@KQEAX@Z@4HA 000000018002b1aa f   MSVCRT:dll_dllmain.obj
 0001:0002a1e0       __scrt_is_nonwritable_in_current_image$filt$0 000000018002b1e0 f   MSVCRT:utility.obj
 0002:00000200       ?minFError$initializer$@_VecMathTests@aos@shdfnd@physx@@3P6AXXZEA 000000018002c200     Cooking.obj
 0002:00000208       ?maxFError$initializer$@_VecMathTests@aos@shdfnd@physx@@3P6AXXZEA 000000018002c208     Cooking.obj
 0002:00000210       ?minV3Error$initializer$@_VecMathTests@aos@shdfnd@physx@@3P6AXXZEA 000000018002c210     Cooking.obj
 0002:00000218       ?maxV3Error$initializer$@_VecMathTests@aos@shdfnd@physx@@3P6AXXZEA 000000018002c218     Cooking.obj
 0002:00000220       ?minV4Error$initializer$@_VecMathTests@aos@shdfnd@physx@@3P6AXXZEA 000000018002c220     Cooking.obj
 0002:00000228       ?maxV4Error$initializer$@_VecMathTests@aos@shdfnd@physx@@3P6AXXZEA 000000018002c228     Cooking.obj
 0002:00000230       ?minFError$initializer$@_VecMathTests@aos@shdfnd@physx@@3P6AXXZEA 000000018002c230     BVHStructureBuilder.obj
 0002:00000238       ?maxFError$initializer$@_VecMathTests@aos@shdfnd@physx@@3P6AXXZEA 000000018002c238     BVHStructureBuilder.obj
 0002:00000240       ?minV3Error$initializer$@_VecMathTests@aos@shdfnd@physx@@3P6AXXZEA 000000018002c240     BVHStructureBuilder.obj
 0002:00000248       ?maxV3Error$initializer$@_VecMathTests@aos@shdfnd@physx@@3P6AXXZEA 000000018002c248     BVHStructureBuilder.obj
 0002:00000250       ?minV4Error$initializer$@_VecMathTests@aos@shdfnd@physx@@3P6AXXZEA 000000018002c250     BVHStructureBuilder.obj
 0002:00000258       ?maxV4Error$initializer$@_VecMathTests@aos@shdfnd@physx@@3P6AXXZEA 000000018002c258     BVHStructureBuilder.obj
 0002:00000260       ?minFError$initializer$@_VecMathTests@aos@shdfnd@physx@@3P6AXXZEA 000000018002c260     RTreeCooking.obj
 0002:00000268       ?maxFError$initializer$@_VecMathTests@aos@shdfnd@physx@@3P6AXXZEA 000000018002c268     RTreeCooking.obj
 0002:00000270       ?minV3Error$initializer$@_VecMathTests@aos@shdfnd@physx@@3P6AXXZEA 000000018002c270     RTreeCooking.obj
 0002:00000278       ?maxV3Error$initializer$@_VecMathTests@aos@shdfnd@physx@@3P6AXXZEA 000000018002c278     RTreeCooking.obj
 0002:00000280       ?minV4Error$initializer$@_VecMathTests@aos@shdfnd@physx@@3P6AXXZEA 000000018002c280     RTreeCooking.obj
 0002:00000288       ?maxV4Error$initializer$@_VecMathTests@aos@shdfnd@physx@@3P6AXXZEA 000000018002c288     RTreeCooking.obj
 0002:00000290       ?minFError$initializer$@_VecMathTests@aos@shdfnd@physx@@3P6AXXZEA 000000018002c290     MeshBuilder.obj
 0002:00000298       ?maxFError$initializer$@_VecMathTests@aos@shdfnd@physx@@3P6AXXZEA 000000018002c298     MeshBuilder.obj
 0002:000002a0       ?minV3Error$initializer$@_VecMathTests@aos@shdfnd@physx@@3P6AXXZEA 000000018002c2a0     MeshBuilder.obj
 0002:000002a8       ?maxV3Error$initializer$@_VecMathTests@aos@shdfnd@physx@@3P6AXXZEA 000000018002c2a8     MeshBuilder.obj
 0002:000002b0       ?minV4Error$initializer$@_VecMathTests@aos@shdfnd@physx@@3P6AXXZEA 000000018002c2b0     MeshBuilder.obj
 0002:000002b8       ?maxV4Error$initializer$@_VecMathTests@aos@shdfnd@physx@@3P6AXXZEA 000000018002c2b8     MeshBuilder.obj
 0002:000002c0       ?minFError$initializer$@_VecMathTests@aos@shdfnd@physx@@3P6AXXZEA 000000018002c2c0     TriangleMeshBuilder.obj
 0002:000002c8       ?maxFError$initializer$@_VecMathTests@aos@shdfnd@physx@@3P6AXXZEA 000000018002c2c8     TriangleMeshBuilder.obj
 0002:000002d0       ?minV3Error$initializer$@_VecMathTests@aos@shdfnd@physx@@3P6AXXZEA 000000018002c2d0     TriangleMeshBuilder.obj
 0002:000002d8       ?maxV3Error$initializer$@_VecMathTests@aos@shdfnd@physx@@3P6AXXZEA 000000018002c2d8     TriangleMeshBuilder.obj
 0002:000002e0       ?minV4Error$initializer$@_VecMathTests@aos@shdfnd@physx@@3P6AXXZEA 000000018002c2e0     TriangleMeshBuilder.obj
 0002:000002e8       ?maxV4Error$initializer$@_VecMathTests@aos@shdfnd@physx@@3P6AXXZEA 000000018002c2e8     TriangleMeshBuilder.obj
 0002:000002f0       ?minFError$initializer$@_VecMathTests@aos@shdfnd@physx@@3P6AXXZEA 000000018002c2f0     BigConvexDataBuilder.obj
 0002:000002f8       ?maxFError$initializer$@_VecMathTests@aos@shdfnd@physx@@3P6AXXZEA 000000018002c2f8     BigConvexDataBuilder.obj
 0002:00000300       ?minV3Error$initializer$@_VecMathTests@aos@shdfnd@physx@@3P6AXXZEA 000000018002c300     BigConvexDataBuilder.obj
 0002:00000308       ?maxV3Error$initializer$@_VecMathTests@aos@shdfnd@physx@@3P6AXXZEA 000000018002c308     BigConvexDataBuilder.obj
 0002:00000310       ?minV4Error$initializer$@_VecMathTests@aos@shdfnd@physx@@3P6AXXZEA 000000018002c310     BigConvexDataBuilder.obj
 0002:00000318       ?maxV4Error$initializer$@_VecMathTests@aos@shdfnd@physx@@3P6AXXZEA 000000018002c318     BigConvexDataBuilder.obj
 0002:00000320       ?minFError$initializer$@_VecMathTests@aos@shdfnd@physx@@3P6AXXZEA 000000018002c320     ConvexHullBuilder.obj
 0002:00000328       ?maxFError$initializer$@_VecMathTests@aos@shdfnd@physx@@3P6AXXZEA 000000018002c328     ConvexHullBuilder.obj
 0002:00000330       ?minV3Error$initializer$@_VecMathTests@aos@shdfnd@physx@@3P6AXXZEA 000000018002c330     ConvexHullBuilder.obj
 0002:00000338       ?maxV3Error$initializer$@_VecMathTests@aos@shdfnd@physx@@3P6AXXZEA 000000018002c338     ConvexHullBuilder.obj
 0002:00000340       ?minV4Error$initializer$@_VecMathTests@aos@shdfnd@physx@@3P6AXXZEA 000000018002c340     ConvexHullBuilder.obj
 0002:00000348       ?maxV4Error$initializer$@_VecMathTests@aos@shdfnd@physx@@3P6AXXZEA 000000018002c348     ConvexHullBuilder.obj
 0002:00000350       ?minFError$initializer$@_VecMathTests@aos@shdfnd@physx@@3P6AXXZEA 000000018002c350     ConvexHullUtils.obj
 0002:00000358       ?maxFError$initializer$@_VecMathTests@aos@shdfnd@physx@@3P6AXXZEA 000000018002c358     ConvexHullUtils.obj
 0002:00000360       ?minV3Error$initializer$@_VecMathTests@aos@shdfnd@physx@@3P6AXXZEA 000000018002c360     ConvexHullUtils.obj
 0002:00000368       ?maxV3Error$initializer$@_VecMathTests@aos@shdfnd@physx@@3P6AXXZEA 000000018002c368     ConvexHullUtils.obj
 0002:00000370       ?minV4Error$initializer$@_VecMathTests@aos@shdfnd@physx@@3P6AXXZEA 000000018002c370     ConvexHullUtils.obj
 0002:00000378       ?maxV4Error$initializer$@_VecMathTests@aos@shdfnd@physx@@3P6AXXZEA 000000018002c378     ConvexHullUtils.obj
 0002:00000380       ?minFError$initializer$@_VecMathTests@aos@shdfnd@physx@@3P6AXXZEA 000000018002c380     ConvexMeshBuilder.obj
 0002:00000388       ?maxFError$initializer$@_VecMathTests@aos@shdfnd@physx@@3P6AXXZEA 000000018002c388     ConvexMeshBuilder.obj
 0002:00000390       ?minV3Error$initializer$@_VecMathTests@aos@shdfnd@physx@@3P6AXXZEA 000000018002c390     ConvexMeshBuilder.obj
 0002:00000398       ?maxV3Error$initializer$@_VecMathTests@aos@shdfnd@physx@@3P6AXXZEA 000000018002c398     ConvexMeshBuilder.obj
 0002:000003a0       ?minV4Error$initializer$@_VecMathTests@aos@shdfnd@physx@@3P6AXXZEA 000000018002c3a0     ConvexMeshBuilder.obj
 0002:000003a8       ?maxV4Error$initializer$@_VecMathTests@aos@shdfnd@physx@@3P6AXXZEA 000000018002c3a8     ConvexMeshBuilder.obj
 0002:000003b0       ?minFError$initializer$@_VecMathTests@aos@shdfnd@physx@@3P6AXXZEA 000000018002c3b0     VolumeIntegration.obj
 0002:000003b8       ?maxFError$initializer$@_VecMathTests@aos@shdfnd@physx@@3P6AXXZEA 000000018002c3b8     VolumeIntegration.obj
 0002:000003c0       ?minV3Error$initializer$@_VecMathTests@aos@shdfnd@physx@@3P6AXXZEA 000000018002c3c0     VolumeIntegration.obj
 0002:000003c8       ?maxV3Error$initializer$@_VecMathTests@aos@shdfnd@physx@@3P6AXXZEA 000000018002c3c8     VolumeIntegration.obj
 0002:000003d0       ?minV4Error$initializer$@_VecMathTests@aos@shdfnd@physx@@3P6AXXZEA 000000018002c3d0     VolumeIntegration.obj
 0002:000003d8       ?maxV4Error$initializer$@_VecMathTests@aos@shdfnd@physx@@3P6AXXZEA 000000018002c3d8     VolumeIntegration.obj
 0002:00000580       ?minus1w@?A0xc5cdb117@aos@shdfnd@physx@@3QBMB 000000018002c580     Cooking.obj
 0002:00000590       ?gMaskXYZ@internalWindowsSimd@aos@shdfnd@physx@@3QBIB 000000018002c590     Cooking.obj
 0002:00000e00       ?minus1w@?A0xa96e43b6@aos@shdfnd@physx@@3QBMB 000000018002ce00     BVHStructureBuilder.obj
 0002:00000e10       ?gMaskXYZ@internalWindowsSimd@aos@shdfnd@physx@@3QBIB 000000018002ce10     BVHStructureBuilder.obj
 0002:00000eb0       ?gMaskXYZ@internalWindowsSimd@aos@shdfnd@physx@@3QBIB 000000018002ceb0     RTreeCooking.obj
 0002:00000f00       ?minus1w@?A0x54f653dd@aos@shdfnd@physx@@3QBMB 000000018002cf00     RTreeCooking.obj
 0002:00000f10       ?stopAtTrisPerPage@physx@@3QBIB 000000018002cf10     RTreeCooking.obj
 0002:00000f50       ?stopAtTrisPerLeaf@physx@@3QBIB 000000018002cf50     RTreeCooking.obj
 0002:00001150       ?minus1w@?A0x7957af8d@aos@shdfnd@physx@@3QBMB 000000018002d150     MeshBuilder.obj
 0002:00001160       ?gMaskXYZ@internalWindowsSimd@aos@shdfnd@physx@@3QBIB 000000018002d160     MeshBuilder.obj
 0002:00001180       ?minus1w@?A0x43375bbe@aos@shdfnd@physx@@3QBMB 000000018002d180     TriangleMeshBuilder.obj
 0002:00001190       ?gMaskXYZ@internalWindowsSimd@aos@shdfnd@physx@@3QBIB 000000018002d190     TriangleMeshBuilder.obj
 0002:00001600       ?minus1w@?A0x3642cf43@aos@shdfnd@physx@@3QBMB 000000018002d600     BigConvexDataBuilder.obj
 0002:00001610       ?gMaskXYZ@internalWindowsSimd@aos@shdfnd@physx@@3QBIB 000000018002d610     BigConvexDataBuilder.obj
 0002:000016b0       ?minus1w@?A0xa7c0d562@aos@shdfnd@physx@@3QBMB 000000018002d6b0     ConvexHullBuilder.obj
 0002:000016c0       ?gMaskXYZ@internalWindowsSimd@aos@shdfnd@physx@@3QBIB 000000018002d6c0     ConvexHullBuilder.obj
 0002:00001b80       ?minus1w@?A0xc8b153d3@aos@shdfnd@physx@@3QBMB 000000018002db80     ConvexHullUtils.obj
 0002:00001b90       ?gMaskXYZ@internalWindowsSimd@aos@shdfnd@physx@@3QBIB 000000018002db90     ConvexHullUtils.obj
 0002:00001c60       ?minus1w@?A0x69647537@aos@shdfnd@physx@@3QBMB 000000018002dc60     ConvexMeshBuilder.obj
 0002:00001c70       ?gMaskXYZ@internalWindowsSimd@aos@shdfnd@physx@@3QBIB 000000018002dc70     ConvexMeshBuilder.obj
 0002:00002260       ?minus1w@?A0x262ec646@aos@shdfnd@physx@@3QBMB 000000018002e260     VolumeIntegration.obj
 0002:00002270       ?gMaskXYZ@internalWindowsSimd@aos@shdfnd@physx@@3QBIB 000000018002e270     VolumeIntegration.obj
 0002:000023e0       GS_ExceptionPointers       000000018002e3e0     MSVCRT:gs_report.obj
 0002:000023f0       L_abs_mask                 000000018002e3f0     MSVCRT:svml_ssinf4_dispatch.obj
 0002:00002400       L_real_one                 000000018002e400     MSVCRT:svml_ssinf4_dispatch.obj
 0002:00002410       L_one_half                 000000018002e410     MSVCRT:svml_ssinf4_dispatch.obj
 0002:00002420       L_two_to_neg_13            000000018002e420     MSVCRT:svml_ssinf4_dispatch.obj
 0002:00002430       L_pi_over_two              000000018002e430     MSVCRT:svml_ssinf4_dispatch.obj
 0002:00002440       L_pi_over_two2             000000018002e440     MSVCRT:svml_ssinf4_dispatch.obj
 0002:00003598       $unwind$??_EPxFoundation@physx@@MEAAPEAXI@Z 000000018002f598     Adjacencies.obj
 0002:000035b0       $cppxdata$??_EPxFoundation@physx@@MEAAPEAXI@Z 000000018002f5b0     Adjacencies.obj
 0002:000035b5       $ip2state$??_EPxFoundation@physx@@MEAAPEAXI@Z 000000018002f5b5     Adjacencies.obj
 0002:000035b8       $unwind$??1AdjacenciesBuilder@physx@@QEAA@XZ 000000018002f5b8     Adjacencies.obj
 0002:000035cc       $cppxdata$??1AdjacenciesBuilder@physx@@QEAA@XZ 000000018002f5cc     Adjacencies.obj
 0002:000035d5       $stateUnwindMap$??1AdjacenciesBuilder@physx@@QEAA@XZ 000000018002f5d5     Adjacencies.obj
 0002:000035e1       $ip2state$??1AdjacenciesBuilder@physx@@QEAA@XZ 000000018002f5e1     Adjacencies.obj
 0002:000035e8       $unwind$?Init@AdjacenciesBuilder@physx@@QEAA_NAEBUADJACENCIESCREATE@2@@Z 000000018002f5e8     Adjacencies.obj
 0002:0000360c       $cppxdata$?Init@AdjacenciesBuilder@physx@@QEAA_NAEBUADJACENCIESCREATE@2@@Z 000000018002f60c     Adjacencies.obj
 0002:00003615       $stateUnwindMap$?Init@AdjacenciesBuilder@physx@@QEAA_NAEBUADJACENCIESCREATE@2@@Z 000000018002f615     Adjacencies.obj
 0002:00003631       $ip2state$?Init@AdjacenciesBuilder@physx@@QEAA_NAEBUADJACENCIESCREATE@2@@Z 000000018002f631     Adjacencies.obj
 0002:00003648       $unwind$?dtor$0@?0??Init@AdjacenciesBuilder@physx@@QEAA_NAEBUADJACENCIESCREATE@2@@Z@4HA 000000018002f648     Adjacencies.obj
 0002:00003648       $unwind$?dtor$1@?0??Init@AdjacenciesBuilder@physx@@QEAA_NAEBUADJACENCIESCREATE@2@@Z@4HA 000000018002f648     Adjacencies.obj
 0002:00003648       $unwind$?dtor$1@?0??convexHullCrop@physx@@YAPEAVConvexHull@1@AEBV21@AEBVPxPlane@1@M@Z@4HA 000000018002f648     ConvexHullUtils.obj
 0002:00003648       $unwind$?dtor$0@?0??build@ConvexMeshBuilder@physx@@QEAA_NAEBVPxConvexMeshDesc@2@I_NPEAVConvexHullLib@2@@Z@4HA 000000018002f648     ConvexMeshBuilder.obj
 0002:00003648       $unwind$?dtor$1@?0??cookConvexMesh@Cooking@physx@@UEBA_NAEBVPxConvexMeshDesc@2@AEAVPxOutputStream@2@PEAW4Enum@PxConvexMeshCookingResult@2@@Z@4HA 000000018002f648     Cooking.obj
 0002:00003648       $unwind$?dtor$1@?0??createConvexMesh@Cooking@physx@@UEBAPEAVPxConvexMesh@2@AEBVPxConvexMeshDesc@2@AEAVPxPhysicsInsertionCallback@2@PEAW4Enum@PxConvexMeshCookingResult@2@@Z@4HA 000000018002f648     Cooking.obj
 0002:00003648       $unwind$?dtor$1@?0??createHeightField@Cooking@physx@@UEBAPEAVPxHeightField@2@AEBVPxHeightFieldDesc@2@AEAVPxPhysicsInsertionCallback@2@@Z@4HA 000000018002f648     Cooking.obj
 0002:00003648       $unwind$?dtor$1@?0??expandHullOBB@QuickHullConvexHullLib@physx@@IEAA?AW4Enum@PxConvexMeshCookingResult@2@XZ@4HA 000000018002f648     QuickHullConvexHullLib.obj
 0002:00003648       $unwind$?dtor$0@?0??createGRBMidPhaseAndData@TriangleMeshBuilder@physx@@QEAAXI@Z@4HA 000000018002f648     TriangleMeshBuilder.obj
 0002:00003648       $unwind$?dtor$0@?0??createSharedEdgeData@TriangleMeshBuilder@physx@@QEAAX_N0@Z@4HA 000000018002f648     TriangleMeshBuilder.obj
 0002:00003648       $unwind$?fin$0@?0??dllmain_crt_process_attach@@YAHQEAUHINSTANCE__@@QEAX@Z@4HA 000000018002f648     MSVCRT:dll_dllmain.obj
 0002:00003648       $unwind$?fin$0@?0??dllmain_crt_process_detach@@YAH_N@Z@4HA 000000018002f648     MSVCRT:dll_dllmain.obj
 0002:00003648       $unwind$?fin$1@?0??dllmain_crt_process_detach@@YAH_N@Z@4HA 000000018002f648     MSVCRT:dll_dllmain.obj
 0002:00003648       $unwind$?fin$0@?0???_L@YAXPEAX_K1P6AX0@Z2@Z@4HA 000000018002f648     MSVCRT:ehvecctr.obj
 0002:00003648       $unwind$?fin$0@?0???_M@YAXPEAX_K1P6AX0@Z@Z@4HA 000000018002f648     MSVCRT:ehvecdtr.obj
 0002:00003650       $unwind$??$?_UV?$ReflectionAllocator@VAdjTriangle@physx@@@shdfnd@physx@@@UserAllocated@shdfnd@physx@@SAPEAX_KV?$ReflectionAllocator@VAdjTriangle@physx@@@12@PEBDH@Z 000000018002f650     Adjacencies.obj
 0002:00003650       $unwind$??$?_UE@@YAPEAX_KV?$ReflectionAllocator@E@shdfnd@physx@@PEBDH@Z 000000018002f650     ConvexHullBuilder.obj
 0002:00003650       $unwind$??$?_UI@@YAPEAX_KV?$ReflectionAllocator@I@shdfnd@physx@@PEBDH@Z 000000018002f650     EdgeList.obj
 0002:00003650       $unwind$?allocate@?$ReflectionAllocator@I@shdfnd@physx@@QEAAPEAX_KPEBDH@Z 000000018002f650     RTreeCooking.obj
 0002:00003650       $unwind$??$?_UG@@YAPEAX_KV?$ReflectionAllocator@G@shdfnd@physx@@PEBDH@Z 000000018002f650     TriangleMeshBuilder.obj
 0002:00003660       $chain$0$??$?_UV?$ReflectionAllocator@VAdjTriangle@physx@@@shdfnd@physx@@@UserAllocated@shdfnd@physx@@SAPEAX_KV?$ReflectionAllocator@VAdjTriangle@physx@@@12@PEBDH@Z 000000018002f660     Adjacencies.obj
 0002:00003674       $chain$1$??$?_UV?$ReflectionAllocator@VAdjTriangle@physx@@@shdfnd@physx@@@UserAllocated@shdfnd@physx@@SAPEAX_KV?$ReflectionAllocator@VAdjTriangle@physx@@@12@PEBDH@Z 000000018002f674     Adjacencies.obj
 0002:00003684       $unwind$??$?_VV?$ReflectionAllocator@VAdjEdge@@@shdfnd@physx@@@UserAllocated@shdfnd@physx@@SAXPEAXV?$ReflectionAllocator@VAdjEdge@@@12@PEBDH@Z 000000018002f684     Adjacencies.obj
 0002:00003684       $unwind$??$?_VV?$ReflectionAllocator@VAdjTriangle@physx@@@shdfnd@physx@@@UserAllocated@shdfnd@physx@@SAXPEAXV?$ReflectionAllocator@VAdjTriangle@physx@@@12@PEBDH@Z 000000018002f684     Adjacencies.obj
 0002:00003684       $unwind$??$?3V?$ReflectionAllocator@VConvexHull@physx@@@shdfnd@physx@@@UserAllocated@shdfnd@physx@@SAXPEAXV?$ReflectionAllocator@VConvexHull@physx@@@12@PEBDH@Z 000000018002f684     ConvexHullUtils.obj
 0002:00003684       $unwind$??$?3V?$ReflectionAllocator@VBigConvexData@physx@@@shdfnd@physx@@@UserAllocated@shdfnd@physx@@SAXPEAXV?$ReflectionAllocator@VBigConvexData@physx@@@12@PEBDH@Z 000000018002f684     ConvexMeshBuilder.obj
 0002:00003684       $unwind$??$?3V?$ReflectionAllocator@VHeightField@Gu@physx@@@shdfnd@physx@@@UserAllocated@shdfnd@physx@@SAXPEAXV?$ReflectionAllocator@VHeightField@Gu@physx@@@12@PEBDH@Z 000000018002f684     Cooking.obj
 0002:00003684       $unwind$??$?3V?$ReflectionAllocator@VQuickHullConvexHullLib@physx@@@shdfnd@physx@@@UserAllocated@shdfnd@physx@@SAXPEAXV?$ReflectionAllocator@VQuickHullConvexHullLib@physx@@@12@PEBDH@Z 000000018002f684     Cooking.obj
 0002:00003684       $unwind$??$?3V?$ReflectionAllocator@VBV32Tree@Gu@physx@@@shdfnd@physx@@@UserAllocated@shdfnd@physx@@SAXPEAXV?$ReflectionAllocator@VBV32Tree@Gu@physx@@@12@PEBDH@Z 000000018002f684     TriangleMeshBuilder.obj
 0002:00003684       $unwind$??$?3V?$ReflectionAllocator@VEdgeListBuilder@Gu@physx@@@shdfnd@physx@@@UserAllocated@shdfnd@physx@@SAXPEAXV?$ReflectionAllocator@VEdgeListBuilder@Gu@physx@@@12@PEBDH@Z 000000018002f684     TriangleMeshBuilder.obj
 0002:00003694       $cppxdata$??$?_VV?$ReflectionAllocator@VAdjEdge@@@shdfnd@physx@@@UserAllocated@shdfnd@physx@@SAXPEAXV?$ReflectionAllocator@VAdjEdge@@@12@PEBDH@Z 000000018002f694     Adjacencies.obj
 0002:00003694       $cppxdata$??$?_VV?$ReflectionAllocator@VAdjTriangle@physx@@@shdfnd@physx@@@UserAllocated@shdfnd@physx@@SAXPEAXV?$ReflectionAllocator@VAdjTriangle@physx@@@12@PEBDH@Z 000000018002f694     Adjacencies.obj
 0002:00003694       $cppxdata$??$?3V?$ReflectionAllocator@VConvexHull@physx@@@shdfnd@physx@@@UserAllocated@shdfnd@physx@@SAXPEAXV?$ReflectionAllocator@VConvexHull@physx@@@12@PEBDH@Z 000000018002f694     ConvexHullUtils.obj
 0002:00003694       $cppxdata$??$?3V?$ReflectionAllocator@VBigConvexData@physx@@@shdfnd@physx@@@UserAllocated@shdfnd@physx@@SAXPEAXV?$ReflectionAllocator@VBigConvexData@physx@@@12@PEBDH@Z 000000018002f694     ConvexMeshBuilder.obj
 0002:00003694       $cppxdata$??$?3V?$ReflectionAllocator@VHeightField@Gu@physx@@@shdfnd@physx@@@UserAllocated@shdfnd@physx@@SAXPEAXV?$ReflectionAllocator@VHeightField@Gu@physx@@@12@PEBDH@Z 000000018002f694     Cooking.obj
 0002:00003694       $cppxdata$??$?3V?$ReflectionAllocator@VQuickHullConvexHullLib@physx@@@shdfnd@physx@@@UserAllocated@shdfnd@physx@@SAXPEAXV?$ReflectionAllocator@VQuickHullConvexHullLib@physx@@@12@PEBDH@Z 000000018002f694     Cooking.obj
 0002:00003694       $cppxdata$??1?$ScopedPointer@UQuickHullHalfEdge@local@@VTempAllocator@shdfnd@physx@@@shdfnd@physx@@QEAA@XZ 000000018002f694     QuickHullConvexHullLib.obj
 0002:00003694       $cppxdata$??1?$ScopedPointer@VPxVec3@physx@@VTempAllocator@shdfnd@2@@shdfnd@physx@@QEAA@XZ 000000018002f694     QuickHullConvexHullLib.obj
 0002:00003694       $cppxdata$??1?$ScopedPointer@HVTempAllocator@shdfnd@physx@@@shdfnd@physx@@QEAA@XZ 000000018002f694     RTreeCooking.obj
 0002:00003694       $cppxdata$??$?3V?$ReflectionAllocator@VBV32Tree@Gu@physx@@@shdfnd@physx@@@UserAllocated@shdfnd@physx@@SAXPEAXV?$ReflectionAllocator@VBV32Tree@Gu@physx@@@12@PEBDH@Z 000000018002f694     TriangleMeshBuilder.obj
 0002:00003694       $cppxdata$??$?3V?$ReflectionAllocator@VEdgeListBuilder@Gu@physx@@@shdfnd@physx@@@UserAllocated@shdfnd@physx@@SAXPEAXV?$ReflectionAllocator@VEdgeListBuilder@Gu@physx@@@12@PEBDH@Z 000000018002f694     TriangleMeshBuilder.obj
 0002:00003699       $ip2state$??$?_VV?$ReflectionAllocator@VAdjEdge@@@shdfnd@physx@@@UserAllocated@shdfnd@physx@@SAXPEAXV?$ReflectionAllocator@VAdjEdge@@@12@PEBDH@Z 000000018002f699     Adjacencies.obj
 0002:00003699       $ip2state$??$?_VV?$ReflectionAllocator@VAdjTriangle@physx@@@shdfnd@physx@@@UserAllocated@shdfnd@physx@@SAXPEAXV?$ReflectionAllocator@VAdjTriangle@physx@@@12@PEBDH@Z 000000018002f699     Adjacencies.obj
 0002:00003699       $ip2state$??$?3V?$ReflectionAllocator@VConvexHull@physx@@@shdfnd@physx@@@UserAllocated@shdfnd@physx@@SAXPEAXV?$ReflectionAllocator@VConvexHull@physx@@@12@PEBDH@Z 000000018002f699     ConvexHullUtils.obj
 0002:00003699       $ip2state$??$?3V?$ReflectionAllocator@VBigConvexData@physx@@@shdfnd@physx@@@UserAllocated@shdfnd@physx@@SAXPEAXV?$ReflectionAllocator@VBigConvexData@physx@@@12@PEBDH@Z 000000018002f699     ConvexMeshBuilder.obj
 0002:00003699       $ip2state$??$?3V?$ReflectionAllocator@VHeightField@Gu@physx@@@shdfnd@physx@@@UserAllocated@shdfnd@physx@@SAXPEAXV?$ReflectionAllocator@VHeightField@Gu@physx@@@12@PEBDH@Z 000000018002f699     Cooking.obj
 0002:00003699       $ip2state$??$?3V?$ReflectionAllocator@VQuickHullConvexHullLib@physx@@@shdfnd@physx@@@UserAllocated@shdfnd@physx@@SAXPEAXV?$ReflectionAllocator@VQuickHullConvexHullLib@physx@@@12@PEBDH@Z 000000018002f699     Cooking.obj
 0002:00003699       $ip2state$??1?$ScopedPointer@UQuickHullHalfEdge@local@@VTempAllocator@shdfnd@physx@@@shdfnd@physx@@QEAA@XZ 000000018002f699     QuickHullConvexHullLib.obj
 0002:00003699       $ip2state$??1?$ScopedPointer@VPxVec3@physx@@VTempAllocator@shdfnd@2@@shdfnd@physx@@QEAA@XZ 000000018002f699     QuickHullConvexHullLib.obj
 0002:00003699       $ip2state$??1?$ScopedPointer@HVTempAllocator@shdfnd@physx@@@shdfnd@physx@@QEAA@XZ 000000018002f699     RTreeCooking.obj
 0002:00003699       $ip2state$??$?3V?$ReflectionAllocator@VBV32Tree@Gu@physx@@@shdfnd@physx@@@UserAllocated@shdfnd@physx@@SAXPEAXV?$ReflectionAllocator@VBV32Tree@Gu@physx@@@12@PEBDH@Z 000000018002f699     TriangleMeshBuilder.obj
 0002:00003699       $ip2state$??$?3V?$ReflectionAllocator@VEdgeListBuilder@Gu@physx@@@shdfnd@physx@@@UserAllocated@shdfnd@physx@@SAXPEAXV?$ReflectionAllocator@VEdgeListBuilder@Gu@physx@@@12@PEBDH@Z 000000018002f699     TriangleMeshBuilder.obj
 0002:0000369c       $unwind$?AddTriangle@@YAXIIIIPEAVAdjTriangle@physx@@AEAIPEAVAdjEdge@@@Z 000000018002f69c     Adjacencies.obj
 0002:0000369c       $unwind$?getTriangleNormalInternal@HeightField@Gu@physx@@QEBA?AVPxVec3@3@I@Z 000000018002f69c     Cooking.obj
 0002:000036a8       $unwind$?UpdateLink@@YA_NIIIIPEAVAdjTriangle@physx@@AEBUADJACENCIESCREATE@2@@Z 000000018002f6a8     Adjacencies.obj
 0002:000036b4       $chain$0$?UpdateLink@@YA_NIIIIPEAVAdjTriangle@physx@@AEBUADJACENCIESCREATE@2@@Z 000000018002f6b4     Adjacencies.obj
 0002:000036c8       $chain$4$?UpdateLink@@YA_NIIIIPEAVAdjTriangle@physx@@AEBUADJACENCIESCREATE@2@@Z 000000018002f6c8     Adjacencies.obj
 0002:000036e8       $chain$5$?UpdateLink@@YA_NIIIIPEAVAdjTriangle@physx@@AEBUADJACENCIESCREATE@2@@Z 000000018002f6e8     Adjacencies.obj
 0002:000036fc       $chain$6$?UpdateLink@@YA_NIIIIPEAVAdjTriangle@physx@@AEBUADJACENCIESCREATE@2@@Z 000000018002f6fc     Adjacencies.obj
 0002:0000370c       $chain$7$?UpdateLink@@YA_NIIIIPEAVAdjTriangle@physx@@AEBUADJACENCIESCREATE@2@@Z 000000018002f70c     Adjacencies.obj
 0002:00003720       $chain$8$?UpdateLink@@YA_NIIIIPEAVAdjTriangle@physx@@AEBUADJACENCIESCREATE@2@@Z 000000018002f720     Adjacencies.obj
 0002:00003730       $unwind$?CreateDatabase@@YA_NPEAVAdjTriangle@physx@@IPEBVAdjEdge@@AEBUADJACENCIESCREATE@2@@Z 000000018002f730     Adjacencies.obj
 0002:00003758       $cppxdata$?CreateDatabase@@YA_NPEAVAdjTriangle@physx@@IPEBVAdjEdge@@AEBUADJACENCIESCREATE@2@@Z 000000018002f758     Adjacencies.obj
 0002:00003761       $stateUnwindMap$?CreateDatabase@@YA_NPEAVAdjTriangle@physx@@IPEBVAdjEdge@@AEBUADJACENCIESCREATE@2@@Z 000000018002f761     Adjacencies.obj
 0002:00003761       $stateUnwindMap$?createFacesToEdges@EdgeListBuilder@Gu@physx@@AEAA_NIPEBIPEBG@Z 000000018002f761     EdgeList.obj
 0002:00003768       $ip2state$?CreateDatabase@@YA_NPEAVAdjTriangle@physx@@IPEBVAdjEdge@@AEBUADJACENCIESCREATE@2@@Z 000000018002f768     Adjacencies.obj
 0002:00003770       $unwind$??0ConvexMeshBuilder@physx@@QEAA@_N@Z 000000018002f770     ConvexMeshBuilder.obj
 0002:00003770       $unwind$?isFinite@PxVec3@physx@@QEBA_NXZ 000000018002f770     ConvexMeshBuilder.obj
 0002:00003770       $unwind$??0ConvexPolygonsBuilder@physx@@QEAA@PEAUConvexHullData@Gu@1@_N@Z 000000018002f770     ConvexPolygonsBuilder.obj
 0002:00003770       $unwind$??_GPxBase@physx@@MEAAPEAXI@Z 000000018002f770     Cooking.obj
 0002:00003770       $unwind$??_GPxCooking@physx@@MEAAPEAXI@Z 000000018002f770     Cooking.obj
 0002:00003770       $unwind$?getTriangleNormal@HeightField@Gu@physx@@UEBA?AVPxVec3@3@I@Z 000000018002f770     Cooking.obj
 0002:00003770       $unwind$?isKindOf@PxConvexMesh@physx@@MEBA_NPEBD@Z 000000018002f770     Cooking.obj
 0002:00003770       $unwind$?isKindOf@PxHeightField@physx@@MEBA_NPEBD@Z 000000018002f770     Cooking.obj
 0002:00003770       $unwind$??_GQuantizer@physx@@MEAAPEAXI@Z 000000018002f770     Quantizer.obj
 0002:00003770       $unwind$??1RTreeTriangleMeshBuilder@physx@@UEAA@XZ 000000018002f770     TriangleMeshBuilder.obj
 0002:00003770       $unwind$??_GRTreeCookerRemap@physx@@UEAAPEAXI@Z 000000018002f770     TriangleMeshBuilder.obj
 0002:00003770       $unwind$??_GRemapCallback@RTreeCooker@physx@@UEAAPEAXI@Z 000000018002f770     TriangleMeshBuilder.obj
 0002:00003770       $unwind$?DloadAcquireSectionWriteAccess@@YAXXZ 000000018002f770     Delayimp:delayhlp.obj
 0002:00003770       $unwind$__raise_securityfailure 000000018002f770     MSVCRT:gs_report.obj
 0002:00003770       $unwind$??_Gtype_info@@UEAAPEAXI@Z 000000018002f770     MSVCRT:std_type_info_static.obj
 0002:00003770       $unwind$__scrt_initialize_crt 000000018002f770     MSVCRT:utility.obj
 0002:00003770       $unwind$__scrt_initialize_onexit_tables 000000018002f770     MSVCRT:utility.obj
 0002:00003770       $unwind$__scrt_release_startup_lock 000000018002f770     MSVCRT:utility.obj
 0002:00003770       $unwind$__scrt_uninitialize_crt 000000018002f770     MSVCRT:utility.obj
 0002:00003778       $unwind$?getTransform@Box@Gu@physx@@QEBA?AVPxTransform@3@XZ 000000018002f778     ConvexHullUtils.obj
 0002:00003778       $unwind$PxCreateCooking    000000018002f778     Cooking.obj
 0002:00003784       $unwind$?release@Cooking@physx@@UEAAXXZ 000000018002f784     Cooking.obj
 0002:00003784       $unwind$?cookingDelayHook@@YAP6A_JXZIPEAUDelayLoadInfo@@@Z 000000018002f784     WindowsCookingDelayLoadHook.obj
 0002:00003784       $unwind$?DloadReleaseSectionWriteAccess@@YAXXZ 000000018002f784     Delayimp:delayhlp.obj
 0002:00003784       $unwind$__scrt_initialize_default_local_stdio_options 000000018002f784     MSVCRT:default_local_stdio_options.obj
 0002:00003784       $unwind$?dllmain_crt_dispatch@@YAHQEAUHINSTANCE__@@KQEAX@Z 000000018002f784     MSVCRT:dll_dllmain.obj
 0002:00003784       $unwind$DllMain            000000018002f784     MSVCRT:dll_dllmain_stub.obj
 0002:00003784       $unwind$__report_rangecheckfailure 000000018002f784     MSVCRT:gs_report.obj
 0002:00003784       $unwind$__GSHandlerCheck   000000018002f784     MSVCRT:gshandler.obj
 0002:00003784       $unwind$__scrt_acquire_startup_lock 000000018002f784     MSVCRT:utility.obj
 0002:00003784       $unwind$__scrt_dllmain_after_initialize_c 000000018002f784     MSVCRT:utility.obj
 0002:00003784       $unwind$__scrt_dllmain_before_initialize_c 000000018002f784     MSVCRT:utility.obj
 0002:00003784       $unwind$__scrt_dllmain_crt_thread_attach 000000018002f784     MSVCRT:utility.obj
 0002:00003784       $unwind$__scrt_dllmain_crt_thread_detach 000000018002f784     MSVCRT:utility.obj
 0002:00003784       $unwind$__scrt_dllmain_uninitialize_c 000000018002f784     MSVCRT:utility.obj
 0002:00003784       $unwind$__scrt_dllmain_uninitialize_critical 000000018002f784     MSVCRT:utility.obj
 0002:0000378c       $unwind$?cookTriangleMesh@Cooking@physx@@UEBA_NAEBVPxTriangleMeshDesc@2@AEAVPxOutputStream@2@PEAW4Enum@PxTriangleMeshCookingResult@2@@Z 000000018002f78c     Cooking.obj
 0002:000037ac       $cppxdata$?cookTriangleMesh@Cooking@physx@@UEBA_NAEBVPxTriangleMeshDesc@2@AEAVPxOutputStream@2@PEAW4Enum@PxTriangleMeshCookingResult@2@@Z 000000018002f7ac     Cooking.obj
 0002:000037b5       $stateUnwindMap$?cookTriangleMesh@Cooking@physx@@UEBA_NAEBVPxTriangleMeshDesc@2@AEAVPxOutputStream@2@PEAW4Enum@PxTriangleMeshCookingResult@2@@Z 000000018002f7b5     Cooking.obj
 0002:000037ce       $ip2state$?cookTriangleMesh@Cooking@physx@@UEBA_NAEBVPxTriangleMeshDesc@2@AEAVPxOutputStream@2@PEAW4Enum@PxTriangleMeshCookingResult@2@@Z 000000018002f7ce     Cooking.obj
 0002:000037e4       $unwind$?createTriangleMesh@Cooking@physx@@UEBAPEAVPxTriangleMesh@2@AEBVPxTriangleMeshDesc@2@AEAVPxPhysicsInsertionCallback@2@PEAW4Enum@PxTriangleMeshCookingResult@2@@Z 000000018002f7e4     Cooking.obj
 0002:00003804       $cppxdata$?createTriangleMesh@Cooking@physx@@UEBAPEAVPxTriangleMesh@2@AEBVPxTriangleMeshDesc@2@AEAVPxPhysicsInsertionCallback@2@PEAW4Enum@PxTriangleMeshCookingResult@2@@Z 000000018002f804     Cooking.obj
 0002:0000380d       $stateUnwindMap$?createTriangleMesh@Cooking@physx@@UEBAPEAVPxTriangleMesh@2@AEBVPxTriangleMeshDesc@2@AEAVPxPhysicsInsertionCallback@2@PEAW4Enum@PxTriangleMeshCookingResult@2@@Z 000000018002f80d     Cooking.obj
 0002:00003826       $ip2state$?createTriangleMesh@Cooking@physx@@UEBAPEAVPxTriangleMesh@2@AEBVPxTriangleMeshDesc@2@AEAVPxPhysicsInsertionCallback@2@PEAW4Enum@PxTriangleMeshCookingResult@2@@Z 000000018002f826     Cooking.obj
 0002:0000383c       $unwind$?validateTriangleMesh@Cooking@physx@@UEBA_NAEBVPxTriangleMeshDesc@2@@Z 000000018002f83c     Cooking.obj
 0002:00003858       $cppxdata$?validateTriangleMesh@Cooking@physx@@UEBA_NAEBVPxTriangleMeshDesc@2@@Z 000000018002f858     Cooking.obj
 0002:00003861       $stateUnwindMap$?validateTriangleMesh@Cooking@physx@@UEBA_NAEBVPxTriangleMeshDesc@2@@Z 000000018002f861     Cooking.obj
 0002:0000386e       $ip2state$?validateTriangleMesh@Cooking@physx@@UEBA_NAEBVPxTriangleMeshDesc@2@@Z 000000018002f86e     Cooking.obj
 0002:0000387c       $unwind$?cookConvexMesh@Cooking@physx@@UEBA_NAEBVPxConvexMeshDesc@2@AEAVPxOutputStream@2@PEAW4Enum@PxConvexMeshCookingResult@2@@Z 000000018002f87c     Cooking.obj
 0002:0000389c       $cppxdata$?cookConvexMesh@Cooking@physx@@UEBA_NAEBVPxConvexMeshDesc@2@AEAVPxOutputStream@2@PEAW4Enum@PxConvexMeshCookingResult@2@@Z 000000018002f89c     Cooking.obj
 0002:000038a5       $stateUnwindMap$?cookConvexMesh@Cooking@physx@@UEBA_NAEBVPxConvexMeshDesc@2@AEAVPxOutputStream@2@PEAW4Enum@PxConvexMeshCookingResult@2@@Z 000000018002f8a5     Cooking.obj
 0002:000038b9       $ip2state$?cookConvexMesh@Cooking@physx@@UEBA_NAEBVPxConvexMeshDesc@2@AEAVPxOutputStream@2@PEAW4Enum@PxConvexMeshCookingResult@2@@Z 000000018002f8b9     Cooking.obj
 0002:000038cc       $unwind$?createConvexMesh@Cooking@physx@@UEBAPEAVPxConvexMesh@2@AEBVPxConvexMeshDesc@2@AEAVPxPhysicsInsertionCallback@2@PEAW4Enum@PxConvexMeshCookingResult@2@@Z 000000018002f8cc     Cooking.obj
 0002:000038f0       $cppxdata$?createConvexMesh@Cooking@physx@@UEBAPEAVPxConvexMesh@2@AEBVPxConvexMeshDesc@2@AEAVPxPhysicsInsertionCallback@2@PEAW4Enum@PxConvexMeshCookingResult@2@@Z 000000018002f8f0     Cooking.obj
 0002:000038f9       $stateUnwindMap$?createConvexMesh@Cooking@physx@@UEBAPEAVPxConvexMesh@2@AEBVPxConvexMeshDesc@2@AEAVPxPhysicsInsertionCallback@2@PEAW4Enum@PxConvexMeshCookingResult@2@@Z 000000018002f8f9     Cooking.obj
 0002:0000390d       $ip2state$?createConvexMesh@Cooking@physx@@UEBAPEAVPxConvexMesh@2@AEBVPxConvexMeshDesc@2@AEAVPxPhysicsInsertionCallback@2@PEAW4Enum@PxConvexMeshCookingResult@2@@Z 000000018002f90d     Cooking.obj
 0002:00003920       $unwind$?validateConvexMesh@Cooking@physx@@UEBA_NAEBVPxConvexMeshDesc@2@@Z 000000018002f920     Cooking.obj
 0002:0000393c       $cppxdata$?validateConvexMesh@Cooking@physx@@UEBA_NAEBVPxConvexMeshDesc@2@@Z 000000018002f93c     Cooking.obj
 0002:00003945       $stateUnwindMap$?validateConvexMesh@Cooking@physx@@UEBA_NAEBVPxConvexMeshDesc@2@@Z 000000018002f945     Cooking.obj
 0002:0000394c       $ip2state$?validateConvexMesh@Cooking@physx@@UEBA_NAEBVPxConvexMeshDesc@2@@Z 000000018002f94c     Cooking.obj
 0002:00003954       $unwind$?computeHullPolygons@Cooking@physx@@UEBA_NAEBVPxSimpleTriangleMesh@2@AEAVPxAllocatorCallback@2@AEAIAEAPEAVPxVec3@2@2AEAPEAI2AEAPEAUPxHullPolygon@2@@Z 000000018002f954     Cooking.obj
 0002:0000397c       $cppxdata$?computeHullPolygons@Cooking@physx@@UEBA_NAEBVPxSimpleTriangleMesh@2@AEAVPxAllocatorCallback@2@AEAIAEAPEAVPxVec3@2@2AEAPEAI2AEAPEAUPxHullPolygon@2@@Z 000000018002f97c     Cooking.obj
 0002:00003985       $stateUnwindMap$?computeHullPolygons@Cooking@physx@@UEBA_NAEBVPxSimpleTriangleMesh@2@AEAVPxAllocatorCallback@2@AEAIAEAPEAVPxVec3@2@2AEAPEAI2AEAPEAUPxHullPolygon@2@@Z 000000018002f985     Cooking.obj
 0002:0000398d       $ip2state$?computeHullPolygons@Cooking@physx@@UEBA_NAEBVPxSimpleTriangleMesh@2@AEAVPxAllocatorCallback@2@AEAIAEAPEAVPxVec3@2@2AEAPEAI2AEAPEAUPxHullPolygon@2@@Z 000000018002f98d     Cooking.obj
 0002:00003998       $unwind$?cookHeightField@Cooking@physx@@UEBA_NAEBVPxHeightFieldDesc@2@AEAVPxOutputStream@2@@Z 000000018002f998     Cooking.obj
 0002:000039b4       $cppxdata$?cookHeightField@Cooking@physx@@UEBA_NAEBVPxHeightFieldDesc@2@AEAVPxOutputStream@2@@Z 000000018002f9b4     Cooking.obj
 0002:000039bd       $stateUnwindMap$?cookHeightField@Cooking@physx@@UEBA_NAEBVPxHeightFieldDesc@2@AEAVPxOutputStream@2@@Z 000000018002f9bd     Cooking.obj
 0002:000039cb       $ip2state$?cookHeightField@Cooking@physx@@UEBA_NAEBVPxHeightFieldDesc@2@AEAVPxOutputStream@2@@Z 000000018002f9cb     Cooking.obj
 0002:000039d8       $unwind$?createHeightField@Cooking@physx@@UEBAPEAVPxHeightField@2@AEBVPxHeightFieldDesc@2@AEAVPxPhysicsInsertionCallback@2@@Z 000000018002f9d8     Cooking.obj
 0002:000039f4       $cppxdata$?createHeightField@Cooking@physx@@UEBAPEAVPxHeightField@2@AEBVPxHeightFieldDesc@2@AEAVPxPhysicsInsertionCallback@2@@Z 000000018002f9f4     Cooking.obj
 0002:000039fd       $stateUnwindMap$?createHeightField@Cooking@physx@@UEBAPEAVPxHeightField@2@AEBVPxHeightFieldDesc@2@AEAVPxPhysicsInsertionCallback@2@@Z 000000018002f9fd     Cooking.obj
 0002:00003a09       $ip2state$?createHeightField@Cooking@physx@@UEBAPEAVPxHeightField@2@AEBVPxHeightFieldDesc@2@AEAVPxPhysicsInsertionCallback@2@@Z 000000018002fa09     Cooking.obj
 0002:00003a18       $unwind$?cookBVHStructure@Cooking@physx@@UEBA_NAEBVPxBVHStructureDesc@2@AEAVPxOutputStream@2@@Z 000000018002fa18     Cooking.obj
 0002:00003a30       $cppxdata$?cookBVHStructure@Cooking@physx@@UEBA_NAEBVPxBVHStructureDesc@2@AEAVPxOutputStream@2@@Z 000000018002fa30     Cooking.obj
 0002:00003a39       $stateUnwindMap$?cookBVHStructure@Cooking@physx@@UEBA_NAEBVPxBVHStructureDesc@2@AEAVPxOutputStream@2@@Z 000000018002fa39     Cooking.obj
 0002:00003a46       $ip2state$?cookBVHStructure@Cooking@physx@@UEBA_NAEBVPxBVHStructureDesc@2@AEAVPxOutputStream@2@@Z 000000018002fa46     Cooking.obj
 0002:00003a54       $unwind$?createBVHStructure@Cooking@physx@@UEBAPEAVPxBVHStructure@2@AEBVPxBVHStructureDesc@2@AEAVPxPhysicsInsertionCallback@2@@Z 000000018002fa54     Cooking.obj
 0002:00003a70       $cppxdata$?createBVHStructure@Cooking@physx@@UEBAPEAVPxBVHStructure@2@AEBVPxBVHStructureDesc@2@AEAVPxPhysicsInsertionCallback@2@@Z 000000018002fa70     Cooking.obj
 0002:00003a79       $stateUnwindMap$?createBVHStructure@Cooking@physx@@UEBAPEAVPxBVHStructure@2@AEBVPxBVHStructureDesc@2@AEAVPxPhysicsInsertionCallback@2@@Z 000000018002fa79     Cooking.obj
 0002:00003a86       $ip2state$?createBVHStructure@Cooking@physx@@UEBAPEAVPxBVHStructure@2@AEBVPxBVHStructureDesc@2@AEAVPxPhysicsInsertionCallback@2@@Z 000000018002fa86     Cooking.obj
 0002:00003a94       $unwind$?cookConvexMeshInternal@Cooking@physx@@AEBA_NAEBVPxConvexMeshDesc@2@AEAVConvexMeshBuilder@2@PEAVConvexHullLib@2@PEAW4Enum@PxConvexMeshCookingResult@2@@Z 000000018002fa94     Cooking.obj
 0002:00003aa8       $chain$1$?cookConvexMeshInternal@Cooking@physx@@AEBA_NAEBVPxConvexMeshDesc@2@AEAVConvexMeshBuilder@2@PEAVConvexHullLib@2@PEAW4Enum@PxConvexMeshCookingResult@2@@Z 000000018002faa8     Cooking.obj
 0002:00003abc       $chain$2$?cookConvexMeshInternal@Cooking@physx@@AEBA_NAEBVPxConvexMeshDesc@2@AEAVConvexMeshBuilder@2@PEAVConvexHullLib@2@PEAW4Enum@PxConvexMeshCookingResult@2@@Z 000000018002fabc     Cooking.obj
 0002:00003acc       $chain$3$?cookConvexMeshInternal@Cooking@physx@@AEBA_NAEBVPxConvexMeshDesc@2@AEAVConvexMeshBuilder@2@PEAVConvexHullLib@2@PEAW4Enum@PxConvexMeshCookingResult@2@@Z 000000018002facc     Cooking.obj
 0002:00003ae0       $unwind$??_GCooking@physx@@UEAAPEAXI@Z 000000018002fae0     Cooking.obj
 0002:00003ae0       $unwind$??1SubSortQuick@physx@@QEAA@XZ 000000018002fae0     RTreeCooking.obj
 0002:00003af0       $cppxdata$??_GCooking@physx@@UEAAPEAXI@Z 000000018002faf0     Cooking.obj
 0002:00003af0       $cppxdata$??1SubSortQuick@physx@@QEAA@XZ 000000018002faf0     RTreeCooking.obj
 0002:00003af9       $stateUnwindMap$??_GConvexHullLib@physx@@UEAAPEAXI@Z 000000018002faf9     ConvexHullLib.obj
 0002:00003af9       $stateUnwindMap$??1ConvexMeshBuilder@physx@@QEAA@XZ 000000018002faf9     ConvexMeshBuilder.obj
 0002:00003af9       $stateUnwindMap$??_GCooking@physx@@UEAAPEAXI@Z 000000018002faf9     Cooking.obj
 0002:00003af9       $stateUnwindMap$??_GQuantizerImpl@@EEAAPEAXI@Z 000000018002faf9     Quantizer.obj
 0002:00003af9       $stateUnwindMap$??1?$MemBlock@UQuickHullFace@local@@$00@local@@QEAA@XZ 000000018002faf9     QuickHullConvexHullLib.obj
 0002:00003af9       $stateUnwindMap$??1?$MemBlock@UQuickHullHalfEdge@local@@$0A@@local@@QEAA@XZ 000000018002faf9     QuickHullConvexHullLib.obj
 0002:00003af9       $stateUnwindMap$??1QuickHull@local@@QEAA@XZ 000000018002faf9     QuickHullConvexHullLib.obj
 0002:00003af9       $stateUnwindMap$??_GConvexHull@physx@@QEAAPEAXI@Z 000000018002faf9     QuickHullConvexHullLib.obj
 0002:00003af9       $stateUnwindMap$??1?$InlineArray@UInterval@physx@@$0EAA@V?$ReflectionAllocator@UInterval@physx@@@shdfnd@2@@shdfnd@physx@@QEAA@XZ 000000018002faf9     RTreeCooking.obj
 0002:00003af9       $stateUnwindMap$??1SubSortQuick@physx@@QEAA@XZ 000000018002faf9     RTreeCooking.obj
 0002:00003af9       $stateUnwindMap$??1RTreeTriangleData@Gu@physx@@UEAA@XZ 000000018002faf9     TriangleMeshBuilder.obj
 0002:00003af9       $stateUnwindMap$??1TriangleMeshBuilder@physx@@UEAA@XZ 000000018002faf9     TriangleMeshBuilder.obj
 0002:00003af9       $stateUnwindMap$??1TriangleMeshData@Gu@physx@@UEAA@XZ 000000018002faf9     TriangleMeshBuilder.obj
 0002:00003af9       $stateUnwindMap$??_GBV4TriangleData@Gu@physx@@UEAAPEAXI@Z 000000018002faf9     TriangleMeshBuilder.obj
 0002:00003af9       $stateUnwindMap$??_GMeshDataBase@Gu@physx@@UEAAPEAXI@Z 000000018002faf9     TriangleMeshBuilder.obj
 0002:00003af9       $stateUnwindMap$??_GRTreeTriangleData@Gu@physx@@UEAAPEAXI@Z 000000018002faf9     TriangleMeshBuilder.obj
 0002:00003af9       $stateUnwindMap$??_GTriangleMeshData@Gu@physx@@UEAAPEAXI@Z 000000018002faf9     TriangleMeshBuilder.obj
 0002:00003aff       $ip2state$??_GCooking@physx@@UEAAPEAXI@Z 000000018002faff     Cooking.obj
 0002:00003aff       $ip2state$??1SubSortQuick@physx@@QEAA@XZ 000000018002faff     RTreeCooking.obj
 0002:00003b04       $unwind$?allocate@?$Array@USlab@NodeAllocator@Gu@physx@@V?$ReflectionAllocator@USlab@NodeAllocator@Gu@physx@@@shdfnd@4@@shdfnd@physx@@IEAAPEAUSlab@NodeAllocator@Gu@3@I@Z 000000018002fb04     BVHStructureBuilder.obj
 0002:00003b04       $unwind$?allocate@?$Array@VHalfEdge@ConvexHull@physx@@V?$ReflectionAllocator@VHalfEdge@ConvexHull@physx@@@shdfnd@3@@shdfnd@physx@@IEAAPEAVHalfEdge@ConvexHull@3@I@Z 000000018002fb04     ConvexHullUtils.obj
 0002:00003b04       $unwind$?allocate@?$Array@VPxPlane@physx@@V?$ReflectionAllocator@VPxPlane@physx@@@shdfnd@2@@shdfnd@physx@@IEAAPEAVPxPlane@3@I@Z 000000018002fb04     ConvexHullUtils.obj
 0002:00003b04       $unwind$?computeBoxPoints@Box@Gu@physx@@QEBAXPEIAVPxVec3@3@@Z 000000018002fb04     ConvexHullUtils.obj
 0002:00003b04       $unwind$?allocate@?$Array@VPair@@V?$ReflectionAllocator@VPair@@@shdfnd@physx@@@shdfnd@physx@@IEAAPEAVPair@@I@Z 000000018002fb04     ConvexPolygonsBuilder.obj
 0002:00003b04       $unwind$?allocate@?$Array@UPxDebugLine@physx@@V?$ReflectionAllocator@UPxDebugLine@physx@@@shdfnd@2@@shdfnd@physx@@IEAAPEAUPxDebugLine@3@I@Z 000000018002fb04     Cooking.obj
 0002:00003b04       $unwind$?allocate@?$Array@PEAUQuickHullFace@local@@V?$ReflectionAllocator@PEAUQuickHullFace@local@@@shdfnd@physx@@@shdfnd@physx@@IEAAPEAPEAUQuickHullFace@local@@I@Z 000000018002fb04     QuickHullConvexHullLib.obj
 0002:00003b04       $unwind$?allocate@?$Array@PEAUQuickHullHalfEdge@local@@V?$ReflectionAllocator@PEAUQuickHullHalfEdge@local@@@shdfnd@physx@@@shdfnd@physx@@IEAAPEAPEAUQuickHullHalfEdge@local@@I@Z 000000018002fb04     QuickHullConvexHullLib.obj
 0002:00003b04       $unwind$?allocate@?$Array@PEAUQuickHullVertex@local@@V?$ReflectionAllocator@PEAUQuickHullVertex@local@@@shdfnd@physx@@@shdfnd@physx@@IEAAPEAPEAUQuickHullVertex@local@@I@Z 000000018002fb04     QuickHullConvexHullLib.obj
 0002:00003b04       $unwind$?allocate@?$Array@UExpandPoint@local@@V?$ReflectionAllocator@UExpandPoint@local@@@shdfnd@physx@@@shdfnd@physx@@IEAAPEAUExpandPoint@local@@I@Z 000000018002fb04     QuickHullConvexHullLib.obj
 0002:00003b04       $unwind$?allocate@?$Array@UInterval@physx@@V?$InlineAllocator@$0CAAA@V?$ReflectionAllocator@UInterval@physx@@@shdfnd@physx@@@shdfnd@2@@shdfnd@physx@@IEAAPEAUInterval@3@I@Z 000000018002fb04     RTreeCooking.obj
 0002:00003b04       $unwind$?allocate@?$Array@UPxBounds3V@physx@@V?$ReflectionAllocator@UPxBounds3V@physx@@@shdfnd@2@@shdfnd@physx@@IEAAPEAUPxBounds3V@3@I@Z 000000018002fb04     RTreeCooking.obj
 0002:00003b04       $unwind$?allocate@?$Array@URTreeNodeNQ@physx@@V?$ReflectionAllocator@URTreeNodeNQ@physx@@@shdfnd@2@@shdfnd@physx@@IEAAPEAURTreeNodeNQ@3@I@Z 000000018002fb04     RTreeCooking.obj
 0002:00003b04       $unwind$?allocate@?$Array@URTreeNodeQ@Gu@physx@@V?$ReflectionAllocator@URTreeNodeQ@Gu@physx@@@shdfnd@3@@shdfnd@physx@@IEAAPEAURTreeNodeQ@Gu@3@I@Z 000000018002fb04     RTreeCooking.obj
 0002:00003b04       $unwind$?allocate@?$Array@VPxVec3@physx@@V?$ReflectionAllocator@VPxVec3@physx@@@shdfnd@2@@shdfnd@physx@@IEAAPEAVPxVec3@3@I@Z 000000018002fb04     RTreeCooking.obj
 0002:00003b0c       $chain$1$?allocate@?$Array@UPxDebugLine@physx@@V?$ReflectionAllocator@UPxDebugLine@physx@@@shdfnd@2@@shdfnd@physx@@IEAAPEAUPxDebugLine@3@I@Z 000000018002fb0c     Cooking.obj
 0002:00003b24       $chain$3$?allocate@?$Array@UPxDebugLine@physx@@V?$ReflectionAllocator@UPxDebugLine@physx@@@shdfnd@2@@shdfnd@physx@@IEAAPEAUPxDebugLine@3@I@Z 000000018002fb24     Cooking.obj
 0002:00003b38       $chain$4$?allocate@?$Array@UPxDebugLine@physx@@V?$ReflectionAllocator@UPxDebugLine@physx@@@shdfnd@2@@shdfnd@physx@@IEAAPEAUPxDebugLine@3@I@Z 000000018002fb38     Cooking.obj
 0002:00003b48       $unwind$?recreate@?$Array@USlab@NodeAllocator@Gu@physx@@V?$ReflectionAllocator@USlab@NodeAllocator@Gu@physx@@@shdfnd@4@@shdfnd@physx@@IEAAXI@Z 000000018002fb48     BVHStructureBuilder.obj
 0002:00003b48       $unwind$?recreate@?$Array@VHalfEdge@ConvexHull@physx@@V?$ReflectionAllocator@VHalfEdge@ConvexHull@physx@@@shdfnd@3@@shdfnd@physx@@IEAAXI@Z 000000018002fb48     ConvexHullUtils.obj
 0002:00003b48       $unwind$?recreate@?$Array@VPxPlane@physx@@V?$ReflectionAllocator@VPxPlane@physx@@@shdfnd@2@@shdfnd@physx@@IEAAXI@Z 000000018002fb48     ConvexHullUtils.obj
 0002:00003b48       $unwind$?copy@ConvexMeshBuilder@physx@@QEAA_NAEAUConvexHullInitData@Gu@2@@Z 000000018002fb48     ConvexMeshBuilder.obj
 0002:00003b48       $unwind$?recreate@?$Array@UPxDebugLine@physx@@V?$ReflectionAllocator@UPxDebugLine@physx@@@shdfnd@2@@shdfnd@physx@@IEAAXI@Z 000000018002fb48     Cooking.obj
 0002:00003b48       $unwind$?recreate@?$Array@PEAUQuickHullFace@local@@V?$ReflectionAllocator@PEAUQuickHullFace@local@@@shdfnd@physx@@@shdfnd@physx@@IEAAXI@Z 000000018002fb48     QuickHullConvexHullLib.obj
 0002:00003b48       $unwind$?recreate@?$Array@PEAUQuickHullHalfEdge@local@@V?$ReflectionAllocator@PEAUQuickHullHalfEdge@local@@@shdfnd@physx@@@shdfnd@physx@@IEAAXI@Z 000000018002fb48     QuickHullConvexHullLib.obj
 0002:00003b48       $unwind$?recreate@?$Array@PEAUQuickHullVertex@local@@V?$ReflectionAllocator@PEAUQuickHullVertex@local@@@shdfnd@physx@@@shdfnd@physx@@IEAAXI@Z 000000018002fb48     QuickHullConvexHullLib.obj
 0002:00003b48       $unwind$?recreate@?$Array@UExpandPoint@local@@V?$ReflectionAllocator@UExpandPoint@local@@@shdfnd@physx@@@shdfnd@physx@@IEAAXI@Z 000000018002fb48     QuickHullConvexHullLib.obj
 0002:00003b48       $unwind$?recreate@?$Array@IV?$ReflectionAllocator@I@shdfnd@physx@@@shdfnd@physx@@IEAAXI@Z 000000018002fb48     RTreeCooking.obj
 0002:00003b48       $unwind$?recreate@?$Array@UPxBounds3V@physx@@V?$ReflectionAllocator@UPxBounds3V@physx@@@shdfnd@2@@shdfnd@physx@@IEAAXI@Z 000000018002fb48     RTreeCooking.obj
 0002:00003b48       $unwind$?recreate@?$Array@URTreeNodeNQ@physx@@V?$ReflectionAllocator@URTreeNodeNQ@physx@@@shdfnd@2@@shdfnd@physx@@IEAAXI@Z 000000018002fb48     RTreeCooking.obj
 0002:00003b48       $unwind$?recreate@?$Array@URTreeNodeQ@Gu@physx@@V?$ReflectionAllocator@URTreeNodeQ@Gu@physx@@@shdfnd@3@@shdfnd@physx@@IEAAXI@Z 000000018002fb48     RTreeCooking.obj
 0002:00003b48       $unwind$?recreate@?$Array@VPxVec3@physx@@V?$ReflectionAllocator@VPxVec3@physx@@@shdfnd@2@@shdfnd@physx@@IEAAXI@Z 000000018002fb48     RTreeCooking.obj
 0002:00003b58       $chain$0$?recreate@?$Array@UPxDebugLine@physx@@V?$ReflectionAllocator@UPxDebugLine@physx@@@shdfnd@2@@shdfnd@physx@@IEAAXI@Z 000000018002fb58     Cooking.obj
 0002:00003b6c       $chain$1$?recreate@?$Array@UPxDebugLine@physx@@V?$ReflectionAllocator@UPxDebugLine@physx@@@shdfnd@2@@shdfnd@physx@@IEAAXI@Z 000000018002fb6c     Cooking.obj
 0002:00003b7c       $unwind$??$copy@V?$ReflectionAllocator@USlab@NodeAllocator@Gu@physx@@@shdfnd@physx@@@?$Array@USlab@NodeAllocator@Gu@physx@@V?$ReflectionAllocator@USlab@NodeAllocator@Gu@physx@@@shdfnd@4@@shdfnd@physx@@IEAAXAEBV012@@Z 000000018002fb7c     BVHStructureBuilder.obj
 0002:00003b7c       $unwind$??0NodeAllocator@Gu@physx@@QEAA@AEBV012@@Z 000000018002fb7c     BVHStructureBuilder.obj
 0002:00003b7c       $unwind$??$copy@V?$ReflectionAllocator@VPair@@@shdfnd@physx@@@?$Array@VPair@@V?$ReflectionAllocator@VPair@@@shdfnd@physx@@@shdfnd@physx@@IEAAXAEBV012@@Z 000000018002fb7c     ConvexPolygonsBuilder.obj
 0002:00003b7c       $unwind$?reserveSegments@RenderOutput@Cm@physx@@QEAAPEAUPxDebugLine@3@I@Z 000000018002fb7c     Cooking.obj
 0002:00003b7c       $unwind$?Clean@ReducedVertexCloud@physx@@QEAAAEAV12@XZ 000000018002fb7c     CookingUtils.obj
 0002:00003b7c       $unwind$?computeLocalBounds@MeshBulider@physx@@IEAAXAEAVMeshDataBase@Gu@2@@Z 000000018002fb7c     MeshBuilder.obj
 0002:00003b7c       $unwind$?fillConvexMeshDesc@QuickHullConvexHullLib@physx@@UEAAXAEAVPxConvexMeshDesc@2@@Z 000000018002fb7c     QuickHullConvexHullLib.obj
 0002:00003b7c       $unwind$?resizeUninitialized@?$Array@URTreeNodeNQ@physx@@V?$ReflectionAllocator@URTreeNodeNQ@physx@@@shdfnd@2@@shdfnd@physx@@QEAAXI@Z 000000018002fb7c     RTreeCooking.obj
 0002:00003b7c       $unwind$??1BV4TriangleMeshBuilder@physx@@UEAA@XZ 000000018002fb7c     TriangleMeshBuilder.obj
 0002:00003b7c       $unwind$??_GRTreeTriangleMeshBuilder@physx@@UEAAPEAXI@Z 000000018002fb7c     TriangleMeshBuilder.obj
 0002:00003b7c       $unwind$??_GTriangleMeshBuilder@physx@@UEAAPEAXI@Z 000000018002fb7c     TriangleMeshBuilder.obj
 0002:00003b7c       $unwind$?DloadGetSRWLockFunctionPointers@@YAEXZ 000000018002fb7c     Delayimp:delayhlp.obj
 0002:00003b7c       $unwind$_RTC_Initialize    000000018002fb7c     MSVCRT:initsect.obj
 0002:00003b7c       $unwind$_RTC_Terminate     000000018002fb7c     MSVCRT:initsect.obj
 0002:00003b88       $unwind$?growAndPushBack@?$Array@VPair@@V?$ReflectionAllocator@VPair@@@shdfnd@physx@@@shdfnd@physx@@IEAAAEAVPair@@AEBV4@@Z 000000018002fb88     ConvexPolygonsBuilder.obj
 0002:00003b88       $unwind$?outputSegment@RenderOutput@Cm@physx@@QEAAXAEBVPxVec3@3@0@Z 000000018002fb88     Cooking.obj
 0002:00003ba0       $unwind$?getHeight@HeightField@Gu@physx@@UEBAMMM@Z 000000018002fba0     Cooking.obj
 0002:00003ba8       $unwind$?getHeightInternal2@HeightField@Gu@physx@@QEBAMIMM@Z 000000018002fba8     Cooking.obj
 0002:00003bb4       $chain$0$?getHeightInternal2@HeightField@Gu@physx@@QEBAMIMM@Z 000000018002fbb4     Cooking.obj
 0002:00003bc8       $chain$2$?getHeightInternal2@HeightField@Gu@physx@@QEBAMIMM@Z 000000018002fbc8     Cooking.obj
 0002:00003bdc       $unwind$??1ReducedVertexCloud@physx@@QEAA@XZ 000000018002fbdc     CookingUtils.obj
 0002:00003bec       $cppxdata$??1ReducedVertexCloud@physx@@QEAA@XZ 000000018002fbec     CookingUtils.obj
 0002:00003bf1       $ip2state$??1ReducedVertexCloud@physx@@QEAA@XZ 000000018002fbf1     CookingUtils.obj
 0002:00003bf4       $unwind$?Reduce@ReducedVertexCloud@physx@@QEAA_NPEAUREDUCEDCLOUD@2@@Z 000000018002fbf4     CookingUtils.obj
 0002:00003c1c       $cppxdata$?Reduce@ReducedVertexCloud@physx@@QEAA_NPEAUREDUCEDCLOUD@2@@Z 000000018002fc1c     CookingUtils.obj
 0002:00003c25       $stateUnwindMap$?Reduce@ReducedVertexCloud@physx@@QEAA_NPEAUREDUCEDCLOUD@2@@Z 000000018002fc25     CookingUtils.obj
 0002:00003c2c       $ip2state$?Reduce@ReducedVertexCloud@physx@@QEAA_NPEAUREDUCEDCLOUD@2@@Z 000000018002fc2c     CookingUtils.obj
 0002:00003c38       $unwind$??1ConvexHullBuilder@physx@@QEAA@XZ 000000018002fc38     ConvexHullBuilder.obj
 0002:00003c38       $unwind$??1EdgeList@Gu@physx@@QEAA@XZ 000000018002fc38     EdgeList.obj
 0002:00003c38       $unwind$??1MeshCleaner@physx@@QEAA@XZ 000000018002fc38     MeshCleaner.obj
 0002:00003c38       $unwind$??1SubSortSAH@physx@@QEAA@XZ 000000018002fc38     RTreeCooking.obj
 0002:00003c50       $cppxdata$??1ConvexHullBuilder@physx@@QEAA@XZ 000000018002fc50     ConvexHullBuilder.obj
 0002:00003c50       $cppxdata$??1EdgeList@Gu@physx@@QEAA@XZ 000000018002fc50     EdgeList.obj
 0002:00003c50       $cppxdata$??1MeshCleaner@physx@@QEAA@XZ 000000018002fc50     MeshCleaner.obj
 0002:00003c50       $cppxdata$??1SubSortSAH@physx@@QEAA@XZ 000000018002fc50     RTreeCooking.obj
 0002:00003c55       $ip2state$??1ConvexHullBuilder@physx@@QEAA@XZ 000000018002fc55     ConvexHullBuilder.obj
 0002:00003c55       $ip2state$??1EdgeList@Gu@physx@@QEAA@XZ 000000018002fc55     EdgeList.obj
 0002:00003c55       $ip2state$??1MeshCleaner@physx@@QEAA@XZ 000000018002fc55     MeshCleaner.obj
 0002:00003c55       $ip2state$??1SubSortSAH@physx@@QEAA@XZ 000000018002fc55     RTreeCooking.obj
 0002:00003c58       $unwind$?init@EdgeListBuilder@Gu@physx@@QEAA_NAEBUEDGELISTCREATE@23@@Z 000000018002fc58     EdgeList.obj
 0002:00003c6c       $unwind$?createFacesToEdges@EdgeListBuilder@Gu@physx@@AEAA_NIPEBIPEBG@Z 000000018002fc6c     EdgeList.obj
 0002:00003c90       $cppxdata$?createFacesToEdges@EdgeListBuilder@Gu@physx@@AEAA_NIPEBIPEBG@Z 000000018002fc90     EdgeList.obj
 0002:00003c99       $ip2state$?createFacesToEdges@EdgeListBuilder@Gu@physx@@AEAA_NIPEBIPEBG@Z 000000018002fc99     EdgeList.obj
 0002:00003ca4       $unwind$?createEdgesToFaces@EdgeListBuilder@Gu@physx@@AEAA_NIPEBIPEBG@Z 000000018002fca4     EdgeList.obj
 0002:00003cb0       $chain$2$?createEdgesToFaces@EdgeListBuilder@Gu@physx@@AEAA_NIPEBIPEBG@Z 000000018002fcb0     EdgeList.obj
 0002:00003ccc       $chain$3$?createEdgesToFaces@EdgeListBuilder@Gu@physx@@AEAA_NIPEBIPEBG@Z 000000018002fccc     EdgeList.obj
 0002:00003ce4       $chain$4$?createEdgesToFaces@EdgeListBuilder@Gu@physx@@AEAA_NIPEBIPEBG@Z 000000018002fce4     EdgeList.obj
 0002:00003cf8       $unwind$?computeActiveEdges@EdgeListBuilder@Gu@physx@@AEAA_NIPEBIPEBGPEBVPxVec3@3@M@Z 000000018002fcf8     EdgeList.obj
 0002:00003d10       $chain$0$?computeActiveEdges@EdgeListBuilder@Gu@physx@@AEAA_NIPEBIPEBGPEBVPxVec3@3@M@Z 000000018002fd10     EdgeList.obj
 0002:00003d24       $chain$1$?computeActiveEdges@EdgeListBuilder@Gu@physx@@AEAA_NIPEBIPEBGPEBVPxVec3@3@M@Z 000000018002fd24     EdgeList.obj
 0002:00003d24       $chain$19$?computeActiveEdges@EdgeListBuilder@Gu@physx@@AEAA_NIPEBIPEBGPEBVPxVec3@3@M@Z 000000018002fd24     EdgeList.obj
 0002:00003d34       $chain$3$?computeActiveEdges@EdgeListBuilder@Gu@physx@@AEAA_NIPEBIPEBGPEBVPxVec3@3@M@Z 000000018002fd34     EdgeList.obj
 0002:00003d4c       $chain$16$?computeActiveEdges@EdgeListBuilder@Gu@physx@@AEAA_NIPEBIPEBGPEBVPxVec3@3@M@Z 000000018002fd4c     EdgeList.obj
 0002:00003d90       $chain$17$?computeActiveEdges@EdgeListBuilder@Gu@physx@@AEAA_NIPEBIPEBGPEBVPxVec3@3@M@Z 000000018002fd90     EdgeList.obj
 0002:00003da4       $chain$18$?computeActiveEdges@EdgeListBuilder@Gu@physx@@AEAA_NIPEBIPEBGPEBVPxVec3@3@M@Z 000000018002fda4     EdgeList.obj
 0002:00003db4       $chain$0$??$?_UI@@YAPEAX_KV?$ReflectionAllocator@I@shdfnd@physx@@PEBDH@Z 000000018002fdb4     EdgeList.obj
 0002:00003dc8       $chain$1$??$?_UI@@YAPEAX_KV?$ReflectionAllocator@I@shdfnd@physx@@PEBDH@Z 000000018002fdc8     EdgeList.obj
 0002:00003dd8       $unwind$??0MeshCleaner@physx@@QEAA@IPEBVPxVec3@1@IPEBIM@Z 000000018002fdd8     MeshCleaner.obj
 0002:00003de4       $chain$1$??0MeshCleaner@physx@@QEAA@IPEBVPxVec3@1@IPEBIM@Z 000000018002fde4     MeshCleaner.obj
 0002:00003dfc       $chain$5$??0MeshCleaner@physx@@QEAA@IPEBVPxVec3@1@IPEBIM@Z 000000018002fdfc     MeshCleaner.obj
 0002:00003e1c       $chain$7$??0MeshCleaner@physx@@QEAA@IPEBVPxVec3@1@IPEBIM@Z 000000018002fe1c     MeshCleaner.obj
 0002:00003e34       $chain$8$??0MeshCleaner@physx@@QEAA@IPEBVPxVec3@1@IPEBIM@Z 000000018002fe34     MeshCleaner.obj
 0002:00003e48       $chain$9$??0MeshCleaner@physx@@QEAA@IPEBVPxVec3@1@IPEBIM@Z 000000018002fe48     MeshCleaner.obj
 0002:00003e58       $chain$10$??0MeshCleaner@physx@@QEAA@IPEBVPxVec3@1@IPEBIM@Z 000000018002fe58     MeshCleaner.obj
 0002:00003e68       $chain$11$??0MeshCleaner@physx@@QEAA@IPEBVPxVec3@1@IPEBIM@Z 000000018002fe68     MeshCleaner.obj
 0002:00003e84       $chain$12$??0MeshCleaner@physx@@QEAA@IPEBVPxVec3@1@IPEBIM@Z 000000018002fe84     MeshCleaner.obj
 0002:00003e94       $unwind$?createQuantizer@physx@@YAPEAVQuantizer@1@XZ 000000018002fe94     Quantizer.obj
 0002:00003e9c       $unwind$??$kmeans_cluster@VPxVec3@physx@@M@@YAIPEBVPxVec3@physx@@IIPEAV01@PEAIMM@Z 000000018002fe9c     Quantizer.obj
 0002:00003ea8       $chain$6$??$kmeans_cluster@VPxVec3@physx@@M@@YAIPEBVPxVec3@physx@@IIPEAV01@PEAIMM@Z 000000018002fea8     Quantizer.obj
 0002:00003ed4       $chain$12$??$kmeans_cluster@VPxVec3@physx@@M@@YAIPEBVPxVec3@physx@@IIPEAV01@PEAIMM@Z 000000018002fed4     Quantizer.obj
 0002:00003efc       $chain$13$??$kmeans_cluster@VPxVec3@physx@@M@@YAIPEBVPxVec3@physx@@IIPEAV01@PEAIMM@Z 000000018002fefc     Quantizer.obj
 0002:00003f0c       $chain$14$??$kmeans_cluster@VPxVec3@physx@@M@@YAIPEBVPxVec3@physx@@IIPEAV01@PEAIMM@Z 000000018002ff0c     Quantizer.obj
 0002:00003f1c       $unwind$?kmeansQuantize3D@QuantizerImpl@@UEAAPEBVPxVec3@physx@@IPEBV23@I_NIAEAI@Z 000000018002ff1c     Quantizer.obj
 0002:00003f2c       $chain$0$?kmeansQuantize3D@QuantizerImpl@@UEAAPEBVPxVec3@physx@@IPEBV23@I_NIAEAI@Z 000000018002ff2c     Quantizer.obj
 0002:00003f40       $chain$2$?kmeansQuantize3D@QuantizerImpl@@UEAAPEBVPxVec3@physx@@IPEBV23@I_NIAEAI@Z 000000018002ff40     Quantizer.obj
 0002:00003f58       $chain$3$?kmeansQuantize3D@QuantizerImpl@@UEAAPEBVPxVec3@physx@@IPEBV23@I_NIAEAI@Z 000000018002ff58     Quantizer.obj
 0002:00003f6c       $chain$4$?kmeansQuantize3D@QuantizerImpl@@UEAAPEBVPxVec3@physx@@IPEBV23@I_NIAEAI@Z 000000018002ff6c     Quantizer.obj
 0002:00003f7c       $chain$5$?kmeansQuantize3D@QuantizerImpl@@UEAAPEBVPxVec3@physx@@IPEBV23@I_NIAEAI@Z 000000018002ff7c     Quantizer.obj
 0002:00003f8c       $unwind$?normalizeInput@QuantizerImpl@@AEAAXIPEBVPxVec3@physx@@I@Z 000000018002ff8c     Quantizer.obj
 0002:00003fa8       $chain$3$?normalizeInput@QuantizerImpl@@AEAAXIPEBVPxVec3@physx@@I@Z 000000018002ffa8     Quantizer.obj
 0002:00003fc8       $chain$6$?normalizeInput@QuantizerImpl@@AEAAXIPEBVPxVec3@physx@@I@Z 000000018002ffc8     Quantizer.obj
 0002:00003fe4       $chain$7$?normalizeInput@QuantizerImpl@@AEAAXIPEBVPxVec3@physx@@I@Z 000000018002ffe4     Quantizer.obj
 0002:00003ff4       $chain$8$?normalizeInput@QuantizerImpl@@AEAAXIPEBVPxVec3@physx@@I@Z 000000018002fff4     Quantizer.obj
 0002:00004004       $chain$10$?normalizeInput@QuantizerImpl@@AEAAXIPEBVPxVec3@physx@@I@Z 0000000180030004     Quantizer.obj
 0002:0000401c       $chain$11$?normalizeInput@QuantizerImpl@@AEAAXIPEBVPxVec3@physx@@I@Z 000000018003001c     Quantizer.obj
 0002:0000402c       $unwind$?growAndPushBack@?$Array@VPxVec3@physx@@V?$ReflectionAllocator@VPxVec3@physx@@@shdfnd@2@@shdfnd@physx@@IEAAAEAVPxVec3@3@AEBV43@@Z 000000018003002c     Quantizer.obj
 0002:0000402c       $unwind$?doAdjacentMerge@QuickHull@local@@IEAA_NAEAUQuickHullFace@2@_NAEA_N@Z 000000018003002c     QuickHullConvexHullLib.obj
 0002:0000402c       $unwind$?saveMidPhaseStructure@BV4TriangleMeshBuilder@physx@@UEBAXAEAVPxOutputStream@2@_N@Z 000000018003002c     TriangleMeshBuilder.obj
 0002:00004038       $chain$0$?growAndPushBack@?$Array@VPxVec3@physx@@V?$ReflectionAllocator@VPxVec3@physx@@@shdfnd@2@@shdfnd@physx@@IEAAAEAVPxVec3@3@AEBV43@@Z 0000000180030038     Quantizer.obj
 0002:0000404c       $chain$1$?growAndPushBack@?$Array@VPxVec3@physx@@V?$ReflectionAllocator@VPxVec3@physx@@@shdfnd@2@@shdfnd@physx@@IEAAAEAVPxVec3@3@AEBV43@@Z 000000018003004c     Quantizer.obj
 0002:00004060       $chain$2$?growAndPushBack@?$Array@VPxVec3@physx@@V?$ReflectionAllocator@VPxVec3@physx@@@shdfnd@2@@shdfnd@physx@@IEAAAEAVPxVec3@3@AEBV43@@Z 0000000180030060     Quantizer.obj
 0002:00004070       $chain$4$?growAndPushBack@?$Array@VPxVec3@physx@@V?$ReflectionAllocator@VPxVec3@physx@@@shdfnd@2@@shdfnd@physx@@IEAAAEAVPxVec3@3@AEBV43@@Z 0000000180030070     Quantizer.obj
 0002:00004084       $chain$3$?growAndPushBack@?$Array@VPxVec3@physx@@V?$ReflectionAllocator@VPxVec3@physx@@@shdfnd@2@@shdfnd@physx@@IEAAAEAVPxVec3@3@AEBV43@@Z 0000000180030084     Quantizer.obj
 0002:00004094       $unwind$??_GQuantizerImpl@@EEAAPEAXI@Z 0000000180030094     Quantizer.obj
 0002:000040ac       $cppxdata$??_GQuantizerImpl@@EEAAPEAXI@Z 00000001800300ac     Quantizer.obj
 0002:000040b5       $ip2state$??_GQuantizerImpl@@EEAAPEAXI@Z 00000001800300b5     Quantizer.obj
 0002:000040c0       $unwind$??1BVHStructureBuilder@physx@@QEAA@XZ 00000001800300c0     BVHStructureBuilder.obj
 0002:000040d8       $cppxdata$??1BVHStructureBuilder@physx@@QEAA@XZ 00000001800300d8     BVHStructureBuilder.obj
 0002:000040dd       $ip2state$??1BVHStructureBuilder@physx@@QEAA@XZ 00000001800300dd     BVHStructureBuilder.obj
 0002:000040e0       $unwind$?loadFromDesc@BVHStructureBuilder@physx@@QEAA_NAEBVPxBVHStructureDesc@2@@Z 00000001800300e0     BVHStructureBuilder.obj
 0002:000040fc       $cppxdata$?loadFromDesc@BVHStructureBuilder@physx@@QEAA_NAEBVPxBVHStructureDesc@2@@Z 00000001800300fc     BVHStructureBuilder.obj
 0002:00004105       $stateUnwindMap$?loadFromDesc@BVHStructureBuilder@physx@@QEAA_NAEBVPxBVHStructureDesc@2@@Z 0000000180030105     BVHStructureBuilder.obj
 0002:00004117       $ip2state$?loadFromDesc@BVHStructureBuilder@physx@@QEAA_NAEBVPxBVHStructureDesc@2@@Z 0000000180030117     BVHStructureBuilder.obj
 0002:00004128       $unwind$?save@BVHStructureBuilder@physx@@QEBA_NAEAVPxOutputStream@2@_N@Z 0000000180030128     BVHStructureBuilder.obj
 0002:00004138       $chain$2$?save@BVHStructureBuilder@physx@@QEBA_NAEAVPxOutputStream@2@_N@Z 0000000180030138     BVHStructureBuilder.obj
 0002:00004150       $chain$3$?save@BVHStructureBuilder@physx@@QEBA_NAEAVPxOutputStream@2@_N@Z 0000000180030150     BVHStructureBuilder.obj
 0002:00004164       $unwind$??1AABBTreeBuildParams@Gu@physx@@QEAA@XZ 0000000180030164     BVHStructureBuilder.obj
 0002:0000417c       $cppxdata$??1AABBTreeBuildParams@Gu@physx@@QEAA@XZ 000000018003017c     BVHStructureBuilder.obj
 0002:00004181       $ip2state$??1AABBTreeBuildParams@Gu@physx@@QEAA@XZ 0000000180030181     BVHStructureBuilder.obj
 0002:00004184       $unwind$?reset@AABBTreeBuildParams@Gu@physx@@QEAAXXZ 0000000180030184     BVHStructureBuilder.obj
 0002:00004184       $unwind$?resize@?$Array@VPxPlane@physx@@V?$ReflectionAllocator@VPxPlane@physx@@@shdfnd@2@@shdfnd@physx@@QEAAXIAEBVPxPlane@3@@Z 0000000180030184     ConvexHullUtils.obj
 0002:00004184       $unwind$?resize@?$Array@VPxVec3@physx@@V?$ReflectionAllocator@VPxVec3@physx@@@shdfnd@2@@shdfnd@physx@@QEAAXIAEBVPxVec3@3@@Z 0000000180030184     ConvexHullUtils.obj
 0002:00004184       $unwind$??_GBV4TriangleMeshBuilder@physx@@UEAAPEAXI@Z 0000000180030184     TriangleMeshBuilder.obj
 0002:00004184       $unwind$_DllMainCRTStartup 0000000180030184     MSVCRT:dll_dllmain.obj
 0002:00004194       $chain$1$?allocate@?$Array@USlab@NodeAllocator@Gu@physx@@V?$ReflectionAllocator@USlab@NodeAllocator@Gu@physx@@@shdfnd@4@@shdfnd@physx@@IEAAPEAUSlab@NodeAllocator@Gu@3@I@Z 0000000180030194     BVHStructureBuilder.obj
 0002:000041ac       $chain$3$?allocate@?$Array@USlab@NodeAllocator@Gu@physx@@V?$ReflectionAllocator@USlab@NodeAllocator@Gu@physx@@@shdfnd@4@@shdfnd@physx@@IEAAPEAUSlab@NodeAllocator@Gu@3@I@Z 00000001800301ac     BVHStructureBuilder.obj
 0002:000041c0       $chain$4$?allocate@?$Array@USlab@NodeAllocator@Gu@physx@@V?$ReflectionAllocator@USlab@NodeAllocator@Gu@physx@@@shdfnd@4@@shdfnd@physx@@IEAAPEAUSlab@NodeAllocator@Gu@3@I@Z 00000001800301c0     BVHStructureBuilder.obj
 0002:000041d0       $chain$0$?recreate@?$Array@USlab@NodeAllocator@Gu@physx@@V?$ReflectionAllocator@USlab@NodeAllocator@Gu@physx@@@shdfnd@4@@shdfnd@physx@@IEAAXI@Z 00000001800301d0     BVHStructureBuilder.obj
 0002:000041e4       $chain$1$?recreate@?$Array@USlab@NodeAllocator@Gu@physx@@V?$ReflectionAllocator@USlab@NodeAllocator@Gu@physx@@@shdfnd@4@@shdfnd@physx@@IEAAXI@Z 00000001800301e4     BVHStructureBuilder.obj
 0002:000041f4       $unwind$??4NodeAllocator@Gu@physx@@QEAAAEAV012@AEBV012@@Z 00000001800301f4     BVHStructureBuilder.obj
 0002:00004208       $unwind$?flatten@@YAXAEBVNodeAllocator@Gu@physx@@PEAUBVHNode@23@@Z 0000000180030208     BVHStructureBuilder.obj
 0002:00004214       $chain$5$?flatten@@YAXAEBVNodeAllocator@Gu@physx@@PEAUBVHNode@23@@Z 0000000180030214     BVHStructureBuilder.obj
 0002:0000423c       $chain$6$?flatten@@YAXAEBVNodeAllocator@Gu@physx@@PEAUBVHNode@23@@Z 000000018003023c     BVHStructureBuilder.obj
 0002:0000424c       $chain$7$?flatten@@YAXAEBVNodeAllocator@Gu@physx@@PEAUBVHNode@23@@Z 000000018003024c     BVHStructureBuilder.obj
 0002:00004274       $unwind$?saveHeightField@physx@@YA_NAEBVHeightField@Gu@1@AEAVPxOutputStream@1@_N@Z 0000000180030274     HeightFieldCooking.obj
 0002:00004284       $chain$2$?saveHeightField@physx@@YA_NAEBVHeightField@Gu@1@AEAVPxOutputStream@1@_N@Z 0000000180030284     HeightFieldCooking.obj
 0002:0000429c       $chain$3$?saveHeightField@physx@@YA_NAEBVHeightField@Gu@1@AEAVPxOutputStream@1@_N@Z 000000018003029c     HeightFieldCooking.obj
 0002:000042ac       $chain$0$?allocate@?$ReflectionAllocator@I@shdfnd@physx@@QEAAPEAX_KPEBDH@Z 00000001800302ac     RTreeCooking.obj
 0002:000042c0       $chain$1$?allocate@?$ReflectionAllocator@I@shdfnd@physx@@QEAAPEAX_KPEBDH@Z 00000001800302c0     RTreeCooking.obj
 0002:000042d0       $unwind$?buildFromTriangles@RTreeCooker@physx@@SAXAEAURTree@Gu@2@PEBVPxVec3@2@IPEBGPEBIIAEAV?$Array@IV?$ReflectionAllocator@I@shdfnd@physx@@@shdfnd@2@PEAURemapCallback@12@MW4Enum@PxMeshCookingHint@2@@Z 00000001800302d0     RTreeCooking.obj
 0002:00004308       $cppxdata$?buildFromTriangles@RTreeCooker@physx@@SAXAEAURTree@Gu@2@PEBVPxVec3@2@IPEBGPEBIIAEAV?$Array@IV?$ReflectionAllocator@I@shdfnd@physx@@@shdfnd@2@PEAURemapCallback@12@MW4Enum@PxMeshCookingHint@2@@Z 0000000180030308     RTreeCooking.obj
 0002:00004311       $stateUnwindMap$?buildFromTriangles@RTreeCooker@physx@@SAXAEAURTree@Gu@2@PEBVPxVec3@2@IPEBGPEBIIAEAV?$Array@IV?$ReflectionAllocator@I@shdfnd@physx@@@shdfnd@2@PEAURemapCallback@12@MW4Enum@PxMeshCookingHint@2@@Z 0000000180030311     RTreeCooking.obj
 0002:0000431d       $ip2state$?buildFromTriangles@RTreeCooker@physx@@SAXAEAURTree@Gu@2@PEBVPxVec3@2@IPEBGPEBIIAEAV?$Array@IV?$ReflectionAllocator@I@shdfnd@physx@@@shdfnd@2@PEAURemapCallback@12@MW4Enum@PxMeshCookingHint@2@@Z 000000018003031d     RTreeCooking.obj
 0002:00004328       $unwind$?buildFromBounds@physx@@YAXAEAURTree@Gu@1@PEBUPxBounds3V@1@IAEAV?$Array@IV?$ReflectionAllocator@I@shdfnd@physx@@@shdfnd@1@PEAURemapCallback@RTreeCooker@1@AEAT__m128@@4MW4Enum@PxMeshCookingHint@1@@Z 0000000180030328     RTreeCooking.obj
 0002:00004350       $cppxdata$?buildFromBounds@physx@@YAXAEAURTree@Gu@1@PEBUPxBounds3V@1@IAEAV?$Array@IV?$ReflectionAllocator@I@shdfnd@physx@@@shdfnd@1@PEAURemapCallback@RTreeCooker@1@AEAT__m128@@4MW4Enum@PxMeshCookingHint@1@@Z 0000000180030350     RTreeCooking.obj
 0002:00004359       $stateUnwindMap$?buildFromBounds@physx@@YAXAEAURTree@Gu@1@PEBUPxBounds3V@1@IAEAV?$Array@IV?$ReflectionAllocator@I@shdfnd@physx@@@shdfnd@1@PEAURemapCallback@RTreeCooker@1@AEAT__m128@@4MW4Enum@PxMeshCookingHint@1@@Z 0000000180030359     RTreeCooking.obj
 0002:000043d4       $ip2state$?buildFromBounds@physx@@YAXAEAURTree@Gu@1@PEBUPxBounds3V@1@IAEAV?$Array@IV?$ReflectionAllocator@I@shdfnd@physx@@@shdfnd@1@PEAURemapCallback@RTreeCooker@1@AEAT__m128@@4MW4Enum@PxMeshCookingHint@1@@Z 00000001800303d4     RTreeCooking.obj
 0002:0000440c       $unwind$??1?$Array@VHalfEdge@ConvexHull@physx@@V?$ReflectionAllocator@VHalfEdge@ConvexHull@physx@@@shdfnd@3@@shdfnd@physx@@QEAA@XZ 000000018003040c     ConvexHullUtils.obj
 0002:0000440c       $unwind$??1?$Array@VPxPlane@physx@@V?$ReflectionAllocator@VPxPlane@physx@@@shdfnd@2@@shdfnd@physx@@QEAA@XZ 000000018003040c     ConvexHullUtils.obj
 0002:0000440c       $unwind$??1?$Array@VPair@@V?$ReflectionAllocator@VPair@@@shdfnd@physx@@@shdfnd@physx@@QEAA@XZ 000000018003040c     ConvexPolygonsBuilder.obj
 0002:0000440c       $unwind$??1?$Array@PEAUQuickHullFace@local@@V?$ReflectionAllocator@PEAUQuickHullFace@local@@@shdfnd@physx@@@shdfnd@physx@@QEAA@XZ 000000018003040c     QuickHullConvexHullLib.obj
 0002:0000440c       $unwind$??1?$Array@UExpandPoint@local@@V?$ReflectionAllocator@UExpandPoint@local@@@shdfnd@physx@@@shdfnd@physx@@QEAA@XZ 000000018003040c     QuickHullConvexHullLib.obj
 0002:0000440c       $unwind$??1?$Array@IV?$ReflectionAllocator@I@shdfnd@physx@@@shdfnd@physx@@QEAA@XZ 000000018003040c     RTreeCooking.obj
 0002:0000440c       $unwind$??1?$Array@UPxBounds3V@physx@@V?$ReflectionAllocator@UPxBounds3V@physx@@@shdfnd@2@@shdfnd@physx@@QEAA@XZ 000000018003040c     RTreeCooking.obj
 0002:0000440c       $unwind$??1?$Array@URTreeNodeNQ@physx@@V?$ReflectionAllocator@URTreeNodeNQ@physx@@@shdfnd@2@@shdfnd@physx@@QEAA@XZ 000000018003040c     RTreeCooking.obj
 0002:0000440c       $unwind$??1?$Array@URTreeNodeQ@Gu@physx@@V?$ReflectionAllocator@URTreeNodeQ@Gu@physx@@@shdfnd@3@@shdfnd@physx@@QEAA@XZ 000000018003040c     RTreeCooking.obj
 0002:0000440c       $unwind$??1?$Array@VPxVec3@physx@@V?$ReflectionAllocator@VPxVec3@physx@@@shdfnd@2@@shdfnd@physx@@QEAA@XZ 000000018003040c     RTreeCooking.obj
 0002:0000441c       $cppxdata$??1?$Array@VHalfEdge@ConvexHull@physx@@V?$ReflectionAllocator@VHalfEdge@ConvexHull@physx@@@shdfnd@3@@shdfnd@physx@@QEAA@XZ 000000018003041c     ConvexHullUtils.obj
 0002:0000441c       $cppxdata$??1?$Array@VPxPlane@physx@@V?$ReflectionAllocator@VPxPlane@physx@@@shdfnd@2@@shdfnd@physx@@QEAA@XZ 000000018003041c     ConvexHullUtils.obj
 0002:0000441c       $cppxdata$??1?$Array@VPair@@V?$ReflectionAllocator@VPair@@@shdfnd@physx@@@shdfnd@physx@@QEAA@XZ 000000018003041c     ConvexPolygonsBuilder.obj
 0002:0000441c       $cppxdata$??1?$Array@PEAUQuickHullFace@local@@V?$ReflectionAllocator@PEAUQuickHullFace@local@@@shdfnd@physx@@@shdfnd@physx@@QEAA@XZ 000000018003041c     QuickHullConvexHullLib.obj
 0002:0000441c       $cppxdata$??1?$Array@UExpandPoint@local@@V?$ReflectionAllocator@UExpandPoint@local@@@shdfnd@physx@@@shdfnd@physx@@QEAA@XZ 000000018003041c     QuickHullConvexHullLib.obj
 0002:0000441c       $cppxdata$??1?$Array@IV?$ReflectionAllocator@I@shdfnd@physx@@@shdfnd@physx@@QEAA@XZ 000000018003041c     RTreeCooking.obj
 0002:0000441c       $cppxdata$??1?$Array@UPxBounds3V@physx@@V?$ReflectionAllocator@UPxBounds3V@physx@@@shdfnd@2@@shdfnd@physx@@QEAA@XZ 000000018003041c     RTreeCooking.obj
 0002:0000441c       $cppxdata$??1?$Array@URTreeNodeNQ@physx@@V?$ReflectionAllocator@URTreeNodeNQ@physx@@@shdfnd@2@@shdfnd@physx@@QEAA@XZ 000000018003041c     RTreeCooking.obj
 0002:0000441c       $cppxdata$??1?$Array@URTreeNodeQ@Gu@physx@@V?$ReflectionAllocator@URTreeNodeQ@Gu@physx@@@shdfnd@3@@shdfnd@physx@@QEAA@XZ 000000018003041c     RTreeCooking.obj
 0002:0000441c       $cppxdata$??1?$Array@VPxVec3@physx@@V?$ReflectionAllocator@VPxVec3@physx@@@shdfnd@2@@shdfnd@physx@@QEAA@XZ 000000018003041c     RTreeCooking.obj
 0002:00004421       $ip2state$??1?$Array@VHalfEdge@ConvexHull@physx@@V?$ReflectionAllocator@VHalfEdge@ConvexHull@physx@@@shdfnd@3@@shdfnd@physx@@QEAA@XZ 0000000180030421     ConvexHullUtils.obj
 0002:00004421       $ip2state$??1?$Array@VPxPlane@physx@@V?$ReflectionAllocator@VPxPlane@physx@@@shdfnd@2@@shdfnd@physx@@QEAA@XZ 0000000180030421     ConvexHullUtils.obj
 0002:00004421       $ip2state$??1?$Array@VPair@@V?$ReflectionAllocator@VPair@@@shdfnd@physx@@@shdfnd@physx@@QEAA@XZ 0000000180030421     ConvexPolygonsBuilder.obj
 0002:00004421       $ip2state$??1?$Array@PEAUQuickHullFace@local@@V?$ReflectionAllocator@PEAUQuickHullFace@local@@@shdfnd@physx@@@shdfnd@physx@@QEAA@XZ 0000000180030421     QuickHullConvexHullLib.obj
 0002:00004421       $ip2state$??1?$Array@UExpandPoint@local@@V?$ReflectionAllocator@UExpandPoint@local@@@shdfnd@physx@@@shdfnd@physx@@QEAA@XZ 0000000180030421     QuickHullConvexHullLib.obj
 0002:00004421       $ip2state$??1?$Array@IV?$ReflectionAllocator@I@shdfnd@physx@@@shdfnd@physx@@QEAA@XZ 0000000180030421     RTreeCooking.obj
 0002:00004421       $ip2state$??1?$Array@UPxBounds3V@physx@@V?$ReflectionAllocator@UPxBounds3V@physx@@@shdfnd@2@@shdfnd@physx@@QEAA@XZ 0000000180030421     RTreeCooking.obj
 0002:00004421       $ip2state$??1?$Array@URTreeNodeNQ@physx@@V?$ReflectionAllocator@URTreeNodeNQ@physx@@@shdfnd@2@@shdfnd@physx@@QEAA@XZ 0000000180030421     RTreeCooking.obj
 0002:00004421       $ip2state$??1?$Array@URTreeNodeQ@Gu@physx@@V?$ReflectionAllocator@URTreeNodeQ@Gu@physx@@@shdfnd@3@@shdfnd@physx@@QEAA@XZ 0000000180030421     RTreeCooking.obj
 0002:00004421       $ip2state$??1?$Array@VPxVec3@physx@@V?$ReflectionAllocator@VPxVec3@physx@@@shdfnd@2@@shdfnd@physx@@QEAA@XZ 0000000180030421     RTreeCooking.obj
 0002:00004424       $chain$1$?allocate@?$Array@UPxBounds3V@physx@@V?$ReflectionAllocator@UPxBounds3V@physx@@@shdfnd@2@@shdfnd@physx@@IEAAPEAUPxBounds3V@3@I@Z 0000000180030424     RTreeCooking.obj
 0002:0000443c       $chain$3$?allocate@?$Array@UPxBounds3V@physx@@V?$ReflectionAllocator@UPxBounds3V@physx@@@shdfnd@2@@shdfnd@physx@@IEAAPEAUPxBounds3V@3@I@Z 000000018003043c     RTreeCooking.obj
 0002:00004450       $chain$4$?allocate@?$Array@UPxBounds3V@physx@@V?$ReflectionAllocator@UPxBounds3V@physx@@@shdfnd@2@@shdfnd@physx@@IEAAPEAUPxBounds3V@3@I@Z 0000000180030450     RTreeCooking.obj
 0002:00004460       $unwind$?growAndPushBack@?$Array@VHalfEdge@ConvexHull@physx@@V?$ReflectionAllocator@VHalfEdge@ConvexHull@physx@@@shdfnd@3@@shdfnd@physx@@IEAAAEAVHalfEdge@ConvexHull@3@AEBV453@@Z 0000000180030460     ConvexHullUtils.obj
 0002:00004460       $unwind$?growAndPushBack@?$Array@VPxPlane@physx@@V?$ReflectionAllocator@VPxPlane@physx@@@shdfnd@2@@shdfnd@physx@@IEAAAEAVPxPlane@3@AEBV43@@Z 0000000180030460     ConvexHullUtils.obj
 0002:00004460       $unwind$?resize@?$Array@VHalfEdge@ConvexHull@physx@@V?$ReflectionAllocator@VHalfEdge@ConvexHull@physx@@@shdfnd@3@@shdfnd@physx@@QEAAXIAEBVHalfEdge@ConvexHull@3@@Z 0000000180030460     ConvexHullUtils.obj
 0002:00004460       $unwind$?growAndPushBack@?$Array@PEAUQuickHullFace@local@@V?$ReflectionAllocator@PEAUQuickHullFace@local@@@shdfnd@physx@@@shdfnd@physx@@IEAAAEAPEAUQuickHullFace@local@@AEBQEAU45@@Z 0000000180030460     QuickHullConvexHullLib.obj
 0002:00004460       $unwind$?growAndPushBack@?$Array@PEAUQuickHullHalfEdge@local@@V?$ReflectionAllocator@PEAUQuickHullHalfEdge@local@@@shdfnd@physx@@@shdfnd@physx@@IEAAAEAPEAUQuickHullHalfEdge@local@@AEBQEAU45@@Z 0000000180030460     QuickHullConvexHullLib.obj
 0002:00004460       $unwind$?growAndPushBack@?$Array@PEAUQuickHullVertex@local@@V?$ReflectionAllocator@PEAUQuickHullVertex@local@@@shdfnd@physx@@@shdfnd@physx@@IEAAAEAPEAUQuickHullVertex@local@@AEBQEAU45@@Z 0000000180030460     QuickHullConvexHullLib.obj
 0002:00004460       $unwind$?growAndPushBack@?$Array@UExpandPoint@local@@V?$ReflectionAllocator@UExpandPoint@local@@@shdfnd@physx@@@shdfnd@physx@@IEAAAEAUExpandPoint@local@@AEBU45@@Z 0000000180030460     QuickHullConvexHullLib.obj
 0002:00004460       $unwind$?growAndPushBack@?$Array@UInterval@physx@@V?$InlineAllocator@$0CAAA@V?$ReflectionAllocator@UInterval@physx@@@shdfnd@physx@@@shdfnd@2@@shdfnd@physx@@IEAAAEAUInterval@3@AEBU43@@Z 0000000180030460     RTreeCooking.obj
 0002:00004460       $unwind$?growAndPushBack@?$Array@UPxBounds3V@physx@@V?$ReflectionAllocator@UPxBounds3V@physx@@@shdfnd@2@@shdfnd@physx@@IEAAAEAUPxBounds3V@3@AEBU43@@Z 0000000180030460     RTreeCooking.obj
 0002:00004460       $unwind$?growAndPushBack@?$Array@URTreeNodeNQ@physx@@V?$ReflectionAllocator@URTreeNodeNQ@physx@@@shdfnd@2@@shdfnd@physx@@IEAAAEAURTreeNodeNQ@3@AEBU43@@Z 0000000180030460     RTreeCooking.obj
 0002:00004460       $unwind$?growAndPushBack@?$Array@URTreeNodeQ@Gu@physx@@V?$ReflectionAllocator@URTreeNodeQ@Gu@physx@@@shdfnd@3@@shdfnd@physx@@IEAAAEAURTreeNodeQ@Gu@3@AEBU453@@Z 0000000180030460     RTreeCooking.obj
 0002:00004460       $unwind$?resize@?$Array@IV?$ReflectionAllocator@I@shdfnd@physx@@@shdfnd@physx@@QEAAXIAEBI@Z 0000000180030460     RTreeCooking.obj
 0002:00004460       $unwind$__scrt_dllmain_exception_filter 0000000180030460     MSVCRT:utility.obj
 0002:00004474       $chain$0$?recreate@?$Array@UPxBounds3V@physx@@V?$ReflectionAllocator@UPxBounds3V@physx@@@shdfnd@2@@shdfnd@physx@@IEAAXI@Z 0000000180030474     RTreeCooking.obj
 0002:00004488       $chain$1$?recreate@?$Array@UPxBounds3V@physx@@V?$ReflectionAllocator@UPxBounds3V@physx@@@shdfnd@2@@shdfnd@physx@@IEAAXI@Z 0000000180030488     RTreeCooking.obj
 0002:00004498       $unwind$?growAndPushBack@?$Array@IV?$ReflectionAllocator@I@shdfnd@physx@@@shdfnd@physx@@IEAAAEAIAEBI@Z 0000000180030498     RTreeCooking.obj
 0002:000044a8       $chain$0$?growAndPushBack@?$Array@IV?$ReflectionAllocator@I@shdfnd@physx@@@shdfnd@physx@@IEAAAEAIAEBI@Z 00000001800304a8     RTreeCooking.obj
 0002:000044bc       $chain$2$?growAndPushBack@?$Array@IV?$ReflectionAllocator@I@shdfnd@physx@@@shdfnd@physx@@IEAAAEAIAEBI@Z 00000001800304bc     RTreeCooking.obj
 0002:000044d0       $chain$1$?growAndPushBack@?$Array@IV?$ReflectionAllocator@I@shdfnd@physx@@@shdfnd@physx@@IEAAAEAIAEBI@Z 00000001800304d0     RTreeCooking.obj
 0002:000044e0       $chain$0$?recreate@?$Array@IV?$ReflectionAllocator@I@shdfnd@physx@@@shdfnd@physx@@IEAAXI@Z 00000001800304e0     RTreeCooking.obj
 0002:000044f4       $chain$1$?recreate@?$Array@IV?$ReflectionAllocator@I@shdfnd@physx@@@shdfnd@physx@@IEAAXI@Z 00000001800304f4     RTreeCooking.obj
 0002:00004504       $chain$1$?allocate@?$Array@VPxVec3@physx@@V?$ReflectionAllocator@VPxVec3@physx@@@shdfnd@2@@shdfnd@physx@@IEAAPEAVPxVec3@3@I@Z 0000000180030504     RTreeCooking.obj
 0002:0000451c       $chain$3$?allocate@?$Array@VPxVec3@physx@@V?$ReflectionAllocator@VPxVec3@physx@@@shdfnd@2@@shdfnd@physx@@IEAAPEAVPxVec3@3@I@Z 000000018003051c     RTreeCooking.obj
 0002:00004530       $chain$4$?allocate@?$Array@VPxVec3@physx@@V?$ReflectionAllocator@VPxVec3@physx@@@shdfnd@2@@shdfnd@physx@@IEAAPEAVPxVec3@3@I@Z 0000000180030530     RTreeCooking.obj
 0002:00004540       $chain$0$?recreate@?$Array@VPxVec3@physx@@V?$ReflectionAllocator@VPxVec3@physx@@@shdfnd@2@@shdfnd@physx@@IEAAXI@Z 0000000180030540     RTreeCooking.obj
 0002:00004554       $chain$1$?recreate@?$Array@VPxVec3@physx@@V?$ReflectionAllocator@VPxVec3@physx@@@shdfnd@2@@shdfnd@physx@@IEAAXI@Z 0000000180030554     RTreeCooking.obj
 0002:00004564       $unwind$?sort4@SubSortQuick@physx@@QEAAXPEIAIIAEAV?$Array@URTreeNodeNQ@physx@@V?$ReflectionAllocator@URTreeNodeNQ@physx@@@shdfnd@2@@shdfnd@2@AEAIAEAUPxBounds3V@2@I@Z 0000000180030564     RTreeCooking.obj
 0002:00004584       $chain$1$?allocate@?$Array@URTreeNodeNQ@physx@@V?$ReflectionAllocator@URTreeNodeNQ@physx@@@shdfnd@2@@shdfnd@physx@@IEAAPEAURTreeNodeNQ@3@I@Z 0000000180030584     RTreeCooking.obj
 0002:0000459c       $chain$3$?allocate@?$Array@URTreeNodeNQ@physx@@V?$ReflectionAllocator@URTreeNodeNQ@physx@@@shdfnd@2@@shdfnd@physx@@IEAAPEAURTreeNodeNQ@3@I@Z 000000018003059c     RTreeCooking.obj
 0002:000045b0       $chain$4$?allocate@?$Array@URTreeNodeNQ@physx@@V?$ReflectionAllocator@URTreeNodeNQ@physx@@@shdfnd@2@@shdfnd@physx@@IEAAPEAURTreeNodeNQ@3@I@Z 00000001800305b0     RTreeCooking.obj
 0002:000045c0       $chain$0$?recreate@?$Array@URTreeNodeNQ@physx@@V?$ReflectionAllocator@URTreeNodeNQ@physx@@@shdfnd@2@@shdfnd@physx@@IEAAXI@Z 00000001800305c0     RTreeCooking.obj
 0002:000045d4       $chain$1$?recreate@?$Array@URTreeNodeNQ@physx@@V?$ReflectionAllocator@URTreeNodeNQ@physx@@@shdfnd@2@@shdfnd@physx@@IEAAXI@Z 00000001800305d4     RTreeCooking.obj
 0002:000045e4       $unwind$??$quickSelectFirstK@UBoundsLTE@physx@@@quickSelect@physx@@YAXPEIAIIIIAEBUBoundsLTE@1@@Z 00000001800305e4     RTreeCooking.obj
 0002:00004600       $unwind$?split@SubSortSAH@physx@@QEAAIPEAII@Z 0000000180030600     RTreeCooking.obj
 0002:00004618       $chain$2$?split@SubSortSAH@physx@@QEAAIPEAII@Z 0000000180030618     RTreeCooking.obj
 0002:00004634       $chain$5$?split@SubSortSAH@physx@@QEAAIPEAII@Z 0000000180030634     RTreeCooking.obj
 0002:00004650       $chain$6$?split@SubSortSAH@physx@@QEAAIPEAII@Z 0000000180030650     RTreeCooking.obj
 0002:00004650       $chain$8$?split@SubSortSAH@physx@@QEAAIPEAII@Z 0000000180030650     RTreeCooking.obj
 0002:00004664       $chain$7$?split@SubSortSAH@physx@@QEAAIPEAII@Z 0000000180030664     RTreeCooking.obj
 0002:00004680       $chain$9$?split@SubSortSAH@physx@@QEAAIPEAII@Z 0000000180030680     RTreeCooking.obj
 0002:00004690       $unwind$?sort4@SubSortSAH@physx@@QEAAXPEAIIAEAV?$Array@URTreeNodeNQ@physx@@V?$ReflectionAllocator@URTreeNodeNQ@physx@@@shdfnd@2@@shdfnd@2@AEAIIPEAURTreeNodeNQ@2@@Z 0000000180030690     RTreeCooking.obj
 0002:000046c4       $cppxdata$?sort4@SubSortSAH@physx@@QEAAXPEAIIAEAV?$Array@URTreeNodeNQ@physx@@V?$ReflectionAllocator@URTreeNodeNQ@physx@@@shdfnd@2@@shdfnd@2@AEAIIPEAURTreeNodeNQ@2@@Z 00000001800306c4     RTreeCooking.obj
 0002:000046cd       $stateUnwindMap$?sort4@SubSortSAH@physx@@QEAAXPEAIIAEAV?$Array@URTreeNodeNQ@physx@@V?$ReflectionAllocator@URTreeNodeNQ@physx@@@shdfnd@2@@shdfnd@2@AEAIIPEAURTreeNodeNQ@2@@Z 00000001800306cd     RTreeCooking.obj
 0002:000046e1       $ip2state$?sort4@SubSortSAH@physx@@QEAAXPEAIIAEAV?$Array@URTreeNodeNQ@physx@@V?$ReflectionAllocator@URTreeNodeNQ@physx@@@shdfnd@2@@shdfnd@2@AEAIIPEAURTreeNodeNQ@2@@Z 00000001800306e1     RTreeCooking.obj
 0002:000046ec       $unwind$??1?$Array@UInterval@physx@@V?$InlineAllocator@$0CAAA@V?$ReflectionAllocator@UInterval@physx@@@shdfnd@physx@@@shdfnd@2@@shdfnd@physx@@QEAA@XZ 00000001800306ec     RTreeCooking.obj
 0002:000046fc       $cppxdata$??1?$Array@UInterval@physx@@V?$InlineAllocator@$0CAAA@V?$ReflectionAllocator@UInterval@physx@@@shdfnd@physx@@@shdfnd@2@@shdfnd@physx@@QEAA@XZ 00000001800306fc     RTreeCooking.obj
 0002:00004701       $ip2state$??1?$Array@UInterval@physx@@V?$InlineAllocator@$0CAAA@V?$ReflectionAllocator@UInterval@physx@@@shdfnd@physx@@@shdfnd@2@@shdfnd@physx@@QEAA@XZ 0000000180030701     RTreeCooking.obj
 0002:00004704       $chain$1$?allocate@?$Array@UInterval@physx@@V?$InlineAllocator@$0CAAA@V?$ReflectionAllocator@UInterval@physx@@@shdfnd@physx@@@shdfnd@2@@shdfnd@physx@@IEAAPEAUInterval@3@I@Z 0000000180030704     RTreeCooking.obj
 0002:0000471c       $chain$3$?allocate@?$Array@UInterval@physx@@V?$InlineAllocator@$0CAAA@V?$ReflectionAllocator@UInterval@physx@@@shdfnd@physx@@@shdfnd@2@@shdfnd@physx@@IEAAPEAUInterval@3@I@Z 000000018003071c     RTreeCooking.obj
 0002:00004730       $chain$4$?allocate@?$Array@UInterval@physx@@V?$InlineAllocator@$0CAAA@V?$ReflectionAllocator@UInterval@physx@@@shdfnd@physx@@@shdfnd@2@@shdfnd@physx@@IEAAPEAUInterval@3@I@Z 0000000180030730     RTreeCooking.obj
 0002:00004740       $unwind$??1?$InlineArray@UInterval@physx@@$0EAA@V?$ReflectionAllocator@UInterval@physx@@@shdfnd@2@@shdfnd@physx@@QEAA@XZ 0000000180030740     RTreeCooking.obj
 0002:00004750       $cppxdata$??1?$InlineArray@UInterval@physx@@$0EAA@V?$ReflectionAllocator@UInterval@physx@@@shdfnd@2@@shdfnd@physx@@QEAA@XZ 0000000180030750     RTreeCooking.obj
 0002:00004759       $ip2state$??1?$InlineArray@UInterval@physx@@$0EAA@V?$ReflectionAllocator@UInterval@physx@@@shdfnd@2@@shdfnd@physx@@QEAA@XZ 0000000180030759     RTreeCooking.obj
 0002:00004760       $chain$1$?allocate@?$Array@URTreeNodeQ@Gu@physx@@V?$ReflectionAllocator@URTreeNodeQ@Gu@physx@@@shdfnd@3@@shdfnd@physx@@IEAAPEAURTreeNodeQ@Gu@3@I@Z 0000000180030760     RTreeCooking.obj
 0002:00004778       $chain$3$?allocate@?$Array@URTreeNodeQ@Gu@physx@@V?$ReflectionAllocator@URTreeNodeQ@Gu@physx@@@shdfnd@3@@shdfnd@physx@@IEAAPEAURTreeNodeQ@Gu@3@I@Z 0000000180030778     RTreeCooking.obj
 0002:0000478c       $chain$4$?allocate@?$Array@URTreeNodeQ@Gu@physx@@V?$ReflectionAllocator@URTreeNodeQ@Gu@physx@@@shdfnd@3@@shdfnd@physx@@IEAAPEAURTreeNodeQ@Gu@3@I@Z 000000018003078c     RTreeCooking.obj
 0002:0000479c       $chain$0$?recreate@?$Array@URTreeNodeQ@Gu@physx@@V?$ReflectionAllocator@URTreeNodeQ@Gu@physx@@@shdfnd@3@@shdfnd@physx@@IEAAXI@Z 000000018003079c     RTreeCooking.obj
 0002:000047b0       $chain$1$?recreate@?$Array@URTreeNodeQ@Gu@physx@@V?$ReflectionAllocator@URTreeNodeQ@Gu@physx@@@shdfnd@3@@shdfnd@physx@@IEAAXI@Z 00000001800307b0     RTreeCooking.obj
 0002:000047c0       $unwind$??$sort@IU?$Less@I@shdfnd@physx@@V?$ReflectionAllocator@I@23@@shdfnd@physx@@YAXPEAIIAEBU?$Less@I@01@AEBV?$ReflectionAllocator@I@01@I@Z 00000001800307c0     RTreeCooking.obj
 0002:000047ec       $cppxdata$??$sort@IU?$Less@I@shdfnd@physx@@V?$ReflectionAllocator@I@23@@shdfnd@physx@@YAXPEAIIAEBU?$Less@I@01@AEBV?$ReflectionAllocator@I@01@I@Z 00000001800307ec     RTreeCooking.obj
 0002:000047f5       $stateUnwindMap$??$sort@IU?$Less@I@shdfnd@physx@@V?$ReflectionAllocator@I@23@@shdfnd@physx@@YAXPEAIIAEBU?$Less@I@01@AEBV?$ReflectionAllocator@I@01@I@Z 00000001800307f5     RTreeCooking.obj
 0002:000047f5       $stateUnwindMap$??$sort@UEdgeTriLookup@physx@@U?$Less@UEdgeTriLookup@physx@@@shdfnd@2@V?$ReflectionAllocator@UEdgeTriLookup@physx@@@42@@shdfnd@physx@@YAXPEAUEdgeTriLookup@1@IAEBU?$Less@UEdgeTriLookup@physx@@@01@AEBV?$ReflectionAllocator@UEdgeTriLookup@physx@@@01@I@Z 00000001800307f5     TriangleMeshBuilder.obj
 0002:0000480c       $ip2state$??$sort@IU?$Less@I@shdfnd@physx@@V?$ReflectionAllocator@I@23@@shdfnd@physx@@YAXPEAIIAEBU?$Less@I@01@AEBV?$ReflectionAllocator@I@01@I@Z 000000018003080c     RTreeCooking.obj
 0002:00004818       $unwind$??$sort@IUSortBoundsPredicate@physx@@V?$ReflectionAllocator@I@shdfnd@2@@shdfnd@physx@@YAXPEAIIAEBUSortBoundsPredicate@1@AEBV?$ReflectionAllocator@I@01@I@Z 0000000180030818     RTreeCooking.obj
 0002:00004844       $cppxdata$??$sort@IUSortBoundsPredicate@physx@@V?$ReflectionAllocator@I@shdfnd@2@@shdfnd@physx@@YAXPEAIIAEBUSortBoundsPredicate@1@AEBV?$ReflectionAllocator@I@01@I@Z 0000000180030844     RTreeCooking.obj
 0002:0000484d       $stateUnwindMap$??$sort@IUSortBoundsPredicate@physx@@V?$ReflectionAllocator@I@shdfnd@2@@shdfnd@physx@@YAXPEAIIAEBUSortBoundsPredicate@1@AEBV?$ReflectionAllocator@I@01@I@Z 000000018003084d     RTreeCooking.obj
 0002:00004864       $ip2state$??$sort@IUSortBoundsPredicate@physx@@V?$ReflectionAllocator@I@shdfnd@2@@shdfnd@physx@@YAXPEAIIAEBUSortBoundsPredicate@1@AEBV?$ReflectionAllocator@I@01@I@Z 0000000180030864     RTreeCooking.obj
 0002:00004870       $unwind$??1?$ScopedPointer@UQuickHullHalfEdge@local@@VTempAllocator@shdfnd@physx@@@shdfnd@physx@@QEAA@XZ 0000000180030870     QuickHullConvexHullLib.obj
 0002:00004870       $unwind$??1?$ScopedPointer@VPxVec3@physx@@VTempAllocator@shdfnd@2@@shdfnd@physx@@QEAA@XZ 0000000180030870     QuickHullConvexHullLib.obj
 0002:00004870       $unwind$??1?$ScopedPointer@HVTempAllocator@shdfnd@physx@@@shdfnd@physx@@QEAA@XZ 0000000180030870     RTreeCooking.obj
 0002:00004880       $unwind$??1?$Stack@V?$ReflectionAllocator@I@shdfnd@physx@@@internal@shdfnd@physx@@QEAA@XZ 0000000180030880     RTreeCooking.obj
 0002:00004880       $unwind$??1?$Stack@V?$ReflectionAllocator@UEdgeTriLookup@physx@@@shdfnd@physx@@@internal@shdfnd@physx@@QEAA@XZ 0000000180030880     TriangleMeshBuilder.obj
 0002:00004890       $cppxdata$??1?$Stack@V?$ReflectionAllocator@I@shdfnd@physx@@@internal@shdfnd@physx@@QEAA@XZ 0000000180030890     RTreeCooking.obj
 0002:00004890       $cppxdata$??1?$Stack@V?$ReflectionAllocator@UEdgeTriLookup@physx@@@shdfnd@physx@@@internal@shdfnd@physx@@QEAA@XZ 0000000180030890     TriangleMeshBuilder.obj
 0002:00004895       $ip2state$??1?$Stack@V?$ReflectionAllocator@I@shdfnd@physx@@@internal@shdfnd@physx@@QEAA@XZ 0000000180030895     RTreeCooking.obj
 0002:00004895       $ip2state$??1?$Stack@V?$ReflectionAllocator@UEdgeTriLookup@physx@@@shdfnd@physx@@@internal@shdfnd@physx@@QEAA@XZ 0000000180030895     TriangleMeshBuilder.obj
 0002:00004898       $unwind$??$smallSort@I$$CBUSortBoundsPredicate@physx@@@internal@shdfnd@physx@@YAXPEAIHHAEBUSortBoundsPredicate@2@@Z 0000000180030898     RTreeCooking.obj
 0002:000048a4       $chain$6$??$smallSort@I$$CBUSortBoundsPredicate@physx@@@internal@shdfnd@physx@@YAXPEAIHHAEBUSortBoundsPredicate@2@@Z 00000001800308a4     RTreeCooking.obj
 0002:000048d0       $chain$7$??$smallSort@I$$CBUSortBoundsPredicate@physx@@@internal@shdfnd@physx@@YAXPEAIHHAEBUSortBoundsPredicate@2@@Z 00000001800308d0     RTreeCooking.obj
 0002:000048e0       $unwind$??1MeshDataBase@Gu@physx@@UEAA@XZ 00000001800308e0     TriangleMeshBuilder.obj
 0002:000048f8       $cppxdata$??1MeshDataBase@Gu@physx@@UEAA@XZ 00000001800308f8     TriangleMeshBuilder.obj
 0002:000048fd       $ip2state$??1MeshDataBase@Gu@physx@@UEAA@XZ 00000001800308fd     TriangleMeshBuilder.obj
 0002:00004900       $unwind$?preallocate@QuickHull@local@@QEAAXI@Z 0000000180030900     QuickHullConvexHullLib.obj
 0002:00004900       $unwind$?allocateVertices@MeshDataBase@Gu@physx@@QEAAPEAVPxVec3@3@I@Z 0000000180030900     TriangleMeshBuilder.obj
 0002:00004910       $unwind$??_GMeshDataBase@Gu@physx@@UEAAPEAXI@Z 0000000180030910     TriangleMeshBuilder.obj
 0002:00004910       $unwind$??_GRTreeTriangleData@Gu@physx@@UEAAPEAXI@Z 0000000180030910     TriangleMeshBuilder.obj
 0002:00004910       $unwind$??_GTriangleMeshData@Gu@physx@@UEAAPEAXI@Z 0000000180030910     TriangleMeshBuilder.obj
 0002:00004924       $cppxdata$??_GMeshDataBase@Gu@physx@@UEAAPEAXI@Z 0000000180030924     TriangleMeshBuilder.obj
 0002:00004924       $cppxdata$??_GRTreeTriangleData@Gu@physx@@UEAAPEAXI@Z 0000000180030924     TriangleMeshBuilder.obj
 0002:00004924       $cppxdata$??_GTriangleMeshData@Gu@physx@@UEAAPEAXI@Z 0000000180030924     TriangleMeshBuilder.obj
 0002:0000492d       $ip2state$??_GMeshDataBase@Gu@physx@@UEAAPEAXI@Z 000000018003092d     TriangleMeshBuilder.obj
 0002:0000492d       $ip2state$??_GRTreeTriangleData@Gu@physx@@UEAAPEAXI@Z 000000018003092d     TriangleMeshBuilder.obj
 0002:0000492d       $ip2state$??_GTriangleMeshData@Gu@physx@@UEAAPEAXI@Z 000000018003092d     TriangleMeshBuilder.obj
 0002:00004934       $unwind$??1TriangleMeshData@Gu@physx@@UEAA@XZ 0000000180030934     TriangleMeshBuilder.obj
 0002:00004948       $cppxdata$??1TriangleMeshData@Gu@physx@@UEAA@XZ 0000000180030948     TriangleMeshBuilder.obj
 0002:00004951       $ip2state$??1TriangleMeshData@Gu@physx@@UEAA@XZ 0000000180030951     TriangleMeshBuilder.obj
 0002:00004958       $unwind$?allocateTriangles@TriangleMeshData@Gu@physx@@QEAAPEAXI_NI@Z 0000000180030958     TriangleMeshBuilder.obj
 0002:00004970       $chain$0$??$?_UG@@YAPEAX_KV?$ReflectionAllocator@G@shdfnd@physx@@PEBDH@Z 0000000180030970     TriangleMeshBuilder.obj
 0002:00004984       $chain$1$??$?_UG@@YAPEAX_KV?$ReflectionAllocator@G@shdfnd@physx@@PEBDH@Z 0000000180030984     TriangleMeshBuilder.obj
 0002:00004994       $unwind$??1RTreeTriangleData@Gu@physx@@UEAA@XZ 0000000180030994     TriangleMeshBuilder.obj
 0002:000049a8       $cppxdata$??1RTreeTriangleData@Gu@physx@@UEAA@XZ 00000001800309a8     TriangleMeshBuilder.obj
 0002:000049b1       $ip2state$??1RTreeTriangleData@Gu@physx@@UEAA@XZ 00000001800309b1     TriangleMeshBuilder.obj
 0002:000049b8       $unwind$??_GBV4TriangleData@Gu@physx@@UEAAPEAXI@Z 00000001800309b8     TriangleMeshBuilder.obj
 0002:000049cc       $cppxdata$??_GBV4TriangleData@Gu@physx@@UEAAPEAXI@Z 00000001800309cc     TriangleMeshBuilder.obj
 0002:000049d5       $ip2state$??_GBV4TriangleData@Gu@physx@@UEAAPEAXI@Z 00000001800309d5     TriangleMeshBuilder.obj
 0002:000049dc       $unwind$??1TriangleMeshBuilder@physx@@UEAA@XZ 00000001800309dc     TriangleMeshBuilder.obj
 0002:000049f0       $cppxdata$??1TriangleMeshBuilder@physx@@UEAA@XZ 00000001800309f0     TriangleMeshBuilder.obj
 0002:000049f9       $ip2state$??1TriangleMeshBuilder@physx@@UEAA@XZ 00000001800309f9     TriangleMeshBuilder.obj
 0002:00004a00       $unwind$?cleanMesh@TriangleMeshBuilder@physx@@QEAA_N_NPEAW4Enum@PxTriangleMeshCookingResult@2@@Z 0000000180030a00     TriangleMeshBuilder.obj
 0002:00004a38       $cppxdata$?cleanMesh@TriangleMeshBuilder@physx@@QEAA_N_NPEAW4Enum@PxTriangleMeshCookingResult@2@@Z 0000000180030a38     TriangleMeshBuilder.obj
 0002:00004a41       $stateUnwindMap$?computeHullPolygons@ConvexPolygonsBuilder@physx@@QEAA_NAEBIPEBVPxVec3@2@0PEBI@Z 0000000180030a41     ConvexPolygonsBuilder.obj
 0002:00004a41       $stateUnwindMap$?cleanMesh@TriangleMeshBuilder@physx@@QEAA_N_NPEAW4Enum@PxTriangleMeshCookingResult@2@@Z 0000000180030a41     TriangleMeshBuilder.obj
 0002:00004a48       $ip2state$?cleanMesh@TriangleMeshBuilder@physx@@QEAA_N_NPEAW4Enum@PxTriangleMeshCookingResult@2@@Z 0000000180030a48     TriangleMeshBuilder.obj
 0002:00004a50       $unwind$?remapTopology@TriangleMeshBuilder@physx@@QEAAXPEBI@Z 0000000180030a50     TriangleMeshBuilder.obj
 0002:00004a5c       $chain$4$?remapTopology@TriangleMeshBuilder@physx@@QEAAXPEBI@Z 0000000180030a5c     TriangleMeshBuilder.obj
 0002:00004a80       $chain$5$?remapTopology@TriangleMeshBuilder@physx@@QEAAXPEBI@Z 0000000180030a80     TriangleMeshBuilder.obj
 0002:00004aa0       $chain$6$?remapTopology@TriangleMeshBuilder@physx@@QEAAXPEBI@Z 0000000180030aa0     TriangleMeshBuilder.obj
 0002:00004ab0       $unwind$?createSharedEdgeData@TriangleMeshBuilder@physx@@QEAAX_N0@Z 0000000180030ab0     TriangleMeshBuilder.obj
 0002:00004ad0       $cppxdata$?createSharedEdgeData@TriangleMeshBuilder@physx@@QEAAX_N0@Z 0000000180030ad0     TriangleMeshBuilder.obj
 0002:00004ad9       $stateUnwindMap$?createSharedEdgeData@TriangleMeshBuilder@physx@@QEAAX_N0@Z 0000000180030ad9     TriangleMeshBuilder.obj
 0002:00004ae4       $ip2state$?createSharedEdgeData@TriangleMeshBuilder@physx@@QEAAX_N0@Z 0000000180030ae4     TriangleMeshBuilder.obj
 0002:00004af0       $unwind$?createGRBMidPhaseAndData@TriangleMeshBuilder@physx@@QEAAXI@Z 0000000180030af0     TriangleMeshBuilder.obj
 0002:00004b0c       $cppxdata$?createGRBMidPhaseAndData@TriangleMeshBuilder@physx@@QEAAXI@Z 0000000180030b0c     TriangleMeshBuilder.obj
 0002:00004b15       $stateUnwindMap$?createGRBMidPhaseAndData@TriangleMeshBuilder@physx@@QEAAXI@Z 0000000180030b15     TriangleMeshBuilder.obj
 0002:00004b1b       $ip2state$?createGRBMidPhaseAndData@TriangleMeshBuilder@physx@@QEAAXI@Z 0000000180030b1b     TriangleMeshBuilder.obj
 0002:00004b24       $unwind$?loadFromDesc@TriangleMeshBuilder@physx@@QEAA_NAEBVPxTriangleMeshDesc@2@PEAW4Enum@PxTriangleMeshCookingResult@2@_N@Z 0000000180030b24     TriangleMeshBuilder.obj
 0002:00004b34       $chain$2$?loadFromDesc@TriangleMeshBuilder@physx@@QEAA_NAEBVPxTriangleMeshDesc@2@PEAW4Enum@PxTriangleMeshCookingResult@2@_N@Z 0000000180030b34     TriangleMeshBuilder.obj
 0002:00004b50       $chain$4$?loadFromDesc@TriangleMeshBuilder@physx@@QEAA_NAEBVPxTriangleMeshDesc@2@PEAW4Enum@PxTriangleMeshCookingResult@2@_N@Z 0000000180030b50     TriangleMeshBuilder.obj
 0002:00004b6c       $chain$5$?loadFromDesc@TriangleMeshBuilder@physx@@QEAA_NAEBVPxTriangleMeshDesc@2@PEAW4Enum@PxTriangleMeshCookingResult@2@_N@Z 0000000180030b6c     TriangleMeshBuilder.obj
 0002:00004b7c       $unwind$?save@TriangleMeshBuilder@physx@@QEBA_NAEAVPxOutputStream@2@_NAEBUPxCookingParams@2@@Z 0000000180030b7c     TriangleMeshBuilder.obj
 0002:00004b98       $chain$3$?save@TriangleMeshBuilder@physx@@QEBA_NAEAVPxOutputStream@2@_NAEBUPxCookingParams@2@@Z 0000000180030b98     TriangleMeshBuilder.obj
 0002:00004bac       $unwind$?checkMeshIndicesSize@TriangleMeshBuilder@physx@@QEAAXXZ 0000000180030bac     TriangleMeshBuilder.obj
 0002:00004bb8       $chain$1$?checkMeshIndicesSize@TriangleMeshBuilder@physx@@QEAAXXZ 0000000180030bb8     TriangleMeshBuilder.obj
 0002:00004bd0       $chain$3$?checkMeshIndicesSize@TriangleMeshBuilder@physx@@QEAAXXZ 0000000180030bd0     TriangleMeshBuilder.obj
 0002:00004be8       $chain$4$?checkMeshIndicesSize@TriangleMeshBuilder@physx@@QEAAXXZ 0000000180030be8     TriangleMeshBuilder.obj
 0002:00004bfc       $chain$5$?checkMeshIndicesSize@TriangleMeshBuilder@physx@@QEAAXXZ 0000000180030bfc     TriangleMeshBuilder.obj
 0002:00004c0c       $unwind$?importMesh@TriangleMeshBuilder@physx@@IEAA_NAEBVPxTriangleMeshDesc@2@AEBUPxCookingParams@2@PEAW4Enum@PxTriangleMeshCookingResult@2@_N@Z 0000000180030c0c     TriangleMeshBuilder.obj
 0002:00004c28       $unwind$?createMidPhaseStructure@RTreeTriangleMeshBuilder@physx@@UEAAXXZ 0000000180030c28     TriangleMeshBuilder.obj
 0002:00004c38       $cppxdata$?createMidPhaseStructure@RTreeTriangleMeshBuilder@physx@@UEAAXXZ 0000000180030c38     TriangleMeshBuilder.obj
 0002:00004c41       $stateUnwindMap$?createMidPhaseStructure@RTreeTriangleMeshBuilder@physx@@UEAAXXZ 0000000180030c41     TriangleMeshBuilder.obj
 0002:00004c53       $ip2state$?createMidPhaseStructure@RTreeTriangleMeshBuilder@physx@@UEAAXXZ 0000000180030c53     TriangleMeshBuilder.obj
 0002:00004c60       $unwind$?saveMidPhaseStructure@RTreeTriangleMeshBuilder@physx@@UEBAXAEAVPxOutputStream@2@_N@Z 0000000180030c60     TriangleMeshBuilder.obj
 0002:00004c70       $chain$0$?saveMidPhaseStructure@RTreeTriangleMeshBuilder@physx@@UEBAXAEAVPxOutputStream@2@_N@Z 0000000180030c70     TriangleMeshBuilder.obj
 0002:00004c84       $chain$1$?saveMidPhaseStructure@RTreeTriangleMeshBuilder@physx@@UEBAXAEAVPxOutputStream@2@_N@Z 0000000180030c84     TriangleMeshBuilder.obj
 0002:00004c94       $unwind$??0BV4TriangleMeshBuilder@physx@@QEAA@AEBUPxCookingParams@1@@Z 0000000180030c94     TriangleMeshBuilder.obj
 0002:00004ca8       $cppxdata$??0BV4TriangleMeshBuilder@physx@@QEAA@AEBUPxCookingParams@1@@Z 0000000180030ca8     TriangleMeshBuilder.obj
 0002:00004cb1       $stateUnwindMap$??0BV4TriangleMeshBuilder@physx@@QEAA@AEBUPxCookingParams@1@@Z 0000000180030cb1     TriangleMeshBuilder.obj
 0002:00004cc3       $ip2state$??0BV4TriangleMeshBuilder@physx@@QEAA@AEBUPxCookingParams@1@@Z 0000000180030cc3     TriangleMeshBuilder.obj
 0002:00004ccc       $unwind$?createMidPhaseStructure@BV4TriangleMeshBuilder@physx@@UEAAXXZ 0000000180030ccc     TriangleMeshBuilder.obj
 0002:00004cd8       $chain$2$?createMidPhaseStructure@BV4TriangleMeshBuilder@physx@@UEAAXXZ 0000000180030cd8     TriangleMeshBuilder.obj
 0002:00004cf4       $chain$3$?createMidPhaseStructure@BV4TriangleMeshBuilder@physx@@UEAAXXZ 0000000180030cf4     TriangleMeshBuilder.obj
 0002:00004d08       $chain$4$?createMidPhaseStructure@BV4TriangleMeshBuilder@physx@@UEAAXXZ 0000000180030d08     TriangleMeshBuilder.obj
 0002:00004d18       $chain$5$?createMidPhaseStructure@BV4TriangleMeshBuilder@physx@@UEAAXXZ 0000000180030d18     TriangleMeshBuilder.obj
 0002:00004d2c       $unwind$?createMidPhaseStructure@BV32TriangleMeshBuilder@physx@@SAXAEBUPxCookingParams@2@AEAVTriangleMeshData@Gu@2@AEAVBV32Tree@52@@Z 0000000180030d2c     TriangleMeshBuilder.obj
 0002:00004d4c       $cppxdata$?createMidPhaseStructure@BV32TriangleMeshBuilder@physx@@SAXAEBUPxCookingParams@2@AEAVTriangleMeshData@Gu@2@AEAVBV32Tree@52@@Z 0000000180030d4c     TriangleMeshBuilder.obj
 0002:00004d55       $stateUnwindMap$?createMidPhaseStructure@BV32TriangleMeshBuilder@physx@@SAXAEBUPxCookingParams@2@AEAVTriangleMeshData@Gu@2@AEAVBV32Tree@52@@Z 0000000180030d55     TriangleMeshBuilder.obj
 0002:00004d5c       $ip2state$?createMidPhaseStructure@BV32TriangleMeshBuilder@physx@@SAXAEBUPxCookingParams@2@AEAVTriangleMeshData@Gu@2@AEAVBV32Tree@52@@Z 0000000180030d5c     TriangleMeshBuilder.obj
 0002:00004d64       $unwind$?findAdjacent@physx@@YAIPEBVPxVec3@1@0PEBUuint3@1@IIIAEBVPxPlane@1@PEAUEdgeTriLookup@1@I@Z 0000000180030d64     TriangleMeshBuilder.obj
 0002:00004d88       $unwind$?buildAdjacencies@physx@@YAXPEAUuint4@1@PEAVPxVec3@1@PEBV31@PEBUuint3@1@I@Z 0000000180030d88     TriangleMeshBuilder.obj
 0002:00004d94       $chain$7$?buildAdjacencies@physx@@YAXPEAUuint4@1@PEAVPxVec3@1@PEBV31@PEBUuint3@1@I@Z 0000000180030d94     TriangleMeshBuilder.obj
 0002:00004dc4       $chain$11$?buildAdjacencies@physx@@YAXPEAUuint4@1@PEAVPxVec3@1@PEBV31@PEBUuint3@1@I@Z 0000000180030dc4     TriangleMeshBuilder.obj
 0002:00004de4       $chain$12$?buildAdjacencies@physx@@YAXPEAUuint4@1@PEAVPxVec3@1@PEBV31@PEBUuint3@1@I@Z 0000000180030de4     TriangleMeshBuilder.obj
 0002:00004df4       $chain$13$?buildAdjacencies@physx@@YAXPEAUuint4@1@PEAVPxVec3@1@PEBV31@PEBUuint3@1@I@Z 0000000180030df4     TriangleMeshBuilder.obj
 0002:00004e04       $unwind$??$sort@UEdgeTriLookup@physx@@U?$Less@UEdgeTriLookup@physx@@@shdfnd@2@V?$ReflectionAllocator@UEdgeTriLookup@physx@@@42@@shdfnd@physx@@YAXPEAUEdgeTriLookup@1@IAEBU?$Less@UEdgeTriLookup@physx@@@01@AEBV?$ReflectionAllocator@UEdgeTriLookup@physx@@@01@I@Z 0000000180030e04     TriangleMeshBuilder.obj
 0002:00004e30       $cppxdata$??$sort@UEdgeTriLookup@physx@@U?$Less@UEdgeTriLookup@physx@@@shdfnd@2@V?$ReflectionAllocator@UEdgeTriLookup@physx@@@42@@shdfnd@physx@@YAXPEAUEdgeTriLookup@1@IAEBU?$Less@UEdgeTriLookup@physx@@@01@AEBV?$ReflectionAllocator@UEdgeTriLookup@physx@@@01@I@Z 0000000180030e30     TriangleMeshBuilder.obj
 0002:00004e39       $ip2state$??$sort@UEdgeTriLookup@physx@@U?$Less@UEdgeTriLookup@physx@@@shdfnd@2@V?$ReflectionAllocator@UEdgeTriLookup@physx@@@42@@shdfnd@physx@@YAXPEAUEdgeTriLookup@1@IAEBU?$Less@UEdgeTriLookup@physx@@@01@AEBV?$ReflectionAllocator@UEdgeTriLookup@physx@@@01@I@Z 0000000180030e39     TriangleMeshBuilder.obj
 0002:00004e48       $unwind$?precompute@BigConvexDataBuilder@physx@@QEAA_NI@Z 0000000180030e48     BigConvexDataBuilder.obj
 0002:00004e68       $chain$10$?precompute@BigConvexDataBuilder@physx@@QEAA_NI@Z 0000000180030e68     BigConvexDataBuilder.obj
 0002:00004ea4       $chain$11$?precompute@BigConvexDataBuilder@physx@@QEAA_NI@Z 0000000180030ea4     BigConvexDataBuilder.obj
 0002:00004eb4       $unwind$?save@BigConvexDataBuilder@physx@@QEBA_NAEAVPxOutputStream@2@_N@Z 0000000180030eb4     BigConvexDataBuilder.obj
 0002:00004ec4       $unwind$?computeValencies@BigConvexDataBuilder@physx@@QEAA_NAEBVConvexHullBuilder@2@@Z 0000000180030ec4     BigConvexDataBuilder.obj
 0002:00004ee0       $chain$2$?computeValencies@BigConvexDataBuilder@physx@@QEAA_NAEBVConvexHullBuilder@2@@Z 0000000180030ee0     BigConvexDataBuilder.obj
 0002:00004efc       $chain$3$?computeValencies@BigConvexDataBuilder@physx@@QEAA_NAEBVConvexHullBuilder@2@@Z 0000000180030efc     BigConvexDataBuilder.obj
 0002:00004f0c       $unwind$?saveValencies@BigConvexDataBuilder@physx@@QEBA_NAEAVPxOutputStream@2@_N@Z 0000000180030f0c     BigConvexDataBuilder.obj
 0002:00004f18       $chain$1$?saveValencies@BigConvexDataBuilder@physx@@QEBA_NAEAVPxOutputStream@2@_N@Z 0000000180030f18     BigConvexDataBuilder.obj
 0002:00004f30       $chain$2$?saveValencies@BigConvexDataBuilder@physx@@QEBA_NAEAVPxOutputStream@2@_N@Z 0000000180030f30     BigConvexDataBuilder.obj
 0002:00004f44       $chain$3$?saveValencies@BigConvexDataBuilder@physx@@QEBA_NAEAVPxOutputStream@2@_N@Z 0000000180030f44     BigConvexDataBuilder.obj
 0002:00004f54       $chain$4$?saveValencies@BigConvexDataBuilder@physx@@QEBA_NAEAVPxOutputStream@2@_N@Z 0000000180030f54     BigConvexDataBuilder.obj
 0002:00004f68       $unwind$?init@ConvexHullBuilder@physx@@QEAA_NIPEBVPxVec3@2@PEBIIIPEBUPxHullPolygon@2@_NPEAVConvexHullLib@2@@Z 0000000180030f68     ConvexHullBuilder.obj
 0002:00004f80       $chain$0$?init@ConvexHullBuilder@physx@@QEAA_NIPEBVPxVec3@2@PEBIIIPEBUPxHullPolygon@2@_NPEAVConvexHullLib@2@@Z 0000000180030f80     ConvexHullBuilder.obj
 0002:00004f94       $chain$2$?init@ConvexHullBuilder@physx@@QEAA_NIPEBVPxVec3@2@PEBIIIPEBUPxHullPolygon@2@_NPEAVConvexHullLib@2@@Z 0000000180030f94     ConvexHullBuilder.obj
 0002:00004fac       $chain$3$?init@ConvexHullBuilder@physx@@QEAA_NIPEBVPxVec3@2@PEBIIIPEBUPxHullPolygon@2@_NPEAVConvexHullLib@2@@Z 0000000180030fac     ConvexHullBuilder.obj
 0002:00004fbc       $chain$4$?init@ConvexHullBuilder@physx@@QEAA_NIPEBVPxVec3@2@PEBIIIPEBUPxHullPolygon@2@_NPEAVConvexHullLib@2@@Z 0000000180030fbc     ConvexHullBuilder.obj
 0002:00004fcc       $unwind$?save@ConvexHullBuilder@physx@@QEBA_NAEAVPxOutputStream@2@_N@Z 0000000180030fcc     ConvexHullBuilder.obj
 0002:00004fdc       $chain$0$?save@ConvexHullBuilder@physx@@QEBA_NAEAVPxOutputStream@2@_N@Z 0000000180030fdc     ConvexHullBuilder.obj
 0002:00004ff0       $chain$3$?save@ConvexHullBuilder@physx@@QEBA_NAEAVPxOutputStream@2@_N@Z 0000000180030ff0     ConvexHullBuilder.obj
 0002:0000500c       $chain$4$?save@ConvexHullBuilder@physx@@QEBA_NAEAVPxOutputStream@2@_N@Z 000000018003100c     ConvexHullBuilder.obj
 0002:00005020       $chain$5$?save@ConvexHullBuilder@physx@@QEBA_NAEAVPxOutputStream@2@_N@Z 0000000180031020     ConvexHullBuilder.obj
 0002:00005030       $unwind$?copy@ConvexHullBuilder@physx@@QEAA_NAEAUConvexHullData@Gu@2@AEAI@Z 0000000180031030     ConvexHullBuilder.obj
 0002:0000504c       $unwind$?createEdgeList@ConvexHullBuilder@physx@@QEAA_N_NI@Z 000000018003104c     ConvexHullBuilder.obj
 0002:0000506c       $cppxdata$?createEdgeList@ConvexHullBuilder@physx@@QEAA_N_NI@Z 000000018003106c     ConvexHullBuilder.obj
 0002:00005075       $stateUnwindMap$?createEdgeList@ConvexHullBuilder@physx@@QEAA_N_NI@Z 0000000180031075     ConvexHullBuilder.obj
 0002:0000507d       $ip2state$?createEdgeList@ConvexHullBuilder@physx@@QEAA_N_NI@Z 000000018003107d     ConvexHullBuilder.obj
 0002:00005088       $unwind$?checkHullPolygons@ConvexHullBuilder@physx@@QEBA_NXZ 0000000180031088     ConvexHullBuilder.obj
 0002:0000509c       $chain$9$?checkHullPolygons@ConvexHullBuilder@physx@@QEBA_NXZ 000000018003109c     ConvexHullBuilder.obj
 0002:000050d4       $chain$10$?checkHullPolygons@ConvexHullBuilder@physx@@QEBA_NXZ 00000001800310d4     ConvexHullBuilder.obj
 0002:000050e8       $chain$16$?checkHullPolygons@ConvexHullBuilder@physx@@QEBA_NXZ 00000001800310e8     ConvexHullBuilder.obj
 0002:0000510c       $chain$17$?checkHullPolygons@ConvexHullBuilder@physx@@QEBA_NXZ 000000018003110c     ConvexHullBuilder.obj
 0002:0000510c       $chain$19$?checkHullPolygons@ConvexHullBuilder@physx@@QEBA_NXZ 000000018003110c     ConvexHullBuilder.obj
 0002:0000511c       $chain$18$?checkHullPolygons@ConvexHullBuilder@physx@@QEBA_NXZ 000000018003111c     ConvexHullBuilder.obj
 0002:00005168       $chain$20$?checkHullPolygons@ConvexHullBuilder@physx@@QEBA_NXZ 0000000180031168     ConvexHullBuilder.obj
 0002:000051a0       $unwind$?calculateVertexMapTable@ConvexHullBuilder@physx@@QEAA_NI_N@Z 00000001800311a0     ConvexHullBuilder.obj
 0002:000051c0       $chain$0$?calculateVertexMapTable@ConvexHullBuilder@physx@@QEAA_NI_N@Z 00000001800311c0     ConvexHullBuilder.obj
 0002:000051d4       $chain$1$?calculateVertexMapTable@ConvexHullBuilder@physx@@QEAA_NI_N@Z 00000001800311d4     ConvexHullBuilder.obj
 0002:000051e4       $unwind$?computeGeomCenter@ConvexHullBuilder@physx@@IEBA_NAEAVPxVec3@2@IPEAUHullTriangleData@2@@Z 00000001800311e4     ConvexHullBuilder.obj
 0002:000051ec       $chain$1$?computeGeomCenter@ConvexHullBuilder@physx@@IEBA_NAEAVPxVec3@2@IPEAUHullTriangleData@2@@Z 00000001800311ec     ConvexHullBuilder.obj
 0002:00005204       $chain$10$?computeGeomCenter@ConvexHullBuilder@physx@@IEBA_NAEAVPxVec3@2@IPEAUHullTriangleData@2@@Z 0000000180031204     ConvexHullBuilder.obj
 0002:00005238       $chain$11$?computeGeomCenter@ConvexHullBuilder@physx@@IEBA_NAEAVPxVec3@2@IPEAUHullTriangleData@2@@Z 0000000180031238     ConvexHullBuilder.obj
 0002:00005248       $chain$12$?computeGeomCenter@ConvexHullBuilder@physx@@IEBA_NAEAVPxVec3@2@IPEAUHullTriangleData@2@@Z 0000000180031248     ConvexHullBuilder.obj
 0002:00005258       $chain$0$??$?_UE@@YAPEAX_KV?$ReflectionAllocator@E@shdfnd@physx@@PEBDH@Z 0000000180031258     ConvexHullBuilder.obj
 0002:0000526c       $chain$1$??$?_UE@@YAPEAX_KV?$ReflectionAllocator@E@shdfnd@physx@@PEBDH@Z 000000018003126c     ConvexHullBuilder.obj
 0002:0000527c       $unwind$??1ConvexHullLib@physx@@UEAA@XZ 000000018003127c     ConvexHullLib.obj
 0002:00005290       $cppxdata$??1ConvexHullLib@physx@@UEAA@XZ 0000000180031290     ConvexHullLib.obj
 0002:00005295       $ip2state$??1ConvexHullLib@physx@@UEAA@XZ 0000000180031295     ConvexHullLib.obj
 0002:00005298       $unwind$?cleanupVertices@ConvexHullLib@physx@@IEAA_NIPEBVPxVec3@2@IAEAIPEAV32@AEAV32@3@Z 0000000180031298     ConvexHullLib.obj
 0002:000052c0       $chain$7$?cleanupVertices@ConvexHullLib@physx@@IEAA_NIPEBVPxVec3@2@IAEAIPEAV32@AEAV32@3@Z 00000001800312c0     ConvexHullLib.obj
 0002:000052d8       $chain$13$?cleanupVertices@ConvexHullLib@physx@@IEAA_NIPEBVPxVec3@2@IAEAIPEAV32@AEAV32@3@Z 00000001800312d8     ConvexHullLib.obj
 0002:00005300       $chain$14$?cleanupVertices@ConvexHullLib@physx@@IEAA_NIPEBVPxVec3@2@IAEAIPEAV32@AEAV32@3@Z 0000000180031300     ConvexHullLib.obj
 0002:00005310       $chain$15$?cleanupVertices@ConvexHullLib@physx@@IEAA_NIPEBVPxVec3@2@IAEAIPEAV32@AEAV32@3@Z 0000000180031310     ConvexHullLib.obj
 0002:00005320       $unwind$?shiftAndcleanupVertices@ConvexHullLib@physx@@IEAA_NIPEBVPxVec3@2@IAEAIPEAV32@AEAV32@3@Z 0000000180031320     ConvexHullLib.obj
 0002:00005330       $chain$6$?shiftAndcleanupVertices@ConvexHullLib@physx@@IEAA_NIPEBVPxVec3@2@IAEAIPEAV32@AEAV32@3@Z 0000000180031330     ConvexHullLib.obj
 0002:0000535c       $chain$7$?shiftAndcleanupVertices@ConvexHullLib@physx@@IEAA_NIPEBVPxVec3@2@IAEAIPEAV32@AEAV32@3@Z 000000018003135c     ConvexHullLib.obj
 0002:00005380       $chain$12$?shiftAndcleanupVertices@ConvexHullLib@physx@@IEAA_NIPEBVPxVec3@2@IAEAIPEAV32@AEAV32@3@Z 0000000180031380     ConvexHullLib.obj
 0002:000053a4       $chain$13$?shiftAndcleanupVertices@ConvexHullLib@physx@@IEAA_NIPEBVPxVec3@2@IAEAIPEAV32@AEAV32@3@Z 00000001800313a4     ConvexHullLib.obj
 0002:000053b4       $chain$14$?shiftAndcleanupVertices@ConvexHullLib@physx@@IEAA_NIPEBVPxVec3@2@IAEAIPEAV32@AEAV32@3@Z 00000001800313b4     ConvexHullLib.obj
 0002:000053c4       $unwind$?swapLargestFace@ConvexHullLib@physx@@IEAAXAEAVPxConvexMeshDesc@2@@Z 00000001800313c4     ConvexHullLib.obj
 0002:000053d4       $chain$1$?swapLargestFace@ConvexHullLib@physx@@IEAAXAEAVPxConvexMeshDesc@2@@Z 00000001800313d4     ConvexHullLib.obj
 0002:000053ec       $chain$2$?swapLargestFace@ConvexHullLib@physx@@IEAAXAEAVPxConvexMeshDesc@2@@Z 00000001800313ec     ConvexHullLib.obj
 0002:00005400       $chain$3$?swapLargestFace@ConvexHullLib@physx@@IEAAXAEAVPxConvexMeshDesc@2@@Z 0000000180031400     ConvexHullLib.obj
 0002:00005410       $chain$4$?swapLargestFace@ConvexHullLib@physx@@IEAAXAEAVPxConvexMeshDesc@2@@Z 0000000180031410     ConvexHullLib.obj
 0002:00005420       $unwind$??_GConvexHullLib@physx@@UEAAPEAXI@Z 0000000180031420     ConvexHullLib.obj
 0002:00005438       $cppxdata$??_GConvexHullLib@physx@@UEAAPEAXI@Z 0000000180031438     ConvexHullLib.obj
 0002:00005441       $ip2state$??_GConvexHullLib@physx@@UEAAPEAXI@Z 0000000180031441     ConvexHullLib.obj
 0002:00005448       $unwind$?checkPointsAABBValidity@local@@YA_NIPEBVPxVec3@physx@@IMMAEAV23@1AEAIPEAV23@_N@Z 0000000180031448     ConvexHullLib.obj
 0002:00005464       $chain$1$?checkPointsAABBValidity@local@@YA_NIPEBVPxVec3@physx@@IMMAEAV23@1AEAIPEAV23@_N@Z 0000000180031464     ConvexHullLib.obj
 0002:0000547c       $chain$4$?checkPointsAABBValidity@local@@YA_NIPEBVPxVec3@physx@@IMMAEAV23@1AEAIPEAV23@_N@Z 000000018003147c     ConvexHullLib.obj
 0002:00005498       $chain$5$?checkPointsAABBValidity@local@@YA_NIPEBVPxVec3@physx@@IMMAEAV23@1AEAIPEAV23@_N@Z 0000000180031498     ConvexHullLib.obj
 0002:000054a8       $chain$6$?checkPointsAABBValidity@local@@YA_NIPEBVPxVec3@physx@@IMMAEAV23@1AEAIPEAV23@_N@Z 00000001800314a8     ConvexHullLib.obj
 0002:000054b8       $unwind$??0PxQuat@physx@@QEAA@AEBVPxMat33@1@@Z 00000001800314b8     ConvexHullUtils.obj
 0002:000054c0       $chain$0$??0PxQuat@physx@@QEAA@AEBVPxMat33@1@@Z 00000001800314c0     ConvexHullUtils.obj
 0002:000054d4       $chain$1$??0PxQuat@physx@@QEAA@AEBVPxMat33@1@@Z 00000001800314d4     ConvexHullUtils.obj
 0002:000054e4       $unwind$?getInverse@PxMat33@physx@@QEBA?BV12@XZ 00000001800314e4     ConvexHullUtils.obj
 0002:00005504       $chain$1$?getInverse@PxMat33@physx@@QEBA?BV12@XZ 0000000180031504     ConvexHullUtils.obj
 0002:0000551c       $chain$2$?getInverse@PxMat33@physx@@QEBA?BV12@XZ 000000018003151c     ConvexHullUtils.obj
 0002:0000552c       $unwind$??0ConvexHull@physx@@QEAA@AEBVPxVec3@1@AEBVPxTransform@1@AEBV?$Array@VPxPlane@physx@@V?$ReflectionAllocator@VPxPlane@physx@@@shdfnd@2@@shdfnd@1@@Z 000000018003152c     ConvexHullUtils.obj
 0002:00005570       $cppxdata$??0ConvexHull@physx@@QEAA@AEBVPxVec3@1@AEBVPxTransform@1@AEBV?$Array@VPxPlane@physx@@V?$ReflectionAllocator@VPxPlane@physx@@@shdfnd@2@@shdfnd@1@@Z 0000000180031570     ConvexHullUtils.obj
 0002:00005579       $stateUnwindMap$??0ConvexHull@physx@@QEAA@AEBVPxVec3@1@AEBVPxTransform@1@AEBV?$Array@VPxPlane@physx@@V?$ReflectionAllocator@VPxPlane@physx@@@shdfnd@2@@shdfnd@1@@Z 0000000180031579     ConvexHullUtils.obj
 0002:0000558a       $ip2state$??0ConvexHull@physx@@QEAA@AEBVPxVec3@1@AEBVPxTransform@1@AEBV?$Array@VPxPlane@physx@@V?$ReflectionAllocator@VPxPlane@physx@@@shdfnd@2@@shdfnd@1@@Z 000000018003158a     ConvexHullUtils.obj
 0002:00005594       $unwind$?findCandidatePlane@ConvexHull@physx@@QEBAHMM@Z 0000000180031594     ConvexHullUtils.obj
 0002:000055b8       $chain$8$?findCandidatePlane@ConvexHull@physx@@QEBAHMM@Z 00000001800315b8     ConvexHullUtils.obj
 0002:000055ec       $chain$9$?findCandidatePlane@ConvexHull@physx@@QEBAHMM@Z 00000001800315ec     ConvexHullUtils.obj
 0002:000055fc       $unwind$?assertIntact@ConvexHull@physx@@QEBA_NM@Z 00000001800315fc     ConvexHullUtils.obj
 0002:00005640       $unwind$?maxNumVertsPerFace@ConvexHull@physx@@QEBAIXZ 0000000180031640     ConvexHullUtils.obj
 0002:0000564c       $chain$0$?maxNumVertsPerFace@ConvexHull@physx@@QEBAIXZ 000000018003164c     ConvexHullUtils.obj
 0002:00005660       $chain$1$?maxNumVertsPerFace@ConvexHull@physx@@QEBAIXZ 0000000180031660     ConvexHullUtils.obj
 0002:00005670       $chain$1$?allocate@?$Array@VHalfEdge@ConvexHull@physx@@V?$ReflectionAllocator@VHalfEdge@ConvexHull@physx@@@shdfnd@3@@shdfnd@physx@@IEAAPEAVHalfEdge@ConvexHull@3@I@Z 0000000180031670     ConvexHullUtils.obj
 0002:00005688       $chain$3$?allocate@?$Array@VHalfEdge@ConvexHull@physx@@V?$ReflectionAllocator@VHalfEdge@ConvexHull@physx@@@shdfnd@3@@shdfnd@physx@@IEAAPEAVHalfEdge@ConvexHull@3@I@Z 0000000180031688     ConvexHullUtils.obj
 0002:0000569c       $chain$4$?allocate@?$Array@VHalfEdge@ConvexHull@physx@@V?$ReflectionAllocator@VHalfEdge@ConvexHull@physx@@@shdfnd@3@@shdfnd@physx@@IEAAPEAVHalfEdge@ConvexHull@3@I@Z 000000018003169c     ConvexHullUtils.obj
 0002:000056ac       $chain$0$?recreate@?$Array@VHalfEdge@ConvexHull@physx@@V?$ReflectionAllocator@VHalfEdge@ConvexHull@physx@@@shdfnd@3@@shdfnd@physx@@IEAAXI@Z 00000001800316ac     ConvexHullUtils.obj
 0002:000056c0       $chain$1$?recreate@?$Array@VHalfEdge@ConvexHull@physx@@V?$ReflectionAllocator@VHalfEdge@ConvexHull@physx@@@shdfnd@3@@shdfnd@physx@@IEAAXI@Z 00000001800316c0     ConvexHullUtils.obj
 0002:000056d0       $chain$1$?allocate@?$Array@VPxPlane@physx@@V?$ReflectionAllocator@VPxPlane@physx@@@shdfnd@2@@shdfnd@physx@@IEAAPEAVPxPlane@3@I@Z 00000001800316d0     ConvexHullUtils.obj
 0002:000056e8       $chain$3$?allocate@?$Array@VPxPlane@physx@@V?$ReflectionAllocator@VPxPlane@physx@@@shdfnd@2@@shdfnd@physx@@IEAAPEAVPxPlane@3@I@Z 00000001800316e8     ConvexHullUtils.obj
 0002:000056fc       $chain$4$?allocate@?$Array@VPxPlane@physx@@V?$ReflectionAllocator@VPxPlane@physx@@@shdfnd@2@@shdfnd@physx@@IEAAPEAVPxPlane@3@I@Z 00000001800316fc     ConvexHullUtils.obj
 0002:0000570c       $chain$0$?recreate@?$Array@VPxPlane@physx@@V?$ReflectionAllocator@VPxPlane@physx@@@shdfnd@2@@shdfnd@physx@@IEAAXI@Z 000000018003170c     ConvexHullUtils.obj
 0002:00005720       $chain$1$?recreate@?$Array@VPxPlane@physx@@V?$ReflectionAllocator@VPxPlane@physx@@@shdfnd@2@@shdfnd@physx@@IEAAXI@Z 0000000180031720     ConvexHullUtils.obj
 0002:00005730       $unwind$?convexHullCrop@physx@@YAPEAVConvexHull@1@AEBV21@AEBVPxPlane@1@M@Z 0000000180031730     ConvexHullUtils.obj
 0002:0000576c       $cppxdata$?convexHullCrop@physx@@YAPEAVConvexHull@1@AEBV21@AEBVPxPlane@1@M@Z 000000018003176c     ConvexHullUtils.obj
 0002:00005775       $stateUnwindMap$?convexHullCrop@physx@@YAPEAVConvexHull@1@AEBV21@AEBVPxPlane@1@M@Z 0000000180031775     ConvexHullUtils.obj
 0002:0000579b       $ip2state$?convexHullCrop@physx@@YAPEAVConvexHull@1@AEBV21@AEBVPxPlane@1@M@Z 000000018003179b     ConvexHullUtils.obj
 0002:000057ac       $unwind$?computeOBBFromConvex@physx@@YA_NAEBVPxConvexMeshDesc@1@AEAVPxVec3@1@AEAVPxTransform@1@@Z 00000001800317ac     ConvexHullUtils.obj
 0002:000057d8       $chain$4$?computeOBBFromConvex@physx@@YA_NAEBVPxConvexMeshDesc@1@AEAVPxVec3@1@AEAVPxTransform@1@@Z 00000001800317d8     ConvexHullUtils.obj
 0002:000057fc       $chain$5$?computeOBBFromConvex@physx@@YA_NAEBVPxConvexMeshDesc@1@AEAVPxVec3@1@AEAVPxTransform@1@@Z 00000001800317fc     ConvexHullUtils.obj
 0002:0000580c       $unwind$?rotate@Box@Gu@physx@@QEBA?AVPxVec3@3@AEBV43@@Z 000000018003180c     ConvexHullUtils.obj
 0002:00005818       $unwind$?rotateInv@Box@Gu@physx@@QEBA?AVPxVec3@3@AEBV43@@Z 0000000180031818     ConvexHullUtils.obj
 0002:00005818       $unwind$?transform@Box@Gu@physx@@QEBA?AVPxVec3@3@AEBV43@@Z 0000000180031818     ConvexHullUtils.obj
 0002:00005824       $unwind$?computeAABBExtent@Box@Gu@physx@@QEBA?AVPxVec3@3@XZ 0000000180031824     ConvexHullUtils.obj
 0002:00005830       $unwind$?computeOBBSIMD@local@@YAXIPEBT__m128@@AEAT2@AEBT2@1@Z 0000000180031830     ConvexHullUtils.obj
 0002:0000585c       $chain$1$?computeOBBSIMD@local@@YAXIPEBT__m128@@AEAT2@AEBT2@1@Z 000000018003185c     ConvexHullUtils.obj
 0002:00005874       $chain$2$?computeOBBSIMD@local@@YAXIPEBT__m128@@AEAT2@AEBT2@1@Z 0000000180031874     ConvexHullUtils.obj
 0002:00005884       $unwind$??1ConvexMeshBuilder@physx@@QEAA@XZ 0000000180031884     ConvexMeshBuilder.obj
 0002:00005898       $cppxdata$??1ConvexMeshBuilder@physx@@QEAA@XZ 0000000180031898     ConvexMeshBuilder.obj
 0002:000058a1       $ip2state$??1ConvexMeshBuilder@physx@@QEAA@XZ 00000001800318a1     ConvexMeshBuilder.obj
 0002:000058a8       $unwind$?build@ConvexMeshBuilder@physx@@QEAA_NAEBVPxConvexMeshDesc@2@I_NPEAVConvexHullLib@2@@Z 00000001800318a8     ConvexMeshBuilder.obj
 0002:000058d0       $cppxdata$?build@ConvexMeshBuilder@physx@@QEAA_NAEBVPxConvexMeshDesc@2@I_NPEAVConvexHullLib@2@@Z 00000001800318d0     ConvexMeshBuilder.obj
 0002:000058d9       $stateUnwindMap$?build@ConvexMeshBuilder@physx@@QEAA_NAEBVPxConvexMeshDesc@2@I_NPEAVConvexHullLib@2@@Z 00000001800318d9     ConvexMeshBuilder.obj
 0002:000058ea       $ip2state$?build@ConvexMeshBuilder@physx@@QEAA_NAEBVPxConvexMeshDesc@2@I_NPEAVConvexHullLib@2@@Z 00000001800318ea     ConvexMeshBuilder.obj
 0002:000058fc       $unwind$?save@ConvexMeshBuilder@physx@@QEBA_NAEAVPxOutputStream@2@_N@Z 00000001800318fc     ConvexMeshBuilder.obj
 0002:00005918       $cppxdata$?save@ConvexMeshBuilder@physx@@QEBA_NAEAVPxOutputStream@2@_N@Z 0000000180031918     ConvexMeshBuilder.obj
 0002:00005921       $stateUnwindMap$?save@ConvexMeshBuilder@physx@@QEBA_NAEAVPxOutputStream@2@_N@Z 0000000180031921     ConvexMeshBuilder.obj
 0002:00005928       $ip2state$?save@ConvexMeshBuilder@physx@@QEBA_NAEAVPxOutputStream@2@_N@Z 0000000180031928     ConvexMeshBuilder.obj
 0002:00005930       $unwind$?loadConvexHull@ConvexMeshBuilder@physx@@QEAA_NAEBVPxConvexMeshDesc@2@PEAVConvexHullLib@2@@Z 0000000180031930     ConvexMeshBuilder.obj
 0002:00005958       $unwind$?computeHullPolygons@ConvexMeshBuilder@physx@@QEAA_NAEBIPEBVPxVec3@2@0PEBIAEAVPxAllocatorCallback@2@AEAIAEAPEAV32@4AEAPEAI4AEAPEAUPxHullPolygon@2@@Z 0000000180031958     ConvexMeshBuilder.obj
 0002:00005964       $chain$4$?computeHullPolygons@ConvexMeshBuilder@physx@@QEAA_NAEBIPEBVPxVec3@2@0PEBIAEAVPxAllocatorCallback@2@AEAIAEAPEAV32@4AEAPEAI4AEAPEAUPxHullPolygon@2@@Z 0000000180031964     ConvexMeshBuilder.obj
 0002:00005984       $chain$5$?computeHullPolygons@ConvexMeshBuilder@physx@@QEAA_NAEBIPEBVPxVec3@2@0PEBIAEAVPxAllocatorCallback@2@AEAIAEAPEAV32@4AEAPEAI4AEAPEAUPxHullPolygon@2@@Z 0000000180031984     ConvexMeshBuilder.obj
 0002:0000599c       $unwind$?computeMassInfo@ConvexMeshBuilder@physx@@QEAAX_N@Z 000000018003199c     ConvexMeshBuilder.obj
 0002:000059b4       $chain$0$?computeMassInfo@ConvexMeshBuilder@physx@@QEAAX_N@Z 00000001800319b4     ConvexMeshBuilder.obj
 0002:000059c8       $chain$1$?computeMassInfo@ConvexMeshBuilder@physx@@QEAAX_N@Z 00000001800319c8     ConvexMeshBuilder.obj
 0002:000059dc       $chain$5$?computeMassInfo@ConvexMeshBuilder@physx@@QEAAX_N@Z 00000001800319dc     ConvexMeshBuilder.obj
 0002:000059fc       $chain$6$?computeMassInfo@ConvexMeshBuilder@physx@@QEAAX_N@Z 00000001800319fc     ConvexMeshBuilder.obj
 0002:00005a0c       $chain$7$?computeMassInfo@ConvexMeshBuilder@physx@@QEAAX_N@Z 0000000180031a0c     ConvexMeshBuilder.obj
 0002:00005a1c       $chain$8$?computeMassInfo@ConvexMeshBuilder@physx@@QEAAX_N@Z 0000000180031a1c     ConvexMeshBuilder.obj
 0002:00005a2c       $unwind$?ComputeInternalExtent@@YAXAEAUConvexHullData@Gu@physx@@PEBUHullPolygonData@23@@Z 0000000180031a2c     ConvexMeshBuilder.obj
 0002:00005a54       $chain$0$?ComputeInternalExtent@@YAXAEAUConvexHullData@Gu@physx@@PEBUHullPolygonData@23@@Z 0000000180031a54     ConvexMeshBuilder.obj
 0002:00005a68       $chain$1$?ComputeInternalExtent@@YAXAEAUConvexHullData@Gu@physx@@PEBUHullPolygonData@23@@Z 0000000180031a68     ConvexMeshBuilder.obj
 0002:00005a78       $unwind$??1ConvexPolygonsBuilder@physx@@QEAA@XZ 0000000180031a78     ConvexPolygonsBuilder.obj
 0002:00005a8c       $cppxdata$??1ConvexPolygonsBuilder@physx@@QEAA@XZ 0000000180031a8c     ConvexPolygonsBuilder.obj
 0002:00005a91       $ip2state$??1ConvexPolygonsBuilder@physx@@QEAA@XZ 0000000180031a91     ConvexPolygonsBuilder.obj
 0002:00005a94       $unwind$?computeHullPolygons@ConvexPolygonsBuilder@physx@@QEAA_NAEBIPEBVPxVec3@2@0PEBI@Z 0000000180031a94     ConvexPolygonsBuilder.obj
 0002:00005ae4       $cppxdata$?computeHullPolygons@ConvexPolygonsBuilder@physx@@QEAA_NAEBIPEBVPxVec3@2@0PEBI@Z 0000000180031ae4     ConvexPolygonsBuilder.obj
 0002:00005aed       $ip2state$?computeHullPolygons@ConvexPolygonsBuilder@physx@@QEAA_NAEBIPEBVPxVec3@2@0PEBI@Z 0000000180031aed     ConvexPolygonsBuilder.obj
 0002:00005af8       $unwind$?createPolygonData@ConvexPolygonsBuilder@physx@@AEAA_NXZ 0000000180031af8     ConvexPolygonsBuilder.obj
 0002:00005b40       $cppxdata$?createPolygonData@ConvexPolygonsBuilder@physx@@AEAA_NXZ 0000000180031b40     ConvexPolygonsBuilder.obj
 0002:00005b49       $stateUnwindMap$?createPolygonData@ConvexPolygonsBuilder@physx@@AEAA_NXZ 0000000180031b49     ConvexPolygonsBuilder.obj
 0002:00005b76       $ip2state$?createPolygonData@ConvexPolygonsBuilder@physx@@AEAA_NXZ 0000000180031b76     ConvexPolygonsBuilder.obj
 0002:00005b88       $unwind$?createTrianglesFromPolygons@ConvexPolygonsBuilder@physx@@AEAA_NXZ 0000000180031b88     ConvexPolygonsBuilder.obj
 0002:00005bac       $chain$3$?createTrianglesFromPolygons@ConvexPolygonsBuilder@physx@@AEAA_NXZ 0000000180031bac     ConvexPolygonsBuilder.obj
 0002:00005bcc       $chain$4$?createTrianglesFromPolygons@ConvexPolygonsBuilder@physx@@AEAA_NXZ 0000000180031bcc     ConvexPolygonsBuilder.obj
 0002:00005bdc       $unwind$?findLineStrip@@YA_NAEAV?$Array@IV?$ReflectionAllocator@I@shdfnd@physx@@@shdfnd@physx@@AEBV?$Array@VPair@@V?$ReflectionAllocator@VPair@@@shdfnd@physx@@@23@@Z 0000000180031bdc     ConvexPolygonsBuilder.obj
 0002:00005bfc       $cppxdata$?findLineStrip@@YA_NAEAV?$Array@IV?$ReflectionAllocator@I@shdfnd@physx@@@shdfnd@physx@@AEBV?$Array@VPair@@V?$ReflectionAllocator@VPair@@@shdfnd@physx@@@23@@Z 0000000180031bfc     ConvexPolygonsBuilder.obj
 0002:00005c05       $stateUnwindMap$?findLineStrip@@YA_NAEAV?$Array@IV?$ReflectionAllocator@I@shdfnd@physx@@@shdfnd@physx@@AEBV?$Array@VPair@@V?$ReflectionAllocator@VPair@@@shdfnd@physx@@@23@@Z 0000000180031c05     ConvexPolygonsBuilder.obj
 0002:00005c1c       $ip2state$?findLineStrip@@YA_NAEAV?$Array@IV?$ReflectionAllocator@I@shdfnd@physx@@@shdfnd@physx@@AEBV?$Array@VPair@@V?$ReflectionAllocator@VPair@@@shdfnd@physx@@@23@@Z 0000000180031c1c     ConvexPolygonsBuilder.obj
 0002:00005c28       $chain$1$?allocate@?$Array@VPair@@V?$ReflectionAllocator@VPair@@@shdfnd@physx@@@shdfnd@physx@@IEAAPEAVPair@@I@Z 0000000180031c28     ConvexPolygonsBuilder.obj
 0002:00005c40       $chain$3$?allocate@?$Array@VPair@@V?$ReflectionAllocator@VPair@@@shdfnd@physx@@@shdfnd@physx@@IEAAPEAVPair@@I@Z 0000000180031c40     ConvexPolygonsBuilder.obj
 0002:00005c54       $chain$4$?allocate@?$Array@VPair@@V?$ReflectionAllocator@VPair@@@shdfnd@physx@@@shdfnd@physx@@IEAAPEAVPair@@I@Z 0000000180031c54     ConvexPolygonsBuilder.obj
 0002:00005c64       $unwind$?TestDuplicateTriangles@@YA_NAEAIPEAU?$TriangleT@I@Gu@physx@@_N@Z 0000000180031c64     ConvexPolygonsBuilder.obj
 0002:00005c8c       $cppxdata$?TestDuplicateTriangles@@YA_NAEAIPEAU?$TriangleT@I@Gu@physx@@_N@Z 0000000180031c8c     ConvexPolygonsBuilder.obj
 0002:00005c95       $stateUnwindMap$?TestDuplicateTriangles@@YA_NAEAIPEAU?$TriangleT@I@Gu@physx@@_N@Z 0000000180031c95     ConvexPolygonsBuilder.obj
 0002:00005c9c       $ip2state$?TestDuplicateTriangles@@YA_NAEAIPEAU?$TriangleT@I@Gu@physx@@_N@Z 0000000180031c9c     ConvexPolygonsBuilder.obj
 0002:00005ca4       $unwind$?checkRedundantVertices@@YAXAEAIAEAV?$Array@IV?$ReflectionAllocator@I@shdfnd@physx@@@shdfnd@physx@@AEBVConvexPolygonsBuilder@3@11@Z 0000000180031ca4     ConvexPolygonsBuilder.obj
 0002:00005cd0       $cppxdata$?checkRedundantVertices@@YAXAEAIAEAV?$Array@IV?$ReflectionAllocator@I@shdfnd@physx@@@shdfnd@physx@@AEBVConvexPolygonsBuilder@3@11@Z 0000000180031cd0     ConvexPolygonsBuilder.obj
 0002:00005cd9       $stateUnwindMap$?checkRedundantVertices@@YAXAEAIAEAV?$Array@IV?$ReflectionAllocator@I@shdfnd@physx@@@shdfnd@physx@@AEBVConvexPolygonsBuilder@3@11@Z 0000000180031cd9     ConvexPolygonsBuilder.obj
 0002:00005cfb       $ip2state$?checkRedundantVertices@@YAXAEAIAEAV?$Array@IV?$ReflectionAllocator@I@shdfnd@physx@@@shdfnd@physx@@AEBVConvexPolygonsBuilder@3@11@Z 0000000180031cfb     ConvexPolygonsBuilder.obj
 0002:00005d10       $unwind$?extractHullPolygons@@YA_NAEAIAEAV?$Array@IV?$ReflectionAllocator@I@shdfnd@physx@@@shdfnd@physx@@AEBVConvexPolygonsBuilder@3@PEAV123@1@Z 0000000180031d10     ConvexPolygonsBuilder.obj
 0002:00005d3c       $cppxdata$?extractHullPolygons@@YA_NAEAIAEAV?$Array@IV?$ReflectionAllocator@I@shdfnd@physx@@@shdfnd@physx@@AEBVConvexPolygonsBuilder@3@PEAV123@1@Z 0000000180031d3c     ConvexPolygonsBuilder.obj
 0002:00005d45       $stateUnwindMap$?extractHullPolygons@@YA_NAEAIAEAV?$Array@IV?$ReflectionAllocator@I@shdfnd@physx@@@shdfnd@physx@@AEBVConvexPolygonsBuilder@3@PEAV123@1@Z 0000000180031d45     ConvexPolygonsBuilder.obj
 0002:00005d6e       $ip2state$?extractHullPolygons@@YA_NAEAIAEAV?$Array@IV?$ReflectionAllocator@I@shdfnd@physx@@@shdfnd@physx@@AEBVConvexPolygonsBuilder@3@PEAV123@1@Z 0000000180031d6e     ConvexPolygonsBuilder.obj
 0002:00005d9c       $unwind$?FloodFill@Local@?7??extractHullPolygons@@YA_NAEAIAEAV?$Array@IV?$ReflectionAllocator@I@shdfnd@physx@@@shdfnd@physx@@AEBVConvexPolygonsBuilder@5@PEAV345@1@Z@SAX1PEBVAdjTriangle@5@IPEA_N@Z 0000000180031d9c     ConvexPolygonsBuilder.obj
 0002:00005dac       $chain$0$?FloodFill@Local@?7??extractHullPolygons@@YA_NAEAIAEAV?$Array@IV?$ReflectionAllocator@I@shdfnd@physx@@@shdfnd@physx@@AEBVConvexPolygonsBuilder@5@PEAV345@1@Z@SAX1PEBVAdjTriangle@5@IPEA_N@Z 0000000180031dac     ConvexPolygonsBuilder.obj
 0002:00005dc0       $chain$1$?FloodFill@Local@?7??extractHullPolygons@@YA_NAEAIAEAV?$Array@IV?$ReflectionAllocator@I@shdfnd@physx@@@shdfnd@physx@@AEBVConvexPolygonsBuilder@5@PEAV345@1@Z@SAX1PEBVAdjTriangle@5@IPEA_N@Z 0000000180031dc0     ConvexPolygonsBuilder.obj
 0002:00005dd0       $unwind$?CheckFloodFillFace@Local@?7??extractHullPolygons@@YA_NAEAIAEAV?$Array@IV?$ReflectionAllocator@I@shdfnd@physx@@@shdfnd@physx@@AEBVConvexPolygonsBuilder@5@PEAV345@1@Z@SA_NIPEBVAdjTriangle@5@PEBI@Z 0000000180031dd0     ConvexPolygonsBuilder.obj
 0002:00005de8       $unwind$??0QuickHullConvexHullLib@physx@@QEAA@AEBVPxConvexMeshDesc@1@AEBUPxCookingParams@1@@Z 0000000180031de8     QuickHullConvexHullLib.obj
 0002:00005e04       $cppxdata$??0QuickHullConvexHullLib@physx@@QEAA@AEBVPxConvexMeshDesc@1@AEBUPxCookingParams@1@@Z 0000000180031e04     QuickHullConvexHullLib.obj
 0002:00005e0d       $stateUnwindMap$??0QuickHullConvexHullLib@physx@@QEAA@AEBVPxConvexMeshDesc@1@AEBUPxCookingParams@1@@Z 0000000180031e0d     QuickHullConvexHullLib.obj
 0002:00005e14       $ip2state$??0QuickHullConvexHullLib@physx@@QEAA@AEBVPxConvexMeshDesc@1@AEBUPxCookingParams@1@@Z 0000000180031e14     QuickHullConvexHullLib.obj
 0002:00005e1c       $unwind$?createConvexHull@QuickHullConvexHullLib@physx@@UEAA?AW4Enum@PxConvexMeshCookingResult@2@XZ 0000000180031e1c     QuickHullConvexHullLib.obj
 0002:00005e40       $unwind$?createEdgeList@QuickHullConvexHullLib@physx@@UEAA_NIPEBEPEAPEAEPEAPEAG2@Z 0000000180031e40     QuickHullConvexHullLib.obj
 0002:00005e60       $chain$5$?createEdgeList@QuickHullConvexHullLib@physx@@UEAA_NIPEBEPEAPEAEPEAPEAG2@Z 0000000180031e60     QuickHullConvexHullLib.obj
 0002:00005e74       $chain$6$?createEdgeList@QuickHullConvexHullLib@physx@@UEAA_NIPEBEPEAPEAEPEAPEAG2@Z 0000000180031e74     QuickHullConvexHullLib.obj
 0002:00005e84       $unwind$?expandHullOBB@QuickHullConvexHullLib@physx@@IEAA?AW4Enum@PxConvexMeshCookingResult@2@XZ 0000000180031e84     QuickHullConvexHullLib.obj
 0002:00005eac       $cppxdata$?expandHullOBB@QuickHullConvexHullLib@physx@@IEAA?AW4Enum@PxConvexMeshCookingResult@2@XZ 0000000180031eac     QuickHullConvexHullLib.obj
 0002:00005eb5       $stateUnwindMap$?expandHullOBB@QuickHullConvexHullLib@physx@@IEAA?AW4Enum@PxConvexMeshCookingResult@2@XZ 0000000180031eb5     QuickHullConvexHullLib.obj
 0002:00005ecb       $ip2state$?expandHullOBB@QuickHullConvexHullLib@physx@@IEAA?AW4Enum@PxConvexMeshCookingResult@2@XZ 0000000180031ecb     QuickHullConvexHullLib.obj
 0002:00005ee0       $unwind$?expandHull@QuickHullConvexHullLib@physx@@IEAA?AW4Enum@PxConvexMeshCookingResult@2@XZ 0000000180031ee0     QuickHullConvexHullLib.obj
 0002:00005f1c       $cppxdata$?expandHull@QuickHullConvexHullLib@physx@@IEAA?AW4Enum@PxConvexMeshCookingResult@2@XZ 0000000180031f1c     QuickHullConvexHullLib.obj
 0002:00005f25       $stateUnwindMap$?expandHull@QuickHullConvexHullLib@physx@@IEAA?AW4Enum@PxConvexMeshCookingResult@2@XZ 0000000180031f25     QuickHullConvexHullLib.obj
 0002:00005f4b       $ip2state$?expandHull@QuickHullConvexHullLib@physx@@IEAA?AW4Enum@PxConvexMeshCookingResult@2@XZ 0000000180031f4b     QuickHullConvexHullLib.obj
 0002:00005f78       $unwind$?cleanupForSimplex@QuickHullConvexHullLib@physx@@IEAA_NPEAVPxVec3@2@IPEAUQuickHullVertex@local@@1AEAM2@Z 0000000180031f78     QuickHullConvexHullLib.obj
 0002:00005f9c       $chain$4$?cleanupForSimplex@QuickHullConvexHullLib@physx@@IEAA_NPEAVPxVec3@2@IPEAUQuickHullVertex@local@@1AEAM2@Z 0000000180031f9c     QuickHullConvexHullLib.obj
 0002:00005fc0       $chain$6$?cleanupForSimplex@QuickHullConvexHullLib@physx@@IEAA_NPEAVPxVec3@2@IPEAUQuickHullVertex@local@@1AEAM2@Z 0000000180031fc0     QuickHullConvexHullLib.obj
 0002:00005fd8       $chain$7$?cleanupForSimplex@QuickHullConvexHullLib@physx@@IEAA_NPEAVPxVec3@2@IPEAUQuickHullVertex@local@@1AEAM2@Z 0000000180031fd8     QuickHullConvexHullLib.obj
 0002:00005fec       $chain$8$?cleanupForSimplex@QuickHullConvexHullLib@physx@@IEAA_NPEAVPxVec3@2@IPEAUQuickHullVertex@local@@1AEAM2@Z 0000000180031fec     QuickHullConvexHullLib.obj
 0002:00006000       $chain$9$?cleanupForSimplex@QuickHullConvexHullLib@physx@@IEAA_NPEAVPxVec3@2@IPEAUQuickHullVertex@local@@1AEAM2@Z 0000000180032000     QuickHullConvexHullLib.obj
 0002:00006010       $chain$10$?cleanupForSimplex@QuickHullConvexHullLib@physx@@IEAA_NPEAVPxVec3@2@IPEAUQuickHullVertex@local@@1AEAM2@Z 0000000180032010     QuickHullConvexHullLib.obj
 0002:00006020       $chain$11$?cleanupForSimplex@QuickHullConvexHullLib@physx@@IEAA_NPEAVPxVec3@2@IPEAUQuickHullVertex@local@@1AEAM2@Z 0000000180032020     QuickHullConvexHullLib.obj
 0002:00006030       $chain$12$?cleanupForSimplex@QuickHullConvexHullLib@physx@@IEAA_NPEAVPxVec3@2@IPEAUQuickHullVertex@local@@1AEAM2@Z 0000000180032030     QuickHullConvexHullLib.obj
 0002:00006040       $unwind$?fillConvexMeshDescFromQuickHull@QuickHullConvexHullLib@physx@@IEAAXAEAVPxConvexMeshDesc@2@@Z 0000000180032040     QuickHullConvexHullLib.obj
 0002:00006058       $unwind$?fillConvexMeshDescFromCroppedHull@QuickHullConvexHullLib@physx@@IEAAXAEAVPxConvexMeshDesc@2@@Z 0000000180032058     QuickHullConvexHullLib.obj
 0002:00006070       $unwind$??_GQuickHullConvexHullLib@physx@@UEAAPEAXI@Z 0000000180032070     QuickHullConvexHullLib.obj
 0002:0000608c       $cppxdata$??_GQuickHullConvexHullLib@physx@@UEAAPEAXI@Z 000000018003208c     QuickHullConvexHullLib.obj
 0002:00006095       $stateUnwindMap$??_GQuickHullConvexHullLib@physx@@UEAAPEAXI@Z 0000000180032095     QuickHullConvexHullLib.obj
 0002:000060a0       $ip2state$??_GQuickHullConvexHullLib@physx@@UEAAPEAXI@Z 00000001800320a0     QuickHullConvexHullLib.obj
 0002:000060b0       $unwind$??_GConvexHull@physx@@QEAAPEAXI@Z 00000001800320b0     QuickHullConvexHullLib.obj
 0002:000060c8       $cppxdata$??_GConvexHull@physx@@QEAAPEAXI@Z 00000001800320c8     QuickHullConvexHullLib.obj
 0002:000060d1       $ip2state$??_GConvexHull@physx@@QEAAPEAXI@Z 00000001800320d1     QuickHullConvexHullLib.obj
 0002:000060dc       $unwind$?mergeAdjacentFace@QuickHullFace@local@@QEAA_NPEAUQuickHullHalfEdge@2@AEAV?$Array@PEAUQuickHullFace@local@@V?$ReflectionAllocator@PEAUQuickHullFace@local@@@shdfnd@physx@@@shdfnd@physx@@@Z 00000001800320dc     QuickHullConvexHullLib.obj
 0002:000060f4       $chain$4$?mergeAdjacentFace@QuickHullFace@local@@QEAA_NPEAUQuickHullHalfEdge@2@AEAV?$Array@PEAUQuickHullFace@local@@V?$ReflectionAllocator@PEAUQuickHullFace@local@@@shdfnd@physx@@@shdfnd@physx@@@Z 00000001800320f4     QuickHullConvexHullLib.obj
 0002:00006118       $chain$5$?mergeAdjacentFace@QuickHullFace@local@@QEAA_NPEAUQuickHullHalfEdge@2@AEAV?$Array@PEAUQuickHullFace@local@@V?$ReflectionAllocator@PEAUQuickHullFace@local@@@shdfnd@physx@@@shdfnd@physx@@@Z 0000000180032118     QuickHullConvexHullLib.obj
 0002:00006118       $chain$8$?mergeAdjacentFace@QuickHullFace@local@@QEAA_NPEAUQuickHullHalfEdge@2@AEAV?$Array@PEAUQuickHullFace@local@@V?$ReflectionAllocator@PEAUQuickHullFace@local@@@shdfnd@physx@@@shdfnd@physx@@@Z 0000000180032118     QuickHullConvexHullLib.obj
 0002:00006128       $chain$6$?mergeAdjacentFace@QuickHullFace@local@@QEAA_NPEAUQuickHullHalfEdge@2@AEAV?$Array@PEAUQuickHullFace@local@@V?$ReflectionAllocator@PEAUQuickHullFace@local@@@shdfnd@physx@@@shdfnd@physx@@@Z 0000000180032128     QuickHullConvexHullLib.obj
 0002:0000614c       $chain$7$?mergeAdjacentFace@QuickHullFace@local@@QEAA_NPEAUQuickHullHalfEdge@2@AEAV?$Array@PEAUQuickHullFace@local@@V?$ReflectionAllocator@PEAUQuickHullFace@local@@@shdfnd@physx@@@shdfnd@physx@@@Z 000000018003214c     QuickHullConvexHullLib.obj
 0002:00006160       $unwind$?connectHalfEdges@QuickHullFace@local@@AEAAPEAU12@PEAUQuickHullHalfEdge@2@0@Z 0000000180032160     QuickHullConvexHullLib.obj
 0002:00006168       $chain$5$?connectHalfEdges@QuickHullFace@local@@AEAAPEAU12@PEAUQuickHullHalfEdge@2@0@Z 0000000180032168     QuickHullConvexHullLib.obj
 0002:00006190       $chain$6$?connectHalfEdges@QuickHullFace@local@@AEAAPEAU12@PEAUQuickHullHalfEdge@2@0@Z 0000000180032190     QuickHullConvexHullLib.obj
 0002:000061b4       $chain$7$?connectHalfEdges@QuickHullFace@local@@AEAAPEAU12@PEAUQuickHullHalfEdge@2@0@Z 00000001800321b4     QuickHullConvexHullLib.obj
 0002:000061c8       $chain$8$?connectHalfEdges@QuickHullFace@local@@AEAAPEAU12@PEAUQuickHullHalfEdge@2@0@Z 00000001800321c8     QuickHullConvexHullLib.obj
 0002:000061d8       $unwind$??1QuickHull@local@@QEAA@XZ 00000001800321d8     QuickHullConvexHullLib.obj
 0002:000061ec       $cppxdata$??1QuickHull@local@@QEAA@XZ 00000001800321ec     QuickHullConvexHullLib.obj
 0002:000061f5       $ip2state$??1QuickHull@local@@QEAA@XZ 00000001800321f5     QuickHullConvexHullLib.obj
 0002:000061fc       $unwind$?parseInputVertices@QuickHull@local@@QEAAXPEBVPxVec3@physx@@I@Z 00000001800321fc     QuickHullConvexHullLib.obj
 0002:00006208       $chain$1$?parseInputVertices@QuickHull@local@@QEAAXPEBVPxVec3@physx@@I@Z 0000000180032208     QuickHullConvexHullLib.obj
 0002:00006220       $chain$2$?parseInputVertices@QuickHull@local@@QEAAXPEBVPxVec3@physx@@I@Z 0000000180032220     QuickHullConvexHullLib.obj
 0002:00006230       $unwind$?buildHull@QuickHull@local@@QEAA?AW4Enum@QuickHullResult@2@XZ 0000000180032230     QuickHullConvexHullLib.obj
 0002:00006244       $unwind$?computeMinMaxVerts@QuickHull@local@@IEAAXXZ 0000000180032244     QuickHullConvexHullLib.obj
 0002:00006250       $unwind$?findSimplex@QuickHull@local@@IEAA_NXZ 0000000180032250     QuickHullConvexHullLib.obj
 0002:0000626c       $chain$8$?findSimplex@QuickHull@local@@IEAA_NXZ 000000018003226c     QuickHullConvexHullLib.obj
 0002:000062a0       $chain$12$?findSimplex@QuickHull@local@@IEAA_NXZ 00000001800322a0     QuickHullConvexHullLib.obj
 0002:000062c0       $chain$13$?findSimplex@QuickHull@local@@IEAA_NXZ 00000001800322c0     QuickHullConvexHullLib.obj
 0002:000062c0       $chain$15$?findSimplex@QuickHull@local@@IEAA_NXZ 00000001800322c0     QuickHullConvexHullLib.obj
 0002:000062f4       $chain$14$?findSimplex@QuickHull@local@@IEAA_NXZ 00000001800322f4     QuickHullConvexHullLib.obj
 0002:00006338       $chain$16$?findSimplex@QuickHull@local@@IEAA_NXZ 0000000180032338     QuickHullConvexHullLib.obj
 0002:00006348       $unwind$?addSimplex@QuickHull@local@@IEAAXPEAUQuickHullVertex@2@_N@Z 0000000180032348     QuickHullConvexHullLib.obj
 0002:00006364       $chain$2$?addSimplex@QuickHull@local@@IEAAXPEAUQuickHullVertex@2@_N@Z 0000000180032364     QuickHullConvexHullLib.obj
 0002:00006380       $chain$8$?addSimplex@QuickHull@local@@IEAAXPEAUQuickHullVertex@2@_N@Z 0000000180032380     QuickHullConvexHullLib.obj
 0002:000063a4       $chain$3$?addSimplex@QuickHull@local@@IEAAXPEAUQuickHullVertex@2@_N@Z 00000001800323a4     QuickHullConvexHullLib.obj
 0002:000063b4       $unwind$?nextPointToAdd@QuickHull@local@@IEAAPEAUQuickHullVertex@2@AEAPEAUQuickHullFace@2@@Z 00000001800323b4     QuickHullConvexHullLib.obj
 0002:000063c8       $unwind$?addPointToHull@QuickHull@local@@IEAA_NPEBUQuickHullVertex@2@AEAUQuickHullFace@2@AEA_N@Z 00000001800323c8     QuickHullConvexHullLib.obj
 0002:000063dc       $chain$1$?addPointToHull@QuickHull@local@@IEAA_NPEBUQuickHullVertex@2@AEAUQuickHullFace@2@AEA_N@Z 00000001800323dc     QuickHullConvexHullLib.obj
 0002:000063f4       $chain$2$?addPointToHull@QuickHull@local@@IEAA_NPEBUQuickHullVertex@2@AEAUQuickHullFace@2@AEA_N@Z 00000001800323f4     QuickHullConvexHullLib.obj
 0002:00006408       $unwind$?createTriangle@QuickHull@local@@IEAAPEAUQuickHullFace@2@AEBUQuickHullVertex@2@00@Z 0000000180032408     QuickHullConvexHullLib.obj
 0002:00006434       $unwind$?calculateHorizon@QuickHull@local@@IEAAXAEBVPxVec3@physx@@PEAUQuickHullHalfEdge@2@AEAUQuickHullFace@2@AEAV?$Array@PEAUQuickHullHalfEdge@local@@V?$ReflectionAllocator@PEAUQuickHullHalfEdge@local@@@shdfnd@physx@@@shdfnd@4@AEAV?$Array@PEAUQuickHullFace@local@@V?$ReflectionAllocator@PEAUQuickHullFace@local@@@shdfnd@physx@@@84@@Z 0000000180032434     QuickHullConvexHullLib.obj
 0002:0000644c       $chain$1$?doAdjacentMerge@QuickHull@local@@IEAA_NAEAUQuickHullFace@2@_NAEA_N@Z 000000018003244c     QuickHullConvexHullLib.obj
 0002:00006464       $chain$2$?doAdjacentMerge@QuickHull@local@@IEAA_NAEAUQuickHullFace@2@_NAEA_N@Z 0000000180032464     QuickHullConvexHullLib.obj
 0002:00006478       $chain$3$?doAdjacentMerge@QuickHull@local@@IEAA_NAEAUQuickHullFace@2@_NAEA_N@Z 0000000180032478     QuickHullConvexHullLib.obj
 0002:0000648c       $chain$4$?doAdjacentMerge@QuickHull@local@@IEAA_NAEAUQuickHullFace@2@_NAEA_N@Z 000000018003248c     QuickHullConvexHullLib.obj
 0002:0000649c       $chain$5$?doAdjacentMerge@QuickHull@local@@IEAA_NAEAUQuickHullFace@2@_NAEA_N@Z 000000018003249c     QuickHullConvexHullLib.obj
 0002:000064ac       $unwind$?resolveUnclaimedPoints@QuickHull@local@@IEAAXAEBV?$Array@PEAUQuickHullFace@local@@V?$ReflectionAllocator@PEAUQuickHullFace@local@@@shdfnd@physx@@@shdfnd@physx@@@Z 00000001800324ac     QuickHullConvexHullLib.obj
 0002:000064bc       $chain$1$?resolveUnclaimedPoints@QuickHull@local@@IEAAXAEBV?$Array@PEAUQuickHullFace@local@@V?$ReflectionAllocator@PEAUQuickHullFace@local@@@shdfnd@physx@@@shdfnd@physx@@@Z 00000001800324bc     QuickHullConvexHullLib.obj
 0002:000064d4       $chain$2$?resolveUnclaimedPoints@QuickHull@local@@IEAAXAEBV?$Array@PEAUQuickHullFace@local@@V?$ReflectionAllocator@PEAUQuickHullFace@local@@@shdfnd@physx@@@shdfnd@physx@@@Z 00000001800324d4     QuickHullConvexHullLib.obj
 0002:000064e4       $unwind$?postMergeHull@QuickHull@local@@IEAAXXZ 00000001800324e4     QuickHullConvexHullLib.obj
 0002:0000650c       $cppxdata$?postMergeHull@QuickHull@local@@IEAAXXZ 000000018003250c     QuickHullConvexHullLib.obj
 0002:00006515       $stateUnwindMap$?postMergeHull@QuickHull@local@@IEAAXXZ 0000000180032515     QuickHullConvexHullLib.obj
 0002:00006521       $ip2state$?postMergeHull@QuickHull@local@@IEAAXXZ 0000000180032521     QuickHullConvexHullLib.obj
 0002:0000652c       $unwind$?canMergeFaces@QuickHull@local@@IEAA_NAEBUQuickHullHalfEdge@2@@Z 000000018003252c     QuickHullConvexHullLib.obj
 0002:00006580       $cppxdata$?canMergeFaces@QuickHull@local@@IEAA_NAEBUQuickHullHalfEdge@2@@Z 0000000180032580     QuickHullConvexHullLib.obj
 0002:00006589       $stateUnwindMap$?canMergeFaces@QuickHull@local@@IEAA_NAEBUQuickHullHalfEdge@2@@Z 0000000180032589     QuickHullConvexHullLib.obj
 0002:00006595       $ip2state$?canMergeFaces@QuickHull@local@@IEAA_NAEBUQuickHullHalfEdge@2@@Z 0000000180032595     QuickHullConvexHullLib.obj
 0002:000065a4       $unwind$?init@?$MemBlock@UQuickHullHalfEdge@local@@$0A@@local@@QEAAXI@Z 00000001800325a4     QuickHullConvexHullLib.obj
 0002:000065b0       $unwind$??1?$MemBlock@UQuickHullFace@local@@$00@local@@QEAA@XZ 00000001800325b0     QuickHullConvexHullLib.obj
 0002:000065b0       $unwind$??1?$MemBlock@UQuickHullHalfEdge@local@@$0A@@local@@QEAA@XZ 00000001800325b0     QuickHullConvexHullLib.obj
 0002:000065c8       $cppxdata$??1?$MemBlock@UQuickHullFace@local@@$00@local@@QEAA@XZ 00000001800325c8     QuickHullConvexHullLib.obj
 0002:000065c8       $cppxdata$??1?$MemBlock@UQuickHullHalfEdge@local@@$0A@@local@@QEAA@XZ 00000001800325c8     QuickHullConvexHullLib.obj
 0002:000065d1       $ip2state$??1?$MemBlock@UQuickHullFace@local@@$00@local@@QEAA@XZ 00000001800325d1     QuickHullConvexHullLib.obj
 0002:000065d1       $ip2state$??1?$MemBlock@UQuickHullHalfEdge@local@@$0A@@local@@QEAA@XZ 00000001800325d1     QuickHullConvexHullLib.obj
 0002:000065d8       $unwind$?getFreeItem@?$MemBlock@UQuickHullHalfEdge@local@@$0A@@local@@QEAAPEAUQuickHullHalfEdge@2@XZ 00000001800325d8     QuickHullConvexHullLib.obj
 0002:000065e4       $chain$1$?allocate@?$Array@PEAUQuickHullHalfEdge@local@@V?$ReflectionAllocator@PEAUQuickHullHalfEdge@local@@@shdfnd@physx@@@shdfnd@physx@@IEAAPEAPEAUQuickHullHalfEdge@local@@I@Z 00000001800325e4     QuickHullConvexHullLib.obj
 0002:000065fc       $chain$3$?allocate@?$Array@PEAUQuickHullHalfEdge@local@@V?$ReflectionAllocator@PEAUQuickHullHalfEdge@local@@@shdfnd@physx@@@shdfnd@physx@@IEAAPEAPEAUQuickHullHalfEdge@local@@I@Z 00000001800325fc     QuickHullConvexHullLib.obj
 0002:00006610       $chain$4$?allocate@?$Array@PEAUQuickHullHalfEdge@local@@V?$ReflectionAllocator@PEAUQuickHullHalfEdge@local@@@shdfnd@physx@@@shdfnd@physx@@IEAAPEAPEAUQuickHullHalfEdge@local@@I@Z 0000000180032610     QuickHullConvexHullLib.obj
 0002:00006620       $chain$0$?recreate@?$Array@PEAUQuickHullHalfEdge@local@@V?$ReflectionAllocator@PEAUQuickHullHalfEdge@local@@@shdfnd@physx@@@shdfnd@physx@@IEAAXI@Z 0000000180032620     QuickHullConvexHullLib.obj
 0002:00006634       $chain$1$?recreate@?$Array@PEAUQuickHullHalfEdge@local@@V?$ReflectionAllocator@PEAUQuickHullHalfEdge@local@@@shdfnd@physx@@@shdfnd@physx@@IEAAXI@Z 0000000180032634     QuickHullConvexHullLib.obj
 0002:00006644       $unwind$?init@?$MemBlock@UQuickHullFace@local@@$00@local@@QEAAXI@Z 0000000180032644     QuickHullConvexHullLib.obj
 0002:00006654       $unwind$?getFreeItem@?$MemBlock@UQuickHullFace@local@@$00@local@@QEAAPEAUQuickHullFace@2@XZ 0000000180032654     QuickHullConvexHullLib.obj
 0002:00006664       $chain$1$?allocate@?$Array@PEAUQuickHullFace@local@@V?$ReflectionAllocator@PEAUQuickHullFace@local@@@shdfnd@physx@@@shdfnd@physx@@IEAAPEAPEAUQuickHullFace@local@@I@Z 0000000180032664     QuickHullConvexHullLib.obj
 0002:0000667c       $chain$3$?allocate@?$Array@PEAUQuickHullFace@local@@V?$ReflectionAllocator@PEAUQuickHullFace@local@@@shdfnd@physx@@@shdfnd@physx@@IEAAPEAPEAUQuickHullFace@local@@I@Z 000000018003267c     QuickHullConvexHullLib.obj
 0002:00006690       $chain$4$?allocate@?$Array@PEAUQuickHullFace@local@@V?$ReflectionAllocator@PEAUQuickHullFace@local@@@shdfnd@physx@@@shdfnd@physx@@IEAAPEAPEAUQuickHullFace@local@@I@Z 0000000180032690     QuickHullConvexHullLib.obj
 0002:000066a0       $chain$0$?recreate@?$Array@PEAUQuickHullFace@local@@V?$ReflectionAllocator@PEAUQuickHullFace@local@@@shdfnd@physx@@@shdfnd@physx@@IEAAXI@Z 00000001800326a0     QuickHullConvexHullLib.obj
 0002:000066b4       $chain$1$?recreate@?$Array@PEAUQuickHullFace@local@@V?$ReflectionAllocator@PEAUQuickHullFace@local@@@shdfnd@physx@@@shdfnd@physx@@IEAAXI@Z 00000001800326b4     QuickHullConvexHullLib.obj
 0002:000066c4       $chain$1$?allocate@?$Array@PEAUQuickHullVertex@local@@V?$ReflectionAllocator@PEAUQuickHullVertex@local@@@shdfnd@physx@@@shdfnd@physx@@IEAAPEAPEAUQuickHullVertex@local@@I@Z 00000001800326c4     QuickHullConvexHullLib.obj
 0002:000066dc       $chain$3$?allocate@?$Array@PEAUQuickHullVertex@local@@V?$ReflectionAllocator@PEAUQuickHullVertex@local@@@shdfnd@physx@@@shdfnd@physx@@IEAAPEAPEAUQuickHullVertex@local@@I@Z 00000001800326dc     QuickHullConvexHullLib.obj
 0002:000066f0       $chain$4$?allocate@?$Array@PEAUQuickHullVertex@local@@V?$ReflectionAllocator@PEAUQuickHullVertex@local@@@shdfnd@physx@@@shdfnd@physx@@IEAAPEAPEAUQuickHullVertex@local@@I@Z 00000001800326f0     QuickHullConvexHullLib.obj
 0002:00006700       $chain$0$?recreate@?$Array@PEAUQuickHullVertex@local@@V?$ReflectionAllocator@PEAUQuickHullVertex@local@@@shdfnd@physx@@@shdfnd@physx@@IEAAXI@Z 0000000180032700     QuickHullConvexHullLib.obj
 0002:00006714       $chain$1$?recreate@?$Array@PEAUQuickHullVertex@local@@V?$ReflectionAllocator@PEAUQuickHullVertex@local@@@shdfnd@physx@@@shdfnd@physx@@IEAAXI@Z 0000000180032714     QuickHullConvexHullLib.obj
 0002:00006724       $chain$1$?allocate@?$Array@UExpandPoint@local@@V?$ReflectionAllocator@UExpandPoint@local@@@shdfnd@physx@@@shdfnd@physx@@IEAAPEAUExpandPoint@local@@I@Z 0000000180032724     QuickHullConvexHullLib.obj
 0002:0000673c       $chain$3$?allocate@?$Array@UExpandPoint@local@@V?$ReflectionAllocator@UExpandPoint@local@@@shdfnd@physx@@@shdfnd@physx@@IEAAPEAUExpandPoint@local@@I@Z 000000018003273c     QuickHullConvexHullLib.obj
 0002:00006750       $chain$4$?allocate@?$Array@UExpandPoint@local@@V?$ReflectionAllocator@UExpandPoint@local@@@shdfnd@physx@@@shdfnd@physx@@IEAAPEAUExpandPoint@local@@I@Z 0000000180032750     QuickHullConvexHullLib.obj
 0002:00006760       $chain$0$?recreate@?$Array@UExpandPoint@local@@V?$ReflectionAllocator@UExpandPoint@local@@@shdfnd@physx@@@shdfnd@physx@@IEAAXI@Z 0000000180032760     QuickHullConvexHullLib.obj
 0002:00006774       $chain$1$?recreate@?$Array@UExpandPoint@local@@V?$ReflectionAllocator@UExpandPoint@local@@@shdfnd@physx@@@shdfnd@physx@@IEAAXI@Z 0000000180032774     QuickHullConvexHullLib.obj
 0002:00006784       $unwind$?computeVolumeIntegralsEberly@physx@@YA_NAEBVPxConvexMeshDesc@1@MAEAUPxIntegrals@1@AEBVPxVec3@1@@Z 0000000180032784     VolumeIntegration.obj
 0002:00006784       $unwind$?computeVolumeIntegralsEberlySIMD@physx@@YA_NAEBVPxConvexMeshDesc@1@MAEAUPxIntegrals@1@AEBVPxVec3@1@@Z 0000000180032784     VolumeIntegration.obj
 0002:0000678c       $unwind$?computeVolumeIntegralsSIMD@VolumeIntegratorEberly@?A0x262ec646@physx@@QEAA_NAEAUPxIntegrals@3@AEBVPxVec3@3@@Z 000000018003278c     VolumeIntegration.obj
 0002:000067c4       $chain$1$?computeVolumeIntegralsSIMD@VolumeIntegratorEberly@?A0x262ec646@physx@@QEAA_NAEAUPxIntegrals@3@AEBVPxVec3@3@@Z 00000001800327c4     VolumeIntegration.obj
 0002:000067dc       $chain$2$?computeVolumeIntegralsSIMD@VolumeIntegratorEberly@?A0x262ec646@physx@@QEAA_NAEAUPxIntegrals@3@AEBVPxVec3@3@@Z 00000001800327dc     VolumeIntegration.obj
 0002:000067ec       $unwind$?computeVolumeIntegrals@VolumeIntegratorEberly@?A0x262ec646@physx@@QEAA_NAEAUPxIntegrals@3@AEBVPxVec3@3@@Z 00000001800327ec     VolumeIntegration.obj
 0002:0000682c       $chain$0$?computeVolumeIntegrals@VolumeIntegratorEberly@?A0x262ec646@physx@@QEAA_NAEAUPxIntegrals@3@AEBVPxVec3@3@@Z 000000018003282c     VolumeIntegration.obj
 0002:00006840       $chain$3$?computeVolumeIntegrals@VolumeIntegratorEberly@?A0x262ec646@physx@@QEAA_NAEAUPxIntegrals@3@AEBVPxVec3@3@@Z 0000000180032840     VolumeIntegration.obj
 0002:0000685c       $chain$4$?computeVolumeIntegrals@VolumeIntegratorEberly@?A0x262ec646@physx@@QEAA_NAEAUPxIntegrals@3@AEBVPxVec3@3@@Z 000000018003285c     VolumeIntegration.obj
 0002:0000686c       $chain$5$?computeVolumeIntegrals@VolumeIntegratorEberly@?A0x262ec646@physx@@QEAA_NAEAUPxIntegrals@3@AEBVPxVec3@3@@Z 000000018003286c     VolumeIntegration.obj
 0002:0000687c       $chain$1$?cookingDelayHook@@YAP6A_JXZIPEAUDelayLoadInfo@@@Z 000000018003287c     WindowsCookingDelayLoadHook.obj
 0002:00006894       $chain$3$?cookingDelayHook@@YAP6A_JXZIPEAUDelayLoadInfo@@@Z 0000000180032894     WindowsCookingDelayLoadHook.obj
 0002:00006894       $chain$5$?cookingDelayHook@@YAP6A_JXZIPEAUDelayLoadInfo@@@Z 0000000180032894     WindowsCookingDelayLoadHook.obj
 0002:000068ac       $chain$6$?cookingDelayHook@@YAP6A_JXZIPEAUDelayLoadInfo@@@Z 00000001800328ac     WindowsCookingDelayLoadHook.obj
 0002:000068bc       xdata                      00000001800328bc     PhysXCommon_64:PhysXCommon_64.dll
 0002:000068c4       xdata                      00000001800328c4     PhysXFoundation_64:PhysXFoundation_64.dll
 0002:000068cc       $unwind$?DloadObtainSection@@YAPEAXPEAK0@Z 00000001800328cc     Delayimp:delayhlp.obj
 0002:000068dc       $unwind$?DloadMakePermanentImageCommit@@YAXPEAX_K@Z 00000001800328dc     Delayimp:delayhlp.obj
 0002:000068e8       $unwind$?DloadProtectSection@@YAXKPEAK@Z 00000001800328e8     Delayimp:delayhlp.obj
 0002:000068f8       $unwind$__delayLoadHelper2 00000001800328f8     Delayimp:delayhlp.obj
 0002:00006914       $unwind$??_L@YAXPEAX_K1P6AX0@Z2@Z 0000000180032914     MSVCRT:ehvecctr.obj
 0002:00006940       $unwind$??_M@YAXPEAX_K1P6AX0@Z@Z 0000000180032940     MSVCRT:ehvecdtr.obj
 0002:00006968       $unwind$?__ArrayUnwind@@YAXPEAX_K1P6AX0@Z@Z 0000000180032968     MSVCRT:ehvecdtr.obj
 0002:00006994       $unwind$?filt$0@?0??__ArrayUnwind@@YAXPEAX_K1P6AX0@Z@Z@4HA 0000000180032994     MSVCRT:ehvecdtr.obj
 0002:000069a0       $unwind$__GSHandlerCheck_EH4 00000001800329a0     MSVCRT:gshandlereh4.obj
 0002:000069b8       $xdatasym                  00000001800329b8     MSVCRT:amdsecgs.obj
 0002:000069c0       $xdatasym                  00000001800329c0     MSVCRT:chkstk.obj
 0002:000069c8       $unwind$__GSHandlerCheckCommon 00000001800329c8     MSVCRT:gshandler.obj
 0002:000069d0       $unwind$__report_securityfailure 00000001800329d0     MSVCRT:gs_report.obj
 0002:000069d8       $unwind$__report_gsfailure 00000001800329d8     MSVCRT:gs_report.obj
 0002:000069e0       $unwind$capture_current_context 00000001800329e0     MSVCRT:gs_report.obj
 0002:000069ec       $unwind$capture_previous_context 00000001800329ec     MSVCRT:gs_report.obj
 0002:000069f8       $unwind$?dllmain_crt_process_attach@@YAHQEAUHINSTANCE__@@QEAX@Z 00000001800329f8     MSVCRT:dll_dllmain.obj
 0002:00006a34       $unwind$?dllmain_crt_process_detach@@YAH_N@Z 0000000180032a34     MSVCRT:dll_dllmain.obj
 0002:00006a88       $unwind$?dllmain_dispatch@@YAHQEAUHINSTANCE__@@KQEAX@Z 0000000180032a88     MSVCRT:dll_dllmain.obj
 0002:00006ab0       $unwind$?filt$0@?0??dllmain_dispatch@@YAHQEAUHINSTANCE__@@KQEAX@Z@4HA 0000000180032ab0     MSVCRT:dll_dllmain.obj
 0002:00006ab8       $unwind$__isa_available_init 0000000180032ab8     MSVCRT:cpu_disp.obj
 0002:00006ac8       $xdatasym                  0000000180032ac8     MSVCRT:svml_ssinf4_sse2.obj
 0002:00006b00       $xdatasym                  0000000180032b00     MSVCRT:svml_ssinf4_sse4.obj
 0002:00006b34       $unwind$__security_init_cookie 0000000180032b34     MSVCRT:gs_support.obj
 0002:00006b40       $unwind$__scrt_is_nonwritable_in_current_image 0000000180032b40     MSVCRT:utility.obj
 0002:00006b60       $unwind$__scrt_is_nonwritable_in_current_image$filt$0 0000000180032b60     MSVCRT:utility.obj
 0002:00006b68       $unwind$__scrt_fastfail    0000000180032b68     MSVCRT:utility_desktop.obj
 0002:00006b78       $xdatasym                  0000000180032b78     MSVCRT:guard_dispatch.obj
 0002:00006b80       $xdatasym                  0000000180032b80     MSVCRT:guard_xfg_dispatch.obj
 0002:00006b88       $xdatasym                  0000000180032b88     MSVCRT:svml_s_sin_cout.obj
 0002:00007850       .edata                     0000000180033850     PhysXCooking_64.exp
 0002:00007878       rgpv                       0000000180033878     PhysXCooking_64.exp
 0002:00007a60       rgszName                   0000000180033a60     PhysXCooking_64.exp
 0002:00007c48       rgwOrd                     0000000180033c48     PhysXCooking_64.exp
 0002:00007d3c       szName                     0000000180033d3c     PhysXCooking_64.exp
 0002:00007d50       $N00001                    0000000180033d50     PhysXCooking_64.exp
 0002:00007d7f       $N00002                    0000000180033d7f     PhysXCooking_64.exp
 0002:00007da6       $N00003                    0000000180033da6     PhysXCooking_64.exp
 0002:00007de1       $N00004                    0000000180033de1     PhysXCooking_64.exp
 0002:00007e08       $N00005                    0000000180033e08     PhysXCooking_64.exp
 0002:00007e34       $N00006                    0000000180033e34     PhysXCooking_64.exp
 0002:00007e55       $N00007                    0000000180033e55     PhysXCooking_64.exp
 0002:00007e8a       $N00008                    0000000180033e8a     PhysXCooking_64.exp
 0002:00007ea3       $N00009                    0000000180033ea3     PhysXCooking_64.exp
 0002:00007ec3       $N00010                    0000000180033ec3     PhysXCooking_64.exp
 0002:00007eec       $N00011                    0000000180033eec     PhysXCooking_64.exp
 0002:00007f13       $N00012                    0000000180033f13     PhysXCooking_64.exp
 0002:00007f42       $N00013                    0000000180033f42     PhysXCooking_64.exp
 0002:00007f6f       $N00014                    0000000180033f6f     PhysXCooking_64.exp
 0002:00007fa0       $N00015                    0000000180033fa0     PhysXCooking_64.exp
 0002:00007fc5       $N00016                    0000000180033fc5     PhysXCooking_64.exp
 0002:00007ff0       $N00017                    0000000180033ff0     PhysXCooking_64.exp
 0002:00008016       $N00018                    0000000180034016     PhysXCooking_64.exp
 0002:00008035       $N00019                    0000000180034035     PhysXCooking_64.exp
 0002:0000806b       $N00020                    000000018003406b     PhysXCooking_64.exp
 0002:00008095       $N00021                    0000000180034095     PhysXCooking_64.exp
 0002:000080bc       $N00022                    00000001800340bc     PhysXCooking_64.exp
 0002:000080e5       $N00023                    00000001800340e5     PhysXCooking_64.exp
 0002:000080fe       $N00024                    00000001800340fe     PhysXCooking_64.exp
 0002:00008123       $N00025                    0000000180034123     PhysXCooking_64.exp
 0002:00008142       $N00026                    0000000180034142     PhysXCooking_64.exp
 0002:00008161       $N00027                    0000000180034161     PhysXCooking_64.exp
 0002:00008181       $N00028                    0000000180034181     PhysXCooking_64.exp
 0002:000081b7       $N00029                    00000001800341b7     PhysXCooking_64.exp
 0002:000081ef       $N00030                    00000001800341ef     PhysXCooking_64.exp
 0002:00008223       $N00031                    0000000180034223     PhysXCooking_64.exp
 0002:00008255       $N00032                    0000000180034255     PhysXCooking_64.exp
 0002:00008282       $N00033                    0000000180034282     PhysXCooking_64.exp
 0002:000082aa       $N00034                    00000001800342aa     PhysXCooking_64.exp
 0002:000082db       $N00035                    00000001800342db     PhysXCooking_64.exp
 0002:0000830a       $N00036                    000000018003430a     PhysXCooking_64.exp
 0002:0000833a       $N00037                    000000018003433a     PhysXCooking_64.exp
 0002:00008368       $N00038                    0000000180034368     PhysXCooking_64.exp
 0002:00008399       $N00039                    0000000180034399     PhysXCooking_64.exp
 0002:000083cf       $N00040                    00000001800343cf     PhysXCooking_64.exp
 0002:00008403       $N00041                    0000000180034403     PhysXCooking_64.exp
 0002:00008435       $N00042                    0000000180034435     PhysXCooking_64.exp
 0002:00008467       $N00043                    0000000180034467     PhysXCooking_64.exp
 0002:00008493       $N00044                    0000000180034493     PhysXCooking_64.exp
 0002:000084af       $N00045                    00000001800344af     PhysXCooking_64.exp
 0002:000084d9       $N00046                    00000001800344d9     PhysXCooking_64.exp
 0002:000084fd       $N00047                    00000001800344fd     PhysXCooking_64.exp
 0002:0000852f       $N00048                    000000018003452f     PhysXCooking_64.exp
 0002:00008556       $N00049                    0000000180034556     PhysXCooking_64.exp
 0002:00008584       $N00050                    0000000180034584     PhysXCooking_64.exp
 0002:000085af       $N00051                    00000001800345af     PhysXCooking_64.exp
 0002:000085dc       $N00052                    00000001800345dc     PhysXCooking_64.exp
 0002:00008605       $N00053                    0000000180034605     PhysXCooking_64.exp
 0002:00008634       $N00054                    0000000180034634     PhysXCooking_64.exp
 0002:0000865d       $N00055                    000000018003465d     PhysXCooking_64.exp
 0002:00008686       $N00056                    0000000180034686     PhysXCooking_64.exp
 0002:000086b4       $N00057                    00000001800346b4     PhysXCooking_64.exp
 0002:000086dc       $N00058                    00000001800346dc     PhysXCooking_64.exp
 0002:00008717       $N00059                    0000000180034717     PhysXCooking_64.exp
 0002:00008741       $N00060                    0000000180034741     PhysXCooking_64.exp
 0002:00008775       $N00061                    0000000180034775     PhysXCooking_64.exp
 0002:000087ab       $N00062                    00000001800347ab     PhysXCooking_64.exp
 0002:000087e7       $N00063                    00000001800347e7     PhysXCooking_64.exp
 0002:0000882f       $N00064                    000000018003482f     PhysXCooking_64.exp
 0002:0000887f       $N00065                    000000018003487f     PhysXCooking_64.exp
 0002:000088b3       $N00066                    00000001800348b3     PhysXCooking_64.exp
 0002:000088e8       $N00067                    00000001800348e8     PhysXCooking_64.exp
 0002:0000891e       $N00068                    000000018003491e     PhysXCooking_64.exp
 0002:00008945       $N00069                    0000000180034945     PhysXCooking_64.exp
 0002:0000898d       $N00070                    000000018003498d     PhysXCooking_64.exp
 0002:000089d3       $N00071                    00000001800349d3     PhysXCooking_64.exp
 0002:00008a2b       $N00072                    0000000180034a2b     PhysXCooking_64.exp
 0002:00008a72       $N00073                    0000000180034a72     PhysXCooking_64.exp
 0002:00008a9d       $N00074                    0000000180034a9d     PhysXCooking_64.exp
 0002:00008acd       $N00075                    0000000180034acd     PhysXCooking_64.exp
 0002:00008b1d       $N00076                    0000000180034b1d     PhysXCooking_64.exp
 0002:00008bcc       $N00077                    0000000180034bcc     PhysXCooking_64.exp
 0002:00008c2a       $N00078                    0000000180034c2a     PhysXCooking_64.exp
 0002:00008c56       $N00079                    0000000180034c56     PhysXCooking_64.exp
 0002:00008c82       $N00080                    0000000180034c82     PhysXCooking_64.exp
 0002:00008cb7       $N00081                    0000000180034cb7     PhysXCooking_64.exp
 0002:00008ce0       $N00082                    0000000180034ce0     PhysXCooking_64.exp
 0002:00008d1c       $N00083                    0000000180034d1c     PhysXCooking_64.exp
 0002:00008d48       $N00084                    0000000180034d48     PhysXCooking_64.exp
 0002:00008d7b       $N00085                    0000000180034d7b     PhysXCooking_64.exp
 0002:00008dc8       $N00086                    0000000180034dc8     PhysXCooking_64.exp
 0002:00008dfb       $N00087                    0000000180034dfb     PhysXCooking_64.exp
 0002:00008e35       $N00088                    0000000180034e35     PhysXCooking_64.exp
 0002:00008e6f       $N00089                    0000000180034e6f     PhysXCooking_64.exp
 0002:00008eab       $N00090                    0000000180034eab     PhysXCooking_64.exp
 0002:00008eef       $N00091                    0000000180034eef     PhysXCooking_64.exp
 0002:00008f1e       $N00092                    0000000180034f1e     PhysXCooking_64.exp
 0002:00008f98       $N00093                    0000000180034f98     PhysXCooking_64.exp
 0002:00008ff5       $N00094                    0000000180034ff5     PhysXCooking_64.exp
 0002:00009021       $N00095                    0000000180035021     PhysXCooking_64.exp
 0002:00009055       $N00096                    0000000180035055     PhysXCooking_64.exp
 0002:0000908e       $N00097                    000000018003508e     PhysXCooking_64.exp
 0002:000090cb       $N00098                    00000001800350cb     PhysXCooking_64.exp
 0002:00009101       $N00099                    0000000180035101     PhysXCooking_64.exp
 0002:0000912e       $N00100                    000000018003512e     PhysXCooking_64.exp
 0002:0000915b       $N00101                    000000018003515b     PhysXCooking_64.exp
 0002:00009186       $N00102                    0000000180035186     PhysXCooking_64.exp
 0002:000091b2       $N00103                    00000001800351b2     PhysXCooking_64.exp
 0002:000091df       $N00104                    00000001800351df     PhysXCooking_64.exp
 0002:000091ff       $N00105                    00000001800351ff     PhysXCooking_64.exp
 0002:0000923b       $N00106                    000000018003523b     PhysXCooking_64.exp
 0002:0000926c       $N00107                    000000018003526c     PhysXCooking_64.exp
 0002:0000929e       $N00108                    000000018003529e     PhysXCooking_64.exp
 0002:000092e0       $N00109                    00000001800352e0     PhysXCooking_64.exp
 0002:0000930d       $N00110                    000000018003530d     PhysXCooking_64.exp
 0002:00009331       $N00111                    0000000180035331     PhysXCooking_64.exp
 0002:00009361       $N00112                    0000000180035361     PhysXCooking_64.exp
 0002:00009394       $N00113                    0000000180035394     PhysXCooking_64.exp
 0002:000093b9       $N00114                    00000001800353b9     PhysXCooking_64.exp
 0002:000093e7       $N00115                    00000001800353e7     PhysXCooking_64.exp
 0002:0000940f       $N00116                    000000018003540f     PhysXCooking_64.exp
 0002:0000942f       $N00117                    000000018003542f     PhysXCooking_64.exp
 0002:00009474       $N00118                    0000000180035474     PhysXCooking_64.exp
 0002:000094b1       $N00119                    00000001800354b1     PhysXCooking_64.exp
 0002:000094ee       $N00120                    00000001800354ee     PhysXCooking_64.exp
 0002:00009521       $N00121                    0000000180035521     PhysXCooking_64.exp
 0002:00009531       $N00122                    0000000180035531     PhysXCooking_64.exp
 0002:000097c0       .idata$6                   00000001800357c0     kernel32:KERNEL32.dll
 0002:000098a4       .idata$6                   00000001800358a4     vcruntime:VCRUNTIME140.dll
 0002:000098b6       .idata$6                   00000001800358b6     vcruntime:VCRUNTIME140_1.dll
 0002:000099a4       .idata$6                   00000001800359a4     ucrt:api-ms-win-crt-string-l1-1-0.dll
 0002:000099c6       .idata$6                   00000001800359c6     ucrt:api-ms-win-crt-math-l1-1-0.dll
 0002:000099e6       .idata$6                   00000001800359e6     ucrt:api-ms-win-crt-runtime-l1-1-0.dll
 0002:00009a08       .idata$6                   0000000180035a08     ucrt:api-ms-win-crt-heap-l1-1-0.dll
 0003:00000000       ?MAXDOT_MINANG@local@@3MB  0000000180036000     ConvexHullUtils.obj
 0003:00000004       ?MAXDOT_MINANG@local@@3MB  0000000180036004     QuickHullConvexHullLib.obj
 0003:00000ac0       ?maxV3Error@_VecMathTests@aos@shdfnd@physx@@3T__m128@@B 0000000180036ac0     Cooking.obj
 0003:00000ad0       ?minFError@_VecMathTests@aos@shdfnd@physx@@3T__m128@@B 0000000180036ad0     Cooking.obj
 0003:00000ae0       ?maxV4Error@_VecMathTests@aos@shdfnd@physx@@3T__m128@@B 0000000180036ae0     Cooking.obj
 0003:00000af0       ?minV4Error@_VecMathTests@aos@shdfnd@physx@@3T__m128@@B 0000000180036af0     Cooking.obj
 0003:00000b00       ?minV3Error@_VecMathTests@aos@shdfnd@physx@@3T__m128@@B 0000000180036b00     Cooking.obj
 0003:00000b10       ?maxFError@_VecMathTests@aos@shdfnd@physx@@3T__m128@@B 0000000180036b10     Cooking.obj
 0003:00000b20       ?maxV3Error@_VecMathTests@aos@shdfnd@physx@@3T__m128@@B 0000000180036b20     BVHStructureBuilder.obj
 0003:00000b30       ?minFError@_VecMathTests@aos@shdfnd@physx@@3T__m128@@B 0000000180036b30     BVHStructureBuilder.obj
 0003:00000b40       ?maxV4Error@_VecMathTests@aos@shdfnd@physx@@3T__m128@@B 0000000180036b40     BVHStructureBuilder.obj
 0003:00000b50       ?minV4Error@_VecMathTests@aos@shdfnd@physx@@3T__m128@@B 0000000180036b50     BVHStructureBuilder.obj
 0003:00000b60       ?minV3Error@_VecMathTests@aos@shdfnd@physx@@3T__m128@@B 0000000180036b60     BVHStructureBuilder.obj
 0003:00000b70       ?maxFError@_VecMathTests@aos@shdfnd@physx@@3T__m128@@B 0000000180036b70     BVHStructureBuilder.obj
 0003:00000b80       ?maxV3Error@_VecMathTests@aos@shdfnd@physx@@3T__m128@@B 0000000180036b80     RTreeCooking.obj
 0003:00000b90       ?minFError@_VecMathTests@aos@shdfnd@physx@@3T__m128@@B 0000000180036b90     RTreeCooking.obj
 0003:00000ba0       ?maxV4Error@_VecMathTests@aos@shdfnd@physx@@3T__m128@@B 0000000180036ba0     RTreeCooking.obj
 0003:00000bb0       ?minV4Error@_VecMathTests@aos@shdfnd@physx@@3T__m128@@B 0000000180036bb0     RTreeCooking.obj
 0003:00000bc0       ?minV3Error@_VecMathTests@aos@shdfnd@physx@@3T__m128@@B 0000000180036bc0     RTreeCooking.obj
 0003:00000bd0       ?maxFError@_VecMathTests@aos@shdfnd@physx@@3T__m128@@B 0000000180036bd0     RTreeCooking.obj
 0003:00000be0       ?maxV3Error@_VecMathTests@aos@shdfnd@physx@@3T__m128@@B 0000000180036be0     MeshBuilder.obj
 0003:00000bf0       ?minFError@_VecMathTests@aos@shdfnd@physx@@3T__m128@@B 0000000180036bf0     MeshBuilder.obj
 0003:00000c00       ?maxV4Error@_VecMathTests@aos@shdfnd@physx@@3T__m128@@B 0000000180036c00     MeshBuilder.obj
 0003:00000c10       ?minV4Error@_VecMathTests@aos@shdfnd@physx@@3T__m128@@B 0000000180036c10     MeshBuilder.obj
 0003:00000c20       ?minV3Error@_VecMathTests@aos@shdfnd@physx@@3T__m128@@B 0000000180036c20     MeshBuilder.obj
 0003:00000c30       ?maxFError@_VecMathTests@aos@shdfnd@physx@@3T__m128@@B 0000000180036c30     MeshBuilder.obj
 0003:00000c40       ?maxV3Error@_VecMathTests@aos@shdfnd@physx@@3T__m128@@B 0000000180036c40     TriangleMeshBuilder.obj
 0003:00000c50       ?minFError@_VecMathTests@aos@shdfnd@physx@@3T__m128@@B 0000000180036c50     TriangleMeshBuilder.obj
 0003:00000c60       ?maxV4Error@_VecMathTests@aos@shdfnd@physx@@3T__m128@@B 0000000180036c60     TriangleMeshBuilder.obj
 0003:00000c70       ?minV4Error@_VecMathTests@aos@shdfnd@physx@@3T__m128@@B 0000000180036c70     TriangleMeshBuilder.obj
 0003:00000c80       ?minV3Error@_VecMathTests@aos@shdfnd@physx@@3T__m128@@B 0000000180036c80     TriangleMeshBuilder.obj
 0003:00000c90       ?maxFError@_VecMathTests@aos@shdfnd@physx@@3T__m128@@B 0000000180036c90     TriangleMeshBuilder.obj
 0003:00000ca0       ?maxV3Error@_VecMathTests@aos@shdfnd@physx@@3T__m128@@B 0000000180036ca0     BigConvexDataBuilder.obj
 0003:00000cb0       ?minFError@_VecMathTests@aos@shdfnd@physx@@3T__m128@@B 0000000180036cb0     BigConvexDataBuilder.obj
 0003:00000cc0       ?maxV4Error@_VecMathTests@aos@shdfnd@physx@@3T__m128@@B 0000000180036cc0     BigConvexDataBuilder.obj
 0003:00000cd0       ?minV4Error@_VecMathTests@aos@shdfnd@physx@@3T__m128@@B 0000000180036cd0     BigConvexDataBuilder.obj
 0003:00000ce0       ?minV3Error@_VecMathTests@aos@shdfnd@physx@@3T__m128@@B 0000000180036ce0     BigConvexDataBuilder.obj
 0003:00000cf0       ?maxFError@_VecMathTests@aos@shdfnd@physx@@3T__m128@@B 0000000180036cf0     BigConvexDataBuilder.obj
 0003:00000d00       ?maxV3Error@_VecMathTests@aos@shdfnd@physx@@3T__m128@@B 0000000180036d00     ConvexHullBuilder.obj
 0003:00000d10       ?minFError@_VecMathTests@aos@shdfnd@physx@@3T__m128@@B 0000000180036d10     ConvexHullBuilder.obj
 0003:00000d20       ?maxV4Error@_VecMathTests@aos@shdfnd@physx@@3T__m128@@B 0000000180036d20     ConvexHullBuilder.obj
 0003:00000d30       ?minV4Error@_VecMathTests@aos@shdfnd@physx@@3T__m128@@B 0000000180036d30     ConvexHullBuilder.obj
 0003:00000d40       ?minV3Error@_VecMathTests@aos@shdfnd@physx@@3T__m128@@B 0000000180036d40     ConvexHullBuilder.obj
 0003:00000d50       ?maxFError@_VecMathTests@aos@shdfnd@physx@@3T__m128@@B 0000000180036d50     ConvexHullBuilder.obj
 0003:00000d60       ?maxV3Error@_VecMathTests@aos@shdfnd@physx@@3T__m128@@B 0000000180036d60     ConvexHullUtils.obj
 0003:00000d70       ?minFError@_VecMathTests@aos@shdfnd@physx@@3T__m128@@B 0000000180036d70     ConvexHullUtils.obj
 0003:00000d80       ?maxV4Error@_VecMathTests@aos@shdfnd@physx@@3T__m128@@B 0000000180036d80     ConvexHullUtils.obj
 0003:00000d90       ?minV4Error@_VecMathTests@aos@shdfnd@physx@@3T__m128@@B 0000000180036d90     ConvexHullUtils.obj
 0003:00000da0       ?minV3Error@_VecMathTests@aos@shdfnd@physx@@3T__m128@@B 0000000180036da0     ConvexHullUtils.obj
 0003:00000db0       ?maxFError@_VecMathTests@aos@shdfnd@physx@@3T__m128@@B 0000000180036db0     ConvexHullUtils.obj
 0003:00000dc0       ?maxV3Error@_VecMathTests@aos@shdfnd@physx@@3T__m128@@B 0000000180036dc0     ConvexMeshBuilder.obj
 0003:00000dd0       ?minFError@_VecMathTests@aos@shdfnd@physx@@3T__m128@@B 0000000180036dd0     ConvexMeshBuilder.obj
 0003:00000de0       ?maxV4Error@_VecMathTests@aos@shdfnd@physx@@3T__m128@@B 0000000180036de0     ConvexMeshBuilder.obj
 0003:00000df0       ?minV4Error@_VecMathTests@aos@shdfnd@physx@@3T__m128@@B 0000000180036df0     ConvexMeshBuilder.obj
 0003:00000e00       ?minV3Error@_VecMathTests@aos@shdfnd@physx@@3T__m128@@B 0000000180036e00     ConvexMeshBuilder.obj
 0003:00000e10       ?maxFError@_VecMathTests@aos@shdfnd@physx@@3T__m128@@B 0000000180036e10     ConvexMeshBuilder.obj
 0003:00000e20       ?maxV3Error@_VecMathTests@aos@shdfnd@physx@@3T__m128@@B 0000000180036e20     VolumeIntegration.obj
 0003:00000e30       ?minFError@_VecMathTests@aos@shdfnd@physx@@3T__m128@@B 0000000180036e30     VolumeIntegration.obj
 0003:00000e40       ?maxV4Error@_VecMathTests@aos@shdfnd@physx@@3T__m128@@B 0000000180036e40     VolumeIntegration.obj
 0003:00000e50       ?minV4Error@_VecMathTests@aos@shdfnd@physx@@3T__m128@@B 0000000180036e50     VolumeIntegration.obj
 0003:00000e60       ?minV3Error@_VecMathTests@aos@shdfnd@physx@@3T__m128@@B 0000000180036e60     VolumeIntegration.obj
 0003:00000e70       ?maxFError@_VecMathTests@aos@shdfnd@physx@@3T__m128@@B 0000000180036e70     VolumeIntegration.obj
 0003:00000e80       ?gCookingDelayLoadHook@@3PEBVPxDelayLoadHook@physx@@EB 0000000180036e80     WindowsCookingDelayLoadHook.obj
 0003:00000ee0       GS_ExceptionRecord         0000000180036ee0     MSVCRT:gs_report.obj
 0003:00000f80       GS_ContextRecord           0000000180036f80     MSVCRT:gs_report.obj
 0003:00001450       ?__proc_attached@@3HA      0000000180037450     MSVCRT:dll_dllmain.obj
 0003:00001478       ?is_initialized_as_dll@@3_NA 0000000180037478     MSVCRT:utility.obj
 0003:00001479       ?module_local_atexit_table_initialized@@3_NA 0000000180037479     MSVCRT:utility.obj
 0003:00001480       ?module_local_atexit_table@@3U_onexit_table_t@@A 0000000180037480     MSVCRT:utility.obj
 0003:00001498       ?module_local_at_quick_exit_table@@3U_onexit_table_t@@A 0000000180037498     MSVCRT:utility.obj
 0005:00000000       _2il0floatpacket$19        000000018003a000     MSVCRT:svml_ssinf4_sse2.obj
 0005:00002200       _vmlsSinHATab              000000018003c200     MSVCRT:svml_s_sin_cout.obj
 0006:000000a0       $R000000                   000000018003d0a0     PhysXCooking.res
 0006:000003d0       $R000330                   000000018003d3d0     PhysXCooking.res
